Archive member included because of file (symbol)

c:/renesas/gcc/redhat/gnurx-elf/8.3.0.202002/rx-elf/rx-elf/bin/../lib/gcc/rx-elf/8.3.0.202002-GNURX/../../../../rx-elf/lib/no-fpu-libs\libc_nano.a(lib_a-sprintf.o)
                              ./src/FreeRTOS_Demo/Full_Demo/Sample-CLI-commands.o (sprintf)
c:/renesas/gcc/redhat/gnurx-elf/8.3.0.202002/rx-elf/rx-elf/bin/../lib/gcc/rx-elf/8.3.0.202002-GNURX/../../../../rx-elf/lib/no-fpu-libs\libc_nano.a(lib_a-strlen.o)
                              ./src/FreeRTOS_Demo/Full_Demo/FreeRTOS-Plus-CLI/FreeRTOS_CLI.o (strlen)
c:/renesas/gcc/redhat/gnurx-elf/8.3.0.202002/rx-elf/rx-elf/bin/../lib/gcc/rx-elf/8.3.0.202002-GNURX/../../../../rx-elf/lib/no-fpu-libs\libc_nano.a(lib_a-strncat.o)
                              ./src/FreeRTOS_Demo/Full_Demo/Sample-CLI-commands.o (strncat)
c:/renesas/gcc/redhat/gnurx-elf/8.3.0.202002/rx-elf/rx-elf/bin/../lib/gcc/rx-elf/8.3.0.202002-GNURX/../../../../rx-elf/lib/no-fpu-libs\libc_nano.a(lib_a-strncpy.o)
                              ./src/FreeRTOS_Demo/Full_Demo/FreeRTOS-Plus-CLI/FreeRTOS_CLI.o (strncpy)
c:/renesas/gcc/redhat/gnurx-elf/8.3.0.202002/rx-elf/rx-elf/bin/../lib/gcc/rx-elf/8.3.0.202002-GNURX/../../../../rx-elf/lib/no-fpu-libs\libc_nano.a(lib_a-impure.o)
                              c:/renesas/gcc/redhat/gnurx-elf/8.3.0.202002/rx-elf/rx-elf/bin/../lib/gcc/rx-elf/8.3.0.202002-GNURX/../../../../rx-elf/lib/no-fpu-libs\libc_nano.a(lib_a-sprintf.o) (_impure_ptr)
c:/renesas/gcc/redhat/gnurx-elf/8.3.0.202002/rx-elf/rx-elf/bin/../lib/gcc/rx-elf/8.3.0.202002-GNURX/../../../../rx-elf/lib/no-fpu-libs\libc_nano.a(lib_a-nano-svfprintf.o)
                              c:/renesas/gcc/redhat/gnurx-elf/8.3.0.202002/rx-elf/rx-elf/bin/../lib/gcc/rx-elf/8.3.0.202002-GNURX/../../../../rx-elf/lib/no-fpu-libs\libc_nano.a(lib_a-sprintf.o) (_svfprintf_r)
c:/renesas/gcc/redhat/gnurx-elf/8.3.0.202002/rx-elf/rx-elf/bin/../lib/gcc/rx-elf/8.3.0.202002-GNURX/../../../../rx-elf/lib/no-fpu-libs\libc_nano.a(lib_a-nano-vfprintf_i.o)
                              c:/renesas/gcc/redhat/gnurx-elf/8.3.0.202002/rx-elf/rx-elf/bin/../lib/gcc/rx-elf/8.3.0.202002-GNURX/../../../../rx-elf/lib/no-fpu-libs\libc_nano.a(lib_a-nano-svfprintf.o) (_printf_i)
c:/renesas/gcc/redhat/gnurx-elf/8.3.0.202002/rx-elf/rx-elf/bin/../lib/gcc/rx-elf/8.3.0.202002-GNURX/../../../../rx-elf/lib/no-fpu-libs\libc_nano.a(lib_a-memchr.o)
                              c:/renesas/gcc/redhat/gnurx-elf/8.3.0.202002/rx-elf/rx-elf/bin/../lib/gcc/rx-elf/8.3.0.202002-GNURX/../../../../rx-elf/lib/no-fpu-libs\libc_nano.a(lib_a-nano-svfprintf.o) (memchr)
c:/renesas/gcc/redhat/gnurx-elf/8.3.0.202002/rx-elf/rx-elf/bin/../lib/gcc/rx-elf/8.3.0.202002-GNURX/../../../../rx-elf/lib/no-fpu-libs\libc_nano.a(lib_a-memcpy.o)
                              c:/renesas/gcc/redhat/gnurx-elf/8.3.0.202002/rx-elf/rx-elf/bin/../lib/gcc/rx-elf/8.3.0.202002-GNURX/../../../../rx-elf/lib/no-fpu-libs\libc_nano.a(lib_a-nano-svfprintf.o) (memcpy)
c:/renesas/gcc/redhat/gnurx-elf/8.3.0.202002/rx-elf/rx-elf/bin/../lib/gcc/rx-elf/8.3.0.202002-GNURX/../../../../rx-elf/lib/no-fpu-libs\libc_nano.a(lib_a-memmove.o)
                              c:/renesas/gcc/redhat/gnurx-elf/8.3.0.202002/rx-elf/rx-elf/bin/../lib/gcc/rx-elf/8.3.0.202002-GNURX/../../../../rx-elf/lib/no-fpu-libs\libc_nano.a(lib_a-nano-svfprintf.o) (memmove)
c:/renesas/gcc/redhat/gnurx-elf/8.3.0.202002/rx-elf/rx-elf/bin/../lib/gcc/rx-elf/8.3.0.202002-GNURX/../../../../rx-elf/lib/no-fpu-libs\libc_nano.a(lib_a-nano-freer.o)
                              c:/renesas/gcc/redhat/gnurx-elf/8.3.0.202002/rx-elf/rx-elf/bin/../lib/gcc/rx-elf/8.3.0.202002-GNURX/../../../../rx-elf/lib/no-fpu-libs\libc_nano.a(lib_a-nano-svfprintf.o) (_free_r)
c:/renesas/gcc/redhat/gnurx-elf/8.3.0.202002/rx-elf/rx-elf/bin/../lib/gcc/rx-elf/8.3.0.202002-GNURX/../../../../rx-elf/lib/no-fpu-libs\libc_nano.a(lib_a-nano-mallocr.o)
                              c:/renesas/gcc/redhat/gnurx-elf/8.3.0.202002/rx-elf/rx-elf/bin/../lib/gcc/rx-elf/8.3.0.202002-GNURX/../../../../rx-elf/lib/no-fpu-libs\libc_nano.a(lib_a-nano-svfprintf.o) (_malloc_r)
c:/renesas/gcc/redhat/gnurx-elf/8.3.0.202002/rx-elf/rx-elf/bin/../lib/gcc/rx-elf/8.3.0.202002-GNURX/../../../../rx-elf/lib/no-fpu-libs\libc_nano.a(lib_a-nano-reallocr.o)
                              c:/renesas/gcc/redhat/gnurx-elf/8.3.0.202002/rx-elf/rx-elf/bin/../lib/gcc/rx-elf/8.3.0.202002-GNURX/../../../../rx-elf/lib/no-fpu-libs\libc_nano.a(lib_a-nano-svfprintf.o) (_realloc_r)
c:/renesas/gcc/redhat/gnurx-elf/8.3.0.202002/rx-elf/rx-elf/bin/../lib/gcc/rx-elf/8.3.0.202002-GNURX/../../../../rx-elf/lib/no-fpu-libs\libc_nano.a(lib_a-sbrkr.o)
                              c:/renesas/gcc/redhat/gnurx-elf/8.3.0.202002/rx-elf/rx-elf/bin/../lib/gcc/rx-elf/8.3.0.202002-GNURX/../../../../rx-elf/lib/no-fpu-libs\libc_nano.a(lib_a-nano-mallocr.o) (_sbrk_r)
c:/renesas/gcc/redhat/gnurx-elf/8.3.0.202002/rx-elf/rx-elf/bin/../lib/gcc/rx-elf/8.3.0.202002-GNURX/../../../../rx-elf/lib/no-fpu-libs\libc_nano.a(lib_a-mlock.o)
                              c:/renesas/gcc/redhat/gnurx-elf/8.3.0.202002/rx-elf/rx-elf/bin/../lib/gcc/rx-elf/8.3.0.202002-GNURX/../../../../rx-elf/lib/no-fpu-libs\libc_nano.a(lib_a-nano-freer.o) (__malloc_lock)
c:/renesas/gcc/redhat/gnurx-elf/8.3.0.202002/rx-elf/rx-elf/bin/../lib/gcc/rx-elf/8.3.0.202002-GNURX/../../../../rx-elf/lib/no-fpu-libs\libc_nano.a(lib_a-nano-msizer.o)
                              c:/renesas/gcc/redhat/gnurx-elf/8.3.0.202002/rx-elf/rx-elf/bin/../lib/gcc/rx-elf/8.3.0.202002-GNURX/../../../../rx-elf/lib/no-fpu-libs\libc_nano.a(lib_a-nano-reallocr.o) (_malloc_usable_size_r)
c:/renesas/gcc/redhat/gnurx-elf/8.3.0.202002/rx-elf/rx-elf/bin/../lib/gcc/rx-elf/8.3.0.202002-GNURX/../../../../rx-elf/lib/no-fpu-libs\libc_nano.a(lib_a-reent.o)
                              c:/renesas/gcc/redhat/gnurx-elf/8.3.0.202002/rx-elf/rx-elf/bin/../lib/gcc/rx-elf/8.3.0.202002-GNURX/../../../../rx-elf/lib/no-fpu-libs\libc_nano.a(lib_a-sbrkr.o) (errno)
c:/renesas/gcc/redhat/gnurx-elf/8.3.0.202002/rx-elf/rx-elf/bin/../lib/gcc/rx-elf/8.3.0.202002-GNURX/no-fpu-libs\libgcc.a(_fixunssfsi.o)
                              ./src/smc_gen/r_sci_rx/src/targets/rx130/r_sci_rx130.o (__fixunssfsi)
c:/renesas/gcc/redhat/gnurx-elf/8.3.0.202002/rx-elf/rx-elf/bin/../lib/gcc/rx-elf/8.3.0.202002-GNURX/no-fpu-libs\libgcc.a(_udivdi3.o)
                              ./src/smc_gen/r_bsp/mcu/all/r_bsp_common.o (__udivdi3)
c:/renesas/gcc/redhat/gnurx-elf/8.3.0.202002/rx-elf/rx-elf/bin/../lib/gcc/rx-elf/8.3.0.202002-GNURX/no-fpu-libs\libgcc.a(_addsub_sf.o)
                              ./src/smc_gen/r_sci_rx/src/targets/rx130/r_sci_rx130.o (__addsf3)
c:/renesas/gcc/redhat/gnurx-elf/8.3.0.202002/rx-elf/rx-elf/bin/../lib/gcc/rx-elf/8.3.0.202002-GNURX/no-fpu-libs\libgcc.a(_mul_sf.o)
                              ./src/smc_gen/r_sci_rx/src/targets/rx130/r_sci_rx130.o (__mulsf3)
c:/renesas/gcc/redhat/gnurx-elf/8.3.0.202002/rx-elf/rx-elf/bin/../lib/gcc/rx-elf/8.3.0.202002-GNURX/no-fpu-libs\libgcc.a(_div_sf.o)
                              ./src/smc_gen/r_sci_rx/src/targets/rx130/r_sci_rx130.o (__divsf3)
c:/renesas/gcc/redhat/gnurx-elf/8.3.0.202002/rx-elf/rx-elf/bin/../lib/gcc/rx-elf/8.3.0.202002-GNURX/no-fpu-libs\libgcc.a(_gt_sf.o)
                              ./src/FreeRTOS_Demo/Full_Demo/Standard_Demo_Tasks/flop.o (__gtsf2)
c:/renesas/gcc/redhat/gnurx-elf/8.3.0.202002/rx-elf/rx-elf/bin/../lib/gcc/rx-elf/8.3.0.202002-GNURX/no-fpu-libs\libgcc.a(_ge_sf.o)
                              c:/renesas/gcc/redhat/gnurx-elf/8.3.0.202002/rx-elf/rx-elf/bin/../lib/gcc/rx-elf/8.3.0.202002-GNURX/no-fpu-libs\libgcc.a(_fixunssfsi.o) (__gesf2)
c:/renesas/gcc/redhat/gnurx-elf/8.3.0.202002/rx-elf/rx-elf/bin/../lib/gcc/rx-elf/8.3.0.202002-GNURX/no-fpu-libs\libgcc.a(_lt_sf.o)
                              ./src/smc_gen/r_sci_rx/src/targets/rx130/r_sci_rx130.o (__ltsf2)
c:/renesas/gcc/redhat/gnurx-elf/8.3.0.202002/rx-elf/rx-elf/bin/../lib/gcc/rx-elf/8.3.0.202002-GNURX/no-fpu-libs\libgcc.a(_le_sf.o)
                              ./src/smc_gen/r_sci_rx/src/targets/rx130/r_sci_rx130.o (__lesf2)
c:/renesas/gcc/redhat/gnurx-elf/8.3.0.202002/rx-elf/rx-elf/bin/../lib/gcc/rx-elf/8.3.0.202002-GNURX/no-fpu-libs\libgcc.a(_sf_to_si.o)
                              ./src/smc_gen/r_sci_rx/src/targets/rx130/r_sci_rx130.o (__fixsfsi)
c:/renesas/gcc/redhat/gnurx-elf/8.3.0.202002/rx-elf/rx-elf/bin/../lib/gcc/rx-elf/8.3.0.202002-GNURX/no-fpu-libs\libgcc.a(_thenan_sf.o)
                              c:/renesas/gcc/redhat/gnurx-elf/8.3.0.202002/rx-elf/rx-elf/bin/../lib/gcc/rx-elf/8.3.0.202002-GNURX/no-fpu-libs\libgcc.a(_addsub_sf.o) (__thenan_sf)
c:/renesas/gcc/redhat/gnurx-elf/8.3.0.202002/rx-elf/rx-elf/bin/../lib/gcc/rx-elf/8.3.0.202002-GNURX/no-fpu-libs\libgcc.a(_usi_to_sf.o)
                              ./src/smc_gen/r_sci_rx/src/targets/rx130/r_sci_rx130.o (__floatunsisf)
c:/renesas/gcc/redhat/gnurx-elf/8.3.0.202002/rx-elf/rx-elf/bin/../lib/gcc/rx-elf/8.3.0.202002-GNURX/no-fpu-libs\libgcc.a(_clz.o)
                              c:/renesas/gcc/redhat/gnurx-elf/8.3.0.202002/rx-elf/rx-elf/bin/../lib/gcc/rx-elf/8.3.0.202002-GNURX/no-fpu-libs\libgcc.a(_udivdi3.o) (__clz_tab)
c:/renesas/gcc/redhat/gnurx-elf/8.3.0.202002/rx-elf/rx-elf/bin/../lib/gcc/rx-elf/8.3.0.202002-GNURX/no-fpu-libs\libgcc.a(_clzsi2.o)
                              c:/renesas/gcc/redhat/gnurx-elf/8.3.0.202002/rx-elf/rx-elf/bin/../lib/gcc/rx-elf/8.3.0.202002-GNURX/no-fpu-libs\libgcc.a(_usi_to_sf.o) (__clzsi2)
c:/renesas/gcc/redhat/gnurx-elf/8.3.0.202002/rx-elf/rx-elf/bin/../lib/gcc/rx-elf/8.3.0.202002-GNURX/no-fpu-libs\libgcc.a(_pack_sf.o)
                              c:/renesas/gcc/redhat/gnurx-elf/8.3.0.202002/rx-elf/rx-elf/bin/../lib/gcc/rx-elf/8.3.0.202002-GNURX/no-fpu-libs\libgcc.a(_addsub_sf.o) (__pack_f)
c:/renesas/gcc/redhat/gnurx-elf/8.3.0.202002/rx-elf/rx-elf/bin/../lib/gcc/rx-elf/8.3.0.202002-GNURX/no-fpu-libs\libgcc.a(_unpack_sf.o)
                              c:/renesas/gcc/redhat/gnurx-elf/8.3.0.202002/rx-elf/rx-elf/bin/../lib/gcc/rx-elf/8.3.0.202002-GNURX/no-fpu-libs\libgcc.a(_addsub_sf.o) (__unpack_f)
c:/renesas/gcc/redhat/gnurx-elf/8.3.0.202002/rx-elf/rx-elf/bin/../lib/gcc/rx-elf/8.3.0.202002-GNURX/no-fpu-libs\libgcc.a(_fpcmp_parts_sf.o)
                              c:/renesas/gcc/redhat/gnurx-elf/8.3.0.202002/rx-elf/rx-elf/bin/../lib/gcc/rx-elf/8.3.0.202002-GNURX/no-fpu-libs\libgcc.a(_gt_sf.o) (__fpcmp_parts_f)

Allocating common symbols
Common symbol       size              file

xSerialSciHandle    0x4               ./src/smc_gen/general/r_cg_hardware_setup.o
gp_dtc_table_work   0x8               ./src/smc_workaround/r_dtc_rx_patch/r_dtc_rx.o
xHighPriorityNormallyFullTask1
                    0x4               ./src/FreeRTOS_Demo/Full_Demo/Standard_Demo_Tasks/IntQueue.o
g_bsp_Locks         0xe4              ./src/smc_gen/r_bsp/mcu/all/mcu_locks.o
xCreatedTask        0x4               ./src/FreeRTOS_Demo/Full_Demo/Standard_Demo_Tasks/death.o
xHighPriorityNormallyEmptyTask2
                    0x4               ./src/FreeRTOS_Demo/Full_Demo/Standard_Demo_Tasks/IntQueue.o
xHighPriorityNormallyFullTask2
                    0x4               ./src/FreeRTOS_Demo/Full_Demo/Standard_Demo_Tasks/IntQueue.o
xSuspendedTestQueue
                    0x4               ./src/FreeRTOS_Demo/Full_Demo/Standard_Demo_Tasks/dynamic.o
xHighPriorityNormallyEmptyTask1
                    0x4               ./src/FreeRTOS_Demo/Full_Demo/Standard_Demo_Tasks/IntQueue.o
xSerialTxDtcInfo    0x10              ./src/smc_gen/general/r_cg_hardware_setup.o

Discarded input sections

 P              0x00000000        0x0 ./src/smc_workaround/r_dtc_rx_patch/r_dtc_rx.o
 D_1            0x00000000        0x0 ./src/smc_workaround/r_dtc_rx_patch/r_dtc_rx.o
 B_1            0x00000000        0x0 ./src/smc_workaround/r_dtc_rx_patch/r_dtc_rx.o
 .text.R_DTC_CreateSeq
                0x00000000        0x6 ./src/smc_workaround/r_dtc_rx_patch/r_dtc_rx.o
 .text.R_DTC_Close
                0x00000000       0x74 ./src/smc_workaround/r_dtc_rx_patch/r_dtc_rx.o
 .text.R_DTC_GetVersion
                0x00000000        0x6 ./src/smc_workaround/r_dtc_rx_patch/r_dtc_rx.o
 P              0x00000000        0x0 ./src/smc_workaround/r_dtc_rx_patch/r_dtc_rx_target.o
 D_1            0x00000000        0x0 ./src/smc_workaround/r_dtc_rx_patch/r_dtc_rx_target.o
 B_1            0x00000000        0x0 ./src/smc_workaround/r_dtc_rx_patch/r_dtc_rx_target.o
 .text.r_dtc_check_DMAC_locking_byUSER
                0x00000000        0x3 ./src/smc_workaround/r_dtc_rx_patch/r_dtc_rx_target.o
 .text.r_dtc_module_disable
                0x00000000       0x2f ./src/smc_workaround/r_dtc_rx_patch/r_dtc_rx_target.o
 P              0x00000000        0x0 ./src/smc_workaround/FIT_patch.o
 D_1            0x00000000        0x0 ./src/smc_workaround/FIT_patch.o
 B_1            0x00000000        0x0 ./src/smc_workaround/FIT_patch.o
 .text.free     0x00000000        0x4 ./src/smc_workaround/FIT_patch.o
 P              0x00000000        0x0 ./src/smc_workaround/u_sci_rx_ext.o
 D_1            0x00000000        0x0 ./src/smc_workaround/u_sci_rx_ext.o
 B_1            0x00000000        0x0 ./src/smc_workaround/u_sci_rx_ext.o
 P              0x00000000        0x0 ./src/smc_gen/r_sci_rx/src/targets/rx130/r_sci_rx130.o
 D_1            0x00000000        0x0 ./src/smc_gen/r_sci_rx/src/targets/rx130/r_sci_rx130.o
 B_1            0x00000000        0x0 ./src/smc_gen/r_sci_rx/src/targets/rx130/r_sci_rx130.o
 .text.sci_disable_ints
                0x00000000       0x44 ./src/smc_gen/r_sci_rx/src/targets/rx130/r_sci_rx130.o
 P              0x00000000        0x0 ./src/smc_gen/r_sci_rx/src/targets/rx130/r_sci_rx130_data.o
 D_1            0x00000000        0x0 ./src/smc_gen/r_sci_rx/src/targets/rx130/r_sci_rx130_data.o
 B_1            0x00000000        0x0 ./src/smc_gen/r_sci_rx/src/targets/rx130/r_sci_rx130_data.o
 P              0x00000000        0x0 ./src/smc_gen/r_sci_rx/src/r_sci_rx.o
 D_1            0x00000000        0x0 ./src/smc_gen/r_sci_rx/src/r_sci_rx.o
 B_1            0x00000000        0x0 ./src/smc_gen/r_sci_rx/src/r_sci_rx.o
 .text.R_SCI_Receive
                0x00000000       0x98 ./src/smc_gen/r_sci_rx/src/r_sci_rx.o
 .text.R_SCI_Close
                0x00000000       0x68 ./src/smc_gen/r_sci_rx/src/r_sci_rx.o
 .text.R_SCI_GetVersion
                0x00000000        0x6 ./src/smc_gen/r_sci_rx/src/r_sci_rx.o
 P              0x00000000        0x0 ./src/smc_gen/r_pincfg/r_sci_rx_pinset.o
 D_1            0x00000000        0x0 ./src/smc_gen/r_pincfg/r_sci_rx_pinset.o
 B_1            0x00000000        0x0 ./src/smc_gen/r_pincfg/r_sci_rx_pinset.o
 P              0x00000000        0x0 ./src/smc_gen/r_gpio_rx/src/targets/rx130/r_gpio_rx130.o
 D_1            0x00000000        0x0 ./src/smc_gen/r_gpio_rx/src/targets/rx130/r_gpio_rx130.o
 B_1            0x00000000        0x0 ./src/smc_gen/r_gpio_rx/src/targets/rx130/r_gpio_rx130.o
 .rodata.g_gpio_dscr_support
                0x00000000       0x13 ./src/smc_gen/r_gpio_rx/src/targets/rx130/r_gpio_rx130.o
 .rodata.g_gpio_pull_up_support
                0x00000000       0x13 ./src/smc_gen/r_gpio_rx/src/targets/rx130/r_gpio_rx130.o
 .rodata.g_gpio_open_drain_p_support
                0x00000000       0x13 ./src/smc_gen/r_gpio_rx/src/targets/rx130/r_gpio_rx130.o
 .rodata.g_gpio_open_drain_n_support
                0x00000000       0x13 ./src/smc_gen/r_gpio_rx/src/targets/rx130/r_gpio_rx130.o
 .rodata.g_gpio_cmos_support
                0x00000000       0x13 ./src/smc_gen/r_gpio_rx/src/targets/rx130/r_gpio_rx130.o
 .debug_info    0x00000000      0x155 ./src/smc_gen/r_gpio_rx/src/targets/rx130/r_gpio_rx130.o
 .debug_abbrev  0x00000000       0xb3 ./src/smc_gen/r_gpio_rx/src/targets/rx130/r_gpio_rx130.o
 .debug_aranges
                0x00000000       0x18 ./src/smc_gen/r_gpio_rx/src/targets/rx130/r_gpio_rx130.o
 .debug_line    0x00000000      0x1ac ./src/smc_gen/r_gpio_rx/src/targets/rx130/r_gpio_rx130.o
 .debug_str     0x00000000      0x26f ./src/smc_gen/r_gpio_rx/src/targets/rx130/r_gpio_rx130.o
 .comment       0x00000000       0x37 ./src/smc_gen/r_gpio_rx/src/targets/rx130/r_gpio_rx130.o
 P              0x00000000        0x0 ./src/smc_gen/r_gpio_rx/src/r_gpio_rx.o
 D_1            0x00000000        0x0 ./src/smc_gen/r_gpio_rx/src/r_gpio_rx.o
 B_1            0x00000000        0x0 ./src/smc_gen/r_gpio_rx/src/r_gpio_rx.o
 .text.R_GPIO_PortWrite
                0x00000000        0xc ./src/smc_gen/r_gpio_rx/src/r_gpio_rx.o
 .text.R_GPIO_PortRead
                0x00000000        0xc ./src/smc_gen/r_gpio_rx/src/r_gpio_rx.o
 .text.R_GPIO_PortDirectionSet
                0x00000000       0x1a ./src/smc_gen/r_gpio_rx/src/r_gpio_rx.o
 .text.R_GPIO_PinRead
                0x00000000       0x16 ./src/smc_gen/r_gpio_rx/src/r_gpio_rx.o
 .text.R_GPIO_PinControl
                0x00000000      0x1f0 ./src/smc_gen/r_gpio_rx/src/r_gpio_rx.o
 .text.R_GPIO_GetVersion
                0x00000000        0x6 ./src/smc_gen/r_gpio_rx/src/r_gpio_rx.o
 .text.gpio_port_addr_get
                0x00000000        0x7 ./src/smc_gen/r_gpio_rx/src/r_gpio_rx.o
 .text.gpio_pin_function_check
                0x00000000        0xd ./src/smc_gen/r_gpio_rx/src/r_gpio_rx.o
 .text.gpio_set_output_type
                0x00000000       0x3c ./src/smc_gen/r_gpio_rx/src/r_gpio_rx.o
 P              0x00000000        0x0 ./src/smc_gen/r_byteq/src/r_byteq.o
 D_1            0x00000000        0x0 ./src/smc_gen/r_byteq/src/r_byteq.o
 B_1            0x00000000        0x0 ./src/smc_gen/r_byteq/src/r_byteq.o
 .text.R_BYTEQ_Close
                0x00000000        0xd ./src/smc_gen/r_byteq/src/r_byteq.o
 .text.R_BYTEQ_GetVersion
                0x00000000        0x6 ./src/smc_gen/r_byteq/src/r_byteq.o
 P              0x00000000        0x0 ./src/smc_gen/r_bsp/mcu/rx130/mcu_clocks.o
 D_1            0x00000000        0x0 ./src/smc_gen/r_bsp/mcu/rx130/mcu_clocks.o
 B_1            0x00000000        0x0 ./src/smc_gen/r_bsp/mcu/rx130/mcu_clocks.o
 P              0x00000000        0x0 ./src/smc_gen/r_bsp/mcu/rx130/mcu_init.o
 D_1            0x00000000        0x0 ./src/smc_gen/r_bsp/mcu/rx130/mcu_init.o
 B_1            0x00000000        0x0 ./src/smc_gen/r_bsp/mcu/rx130/mcu_init.o
 P              0x00000000        0x0 ./src/smc_gen/r_bsp/mcu/rx130/mcu_interrupts.o
 D_1            0x00000000        0x0 ./src/smc_gen/r_bsp/mcu/rx130/mcu_interrupts.o
 B_1            0x00000000        0x0 ./src/smc_gen/r_bsp/mcu/rx130/mcu_interrupts.o
 P              0x00000000        0x0 ./src/smc_gen/r_bsp/mcu/rx130/vecttbl.o
 D_1            0x00000000        0x0 ./src/smc_gen/r_bsp/mcu/rx130/vecttbl.o
 B_1            0x00000000        0x0 ./src/smc_gen/r_bsp/mcu/rx130/vecttbl.o
 P              0x00000000        0x0 ./src/smc_gen/r_bsp/mcu/all/dbsct.o
 D_1            0x00000000        0x0 ./src/smc_gen/r_bsp/mcu/all/dbsct.o
 B_1            0x00000000        0x0 ./src/smc_gen/r_bsp/mcu/all/dbsct.o
 .debug_line    0x00000000        0x0 ./src/smc_gen/r_bsp/mcu/all/dbsct.o
 .debug_str     0x00000000      0x11f ./src/smc_gen/r_bsp/mcu/all/dbsct.o
 .comment       0x00000000       0x37 ./src/smc_gen/r_bsp/mcu/all/dbsct.o
 P              0x00000000        0x0 ./src/smc_gen/r_bsp/mcu/all/lowlvl.o
 D_1            0x00000000        0x0 ./src/smc_gen/r_bsp/mcu/all/lowlvl.o
 B_1            0x00000000        0x0 ./src/smc_gen/r_bsp/mcu/all/lowlvl.o
 .text.charget  0x00000000       0x20 ./src/smc_gen/r_bsp/mcu/all/lowlvl.o
 P              0x00000000        0x0 ./src/smc_gen/r_bsp/mcu/all/lowsrc.o
 D_1            0x00000000        0x0 ./src/smc_gen/r_bsp/mcu/all/lowsrc.o
 B_1            0x00000000        0x0 ./src/smc_gen/r_bsp/mcu/all/lowsrc.o
 .text.write    0x00000000       0x24 ./src/smc_gen/r_bsp/mcu/all/lowsrc.o
 .text.read     0x00000000        0xf ./src/smc_gen/r_bsp/mcu/all/lowsrc.o
 .text._write   0x00000000       0x24 ./src/smc_gen/r_bsp/mcu/all/lowsrc.o
 .text._read    0x00000000        0xf ./src/smc_gen/r_bsp/mcu/all/lowsrc.o
 .text.close    0x00000000        0x1 ./src/smc_gen/r_bsp/mcu/all/lowsrc.o
 .text.fstat    0x00000000        0x1 ./src/smc_gen/r_bsp/mcu/all/lowsrc.o
 .text.isatty   0x00000000        0x1 ./src/smc_gen/r_bsp/mcu/all/lowsrc.o
 .text.lseek    0x00000000        0x1 ./src/smc_gen/r_bsp/mcu/all/lowsrc.o
 .debug_frame   0x00000000       0xd4 ./src/smc_gen/r_bsp/mcu/all/lowsrc.o
 .debug_info    0x00000000      0x259 ./src/smc_gen/r_bsp/mcu/all/lowsrc.o
 .debug_abbrev  0x00000000      0x102 ./src/smc_gen/r_bsp/mcu/all/lowsrc.o
 .debug_loc     0x00000000       0xf0 ./src/smc_gen/r_bsp/mcu/all/lowsrc.o
 .debug_aranges
                0x00000000       0x30 ./src/smc_gen/r_bsp/mcu/all/lowsrc.o
 .debug_ranges  0x00000000       0x20 ./src/smc_gen/r_bsp/mcu/all/lowsrc.o
 .debug_line    0x00000000       0xd9 ./src/smc_gen/r_bsp/mcu/all/lowsrc.o
 .debug_str     0x00000000      0x1f7 ./src/smc_gen/r_bsp/mcu/all/lowsrc.o
 .comment       0x00000000       0x37 ./src/smc_gen/r_bsp/mcu/all/lowsrc.o
 P              0x00000000        0x0 ./src/smc_gen/r_bsp/mcu/all/mcu_locks.o
 D_1            0x00000000        0x0 ./src/smc_gen/r_bsp/mcu/all/mcu_locks.o
 B_1            0x00000000        0x0 ./src/smc_gen/r_bsp/mcu/all/mcu_locks.o
 P              0x00000000        0x0 ./src/smc_gen/r_bsp/mcu/all/r_bsp_common.o
 D_1            0x00000000        0x0 ./src/smc_gen/r_bsp/mcu/all/r_bsp_common.o
 B_1            0x00000000        0x0 ./src/smc_gen/r_bsp/mcu/all/r_bsp_common.o
 .text.R_BSP_GetVersion
                0x00000000        0x6 ./src/smc_gen/r_bsp/mcu/all/r_bsp_common.o
 .text.R_BSP_GetIClkFreqHz
                0x00000000        0x4 ./src/smc_gen/r_bsp/mcu/all/r_bsp_common.o
 P              0x00000000        0x0 ./src/smc_gen/r_bsp/mcu/all/r_bsp_cpu.o
 D_1            0x00000000        0x0 ./src/smc_gen/r_bsp/mcu/all/r_bsp_cpu.o
 B_1            0x00000000        0x0 ./src/smc_gen/r_bsp/mcu/all/r_bsp_cpu.o
 .text.R_BSP_InterruptsDisable
                0x00000000        0x9 ./src/smc_gen/r_bsp/mcu/all/r_bsp_cpu.o
 .text.R_BSP_InterruptsEnable
                0x00000000        0x9 ./src/smc_gen/r_bsp/mcu/all/r_bsp_cpu.o
 .text.R_BSP_SoftwareReset
                0x00000000       0x13 ./src/smc_gen/r_bsp/mcu/all/r_bsp_cpu.o
 P              0x00000000        0x0 ./src/smc_gen/r_bsp/mcu/all/r_bsp_interrupts.o
 D_1            0x00000000        0x0 ./src/smc_gen/r_bsp/mcu/all/r_bsp_interrupts.o
 B_1            0x00000000        0x0 ./src/smc_gen/r_bsp/mcu/all/r_bsp_interrupts.o
 .text.R_BSP_InterruptRead
                0x00000000       0x19 ./src/smc_gen/r_bsp/mcu/all/r_bsp_interrupts.o
 P              0x00000000        0x0 ./src/smc_gen/r_bsp/mcu/all/r_bsp_locking.o
 D_1            0x00000000        0x0 ./src/smc_gen/r_bsp/mcu/all/r_bsp_locking.o
 B_1            0x00000000        0x0 ./src/smc_gen/r_bsp/mcu/all/r_bsp_locking.o
 .text.R_BSP_SoftwareLock
                0x00000000       0x1f ./src/smc_gen/r_bsp/mcu/all/r_bsp_locking.o
 .text.R_BSP_SoftwareUnlock
                0x00000000        0x6 ./src/smc_gen/r_bsp/mcu/all/r_bsp_locking.o
 P              0x00000000        0x0 ./src/smc_gen/r_bsp/mcu/all/r_bsp_mcu_startup.o
 D_1            0x00000000        0x0 ./src/smc_gen/r_bsp/mcu/all/r_bsp_mcu_startup.o
 B_1            0x00000000        0x0 ./src/smc_gen/r_bsp/mcu/all/r_bsp_mcu_startup.o
 .debug_info    0x00000000       0xd5 ./src/smc_gen/r_bsp/mcu/all/r_bsp_mcu_startup.o
 .debug_abbrev  0x00000000       0x97 ./src/smc_gen/r_bsp/mcu/all/r_bsp_mcu_startup.o
 .debug_aranges
                0x00000000       0x18 ./src/smc_gen/r_bsp/mcu/all/r_bsp_mcu_startup.o
 .debug_line    0x00000000      0x16f ./src/smc_gen/r_bsp/mcu/all/r_bsp_mcu_startup.o
 .debug_str     0x00000000      0x1e7 ./src/smc_gen/r_bsp/mcu/all/r_bsp_mcu_startup.o
 .comment       0x00000000       0x37 ./src/smc_gen/r_bsp/mcu/all/r_bsp_mcu_startup.o
 P              0x00000000        0x0 ./src/smc_gen/r_bsp/mcu/all/r_bsp_software_interrupt.o
 D_1            0x00000000        0x0 ./src/smc_gen/r_bsp/mcu/all/r_bsp_software_interrupt.o
 B_1            0x00000000        0x0 ./src/smc_gen/r_bsp/mcu/all/r_bsp_software_interrupt.o
 .debug_info    0x00000000       0xd5 ./src/smc_gen/r_bsp/mcu/all/r_bsp_software_interrupt.o
 .debug_abbrev  0x00000000       0x97 ./src/smc_gen/r_bsp/mcu/all/r_bsp_software_interrupt.o
 .debug_aranges
                0x00000000       0x18 ./src/smc_gen/r_bsp/mcu/all/r_bsp_software_interrupt.o
 .debug_line    0x00000000      0x16f ./src/smc_gen/r_bsp/mcu/all/r_bsp_software_interrupt.o
 .debug_str     0x00000000      0x1ee ./src/smc_gen/r_bsp/mcu/all/r_bsp_software_interrupt.o
 .comment       0x00000000       0x37 ./src/smc_gen/r_bsp/mcu/all/r_bsp_software_interrupt.o
 P              0x00000000        0x0 ./src/smc_gen/r_bsp/mcu/all/r_rx_intrinsic_functions.o
 D_1            0x00000000        0x0 ./src/smc_gen/r_bsp/mcu/all/r_rx_intrinsic_functions.o
 B_1            0x00000000        0x0 ./src/smc_gen/r_bsp/mcu/all/r_rx_intrinsic_functions.o
 .text.bsp_get_bpsw
                0x00000000        0xa ./src/smc_gen/r_bsp/mcu/all/r_rx_intrinsic_functions.o
 .text.bsp_get_bpc
                0x00000000        0xa ./src/smc_gen/r_bsp/mcu/all/r_rx_intrinsic_functions.o
 .text.bsp_move_from_acc_hi_long
                0x00000000        0xa ./src/smc_gen/r_bsp/mcu/all/r_rx_intrinsic_functions.o
 .text.bsp_move_from_acc_mi_long
                0x00000000        0xa ./src/smc_gen/r_bsp/mcu/all/r_rx_intrinsic_functions.o
 .text.R_BSP_Max
                0x00000000        0x4 ./src/smc_gen/r_bsp/mcu/all/r_rx_intrinsic_functions.o
 .text.R_BSP_Min
                0x00000000        0x4 ./src/smc_gen/r_bsp/mcu/all/r_rx_intrinsic_functions.o
 .text.R_BSP_MulAndAccOperation_B
                0x00000000       0x2c ./src/smc_gen/r_bsp/mcu/all/r_rx_intrinsic_functions.o
 .text.R_BSP_MulAndAccOperation_W
                0x00000000       0x2c ./src/smc_gen/r_bsp/mcu/all/r_rx_intrinsic_functions.o
 .text.R_BSP_MulAndAccOperation_L
                0x00000000       0x2c ./src/smc_gen/r_bsp/mcu/all/r_rx_intrinsic_functions.o
 .text.R_BSP_RotateLeftWithCarry
                0x00000000        0x3 ./src/smc_gen/r_bsp/mcu/all/r_rx_intrinsic_functions.o
 .text.R_BSP_RotateRightWithCarry
                0x00000000        0x3 ./src/smc_gen/r_bsp/mcu/all/r_rx_intrinsic_functions.o
 .text.R_BSP_RotateLeft
                0x00000000        0x4 ./src/smc_gen/r_bsp/mcu/all/r_rx_intrinsic_functions.o
 .text.R_BSP_RotateRight
                0x00000000        0x4 ./src/smc_gen/r_bsp/mcu/all/r_rx_intrinsic_functions.o
 .text.R_BSP_SignedMultiplication
                0x00000000        0x8 ./src/smc_gen/r_bsp/mcu/all/r_rx_intrinsic_functions.o
 .text.R_BSP_UnsignedMultiplication
                0x00000000        0x8 ./src/smc_gen/r_bsp/mcu/all/r_rx_intrinsic_functions.o
 .text.R_BSP_ChangeToUserMode
                0x00000000       0x20 ./src/smc_gen/r_bsp/mcu/all/r_rx_intrinsic_functions.o
 .text.R_BSP_SetACC
                0x00000000        0x7 ./src/smc_gen/r_bsp/mcu/all/r_rx_intrinsic_functions.o
 .text.R_BSP_GetACC
                0x00000000        0x9 ./src/smc_gen/r_bsp/mcu/all/r_rx_intrinsic_functions.o
 .text.R_BSP_MulAndAccOperation_2byte
                0x00000000       0x4c ./src/smc_gen/r_bsp/mcu/all/r_rx_intrinsic_functions.o
 .text.R_BSP_MulAndAccOperation_FixedPoint1
                0x00000000       0x50 ./src/smc_gen/r_bsp/mcu/all/r_rx_intrinsic_functions.o
 .text.R_BSP_MulAndAccOperation_FixedPoint2
                0x00000000       0x50 ./src/smc_gen/r_bsp/mcu/all/r_rx_intrinsic_functions.o
 .text.R_BSP_SetBPSW
                0x00000000        0x4 ./src/smc_gen/r_bsp/mcu/all/r_rx_intrinsic_functions.o
 .text.R_BSP_GetBPSW
                0x00000000        0xc ./src/smc_gen/r_bsp/mcu/all/r_rx_intrinsic_functions.o
 .text.R_BSP_SetBPC
                0x00000000        0x4 ./src/smc_gen/r_bsp/mcu/all/r_rx_intrinsic_functions.o
 .text.R_BSP_GetBPC
                0x00000000        0xc ./src/smc_gen/r_bsp/mcu/all/r_rx_intrinsic_functions.o
 .text.R_BSP_MoveToAccHiLong
                0x00000000        0x4 ./src/smc_gen/r_bsp/mcu/all/r_rx_intrinsic_functions.o
 .text.R_BSP_MoveToAccLoLong
                0x00000000        0x4 ./src/smc_gen/r_bsp/mcu/all/r_rx_intrinsic_functions.o
 .text.R_BSP_MoveFromAccHiLong
                0x00000000        0xc ./src/smc_gen/r_bsp/mcu/all/r_rx_intrinsic_functions.o
 .text.R_BSP_MoveFromAccMiLong
                0x00000000        0xc ./src/smc_gen/r_bsp/mcu/all/r_rx_intrinsic_functions.o
 .text.R_BSP_BitReverse
                0x00000000        0x4 ./src/smc_gen/r_bsp/mcu/all/r_rx_intrinsic_functions.o
 P              0x00000000        0x0 ./src/smc_gen/r_bsp/mcu/all/reset_program.o
 D_1            0x00000000        0x0 ./src/smc_gen/r_bsp/mcu/all/reset_program.o
 B_1            0x00000000        0x0 ./src/smc_gen/r_bsp/mcu/all/reset_program.o
 P              0x00000000        0x0 ./src/smc_gen/r_bsp/mcu/all/resetprg.o
 D_1            0x00000000        0x0 ./src/smc_gen/r_bsp/mcu/all/resetprg.o
 B_1            0x00000000        0x0 ./src/smc_gen/r_bsp/mcu/all/resetprg.o
 P              0x00000000        0x0 ./src/smc_gen/r_bsp/mcu/all/sbrk.o
 D_1            0x00000000        0x0 ./src/smc_gen/r_bsp/mcu/all/sbrk.o
 B_1            0x00000000        0x0 ./src/smc_gen/r_bsp/mcu/all/sbrk.o
 .debug_info    0x00000000       0x64 ./src/smc_gen/r_bsp/mcu/all/sbrk.o
 .debug_abbrev  0x00000000       0x26 ./src/smc_gen/r_bsp/mcu/all/sbrk.o
 .debug_aranges
                0x00000000       0x18 ./src/smc_gen/r_bsp/mcu/all/sbrk.o
 .debug_line    0x00000000       0x1d ./src/smc_gen/r_bsp/mcu/all/sbrk.o
 .debug_str     0x00000000      0x1a2 ./src/smc_gen/r_bsp/mcu/all/sbrk.o
 .comment       0x00000000       0x37 ./src/smc_gen/r_bsp/mcu/all/sbrk.o
 P              0x00000000        0x0 ./src/smc_gen/r_bsp/board/generic_rx130/hwsetup.o
 D_1            0x00000000        0x0 ./src/smc_gen/r_bsp/board/generic_rx130/hwsetup.o
 B_1            0x00000000        0x0 ./src/smc_gen/r_bsp/board/generic_rx130/hwsetup.o
 P              0x00000000        0x0 ./src/smc_gen/general/r_cg_hardware_setup.o
 D_1            0x00000000        0x0 ./src/smc_gen/general/r_cg_hardware_setup.o
 B_1            0x00000000        0x0 ./src/smc_gen/general/r_cg_hardware_setup.o
 .text.R_CG_Config_Create
                0x00000000       0x43 ./src/smc_gen/general/r_cg_hardware_setup.o
 .text.R_FIT_Board_Support_Settings
                0x00000000       0x5b ./src/smc_gen/general/r_cg_hardware_setup.o
 P              0x00000000        0x0 ./src/smc_gen/general/r_smc_cgc.o
 D_1            0x00000000        0x0 ./src/smc_gen/general/r_smc_cgc.o
 B_1            0x00000000        0x0 ./src/smc_gen/general/r_smc_cgc.o
 P              0x00000000        0x0 ./src/smc_gen/general/r_smc_cgc_user.o
 D_1            0x00000000        0x0 ./src/smc_gen/general/r_smc_cgc_user.o
 B_1            0x00000000        0x0 ./src/smc_gen/general/r_smc_cgc_user.o
 P              0x00000000        0x0 ./src/smc_gen/general/r_smc_interrupt.o
 D_1            0x00000000        0x0 ./src/smc_gen/general/r_smc_interrupt.o
 B_1            0x00000000        0x0 ./src/smc_gen/general/r_smc_interrupt.o
 .text.R_Interrupt_Create
                0x00000000        0x1 ./src/smc_gen/general/r_smc_interrupt.o
 .debug_frame   0x00000000       0x24 ./src/smc_gen/general/r_smc_interrupt.o
 .debug_info    0x00000000       0xef ./src/smc_gen/general/r_smc_interrupt.o
 .debug_abbrev  0x00000000       0xb5 ./src/smc_gen/general/r_smc_interrupt.o
 .debug_aranges
                0x00000000       0x20 ./src/smc_gen/general/r_smc_interrupt.o
 .debug_ranges  0x00000000       0x10 ./src/smc_gen/general/r_smc_interrupt.o
 .debug_line    0x00000000      0x1ad ./src/smc_gen/general/r_smc_interrupt.o
 .debug_str     0x00000000      0x1f2 ./src/smc_gen/general/r_smc_interrupt.o
 .comment       0x00000000       0x37 ./src/smc_gen/general/r_smc_interrupt.o
 P              0x00000000        0x0 ./src/frtos_startup/freertos_object_init.o
 D_1            0x00000000        0x0 ./src/frtos_startup/freertos_object_init.o
 B_1            0x00000000        0x0 ./src/frtos_startup/freertos_object_init.o
 .text.Kernel_Object_init
                0x00000000        0x1 ./src/frtos_startup/freertos_object_init.o
 .text.Object_init_manual
                0x00000000        0x1 ./src/frtos_startup/freertos_object_init.o
 .debug_frame   0x00000000       0x34 ./src/frtos_startup/freertos_object_init.o
 .debug_info    0x00000000       0x8c ./src/frtos_startup/freertos_object_init.o
 .debug_abbrev  0x00000000       0x5e ./src/frtos_startup/freertos_object_init.o
 .debug_aranges
                0x00000000       0x20 ./src/frtos_startup/freertos_object_init.o
 .debug_ranges  0x00000000       0x10 ./src/frtos_startup/freertos_object_init.o
 .debug_line    0x00000000       0x60 ./src/frtos_startup/freertos_object_init.o
 .debug_str     0x00000000      0x1d0 ./src/frtos_startup/freertos_object_init.o
 .comment       0x00000000       0x37 ./src/frtos_startup/freertos_object_init.o
 P              0x00000000        0x0 ./src/frtos_startup/freertos_start.o
 D_1            0x00000000        0x0 ./src/frtos_startup/freertos_start.o
 B_1            0x00000000        0x0 ./src/frtos_startup/freertos_start.o
 .text.demo_main
                0x00000000       0x40 ./src/frtos_startup/freertos_start.o
 P              0x00000000        0x0 ./src/FreeRTOS_Demo/Full_Demo/Standard_Demo_Tasks/BlockQ.o
 D_1            0x00000000        0x0 ./src/FreeRTOS_Demo/Full_Demo/Standard_Demo_Tasks/BlockQ.o
 B_1            0x00000000        0x0 ./src/FreeRTOS_Demo/Full_Demo/Standard_Demo_Tasks/BlockQ.o
 P              0x00000000        0x0 ./src/FreeRTOS_Demo/Full_Demo/Standard_Demo_Tasks/EventGroupsDemo.o
 D_1            0x00000000        0x0 ./src/FreeRTOS_Demo/Full_Demo/Standard_Demo_Tasks/EventGroupsDemo.o
 B_1            0x00000000        0x0 ./src/FreeRTOS_Demo/Full_Demo/Standard_Demo_Tasks/EventGroupsDemo.o
 P              0x00000000        0x0 ./src/FreeRTOS_Demo/Full_Demo/Standard_Demo_Tasks/GenQTest.o
 D_1            0x00000000        0x0 ./src/FreeRTOS_Demo/Full_Demo/Standard_Demo_Tasks/GenQTest.o
 B_1            0x00000000        0x0 ./src/FreeRTOS_Demo/Full_Demo/Standard_Demo_Tasks/GenQTest.o
 P              0x00000000        0x0 ./src/FreeRTOS_Demo/Full_Demo/Standard_Demo_Tasks/IntQueue.o
 D_1            0x00000000        0x0 ./src/FreeRTOS_Demo/Full_Demo/Standard_Demo_Tasks/IntQueue.o
 B_1            0x00000000        0x0 ./src/FreeRTOS_Demo/Full_Demo/Standard_Demo_Tasks/IntQueue.o
 P              0x00000000        0x0 ./src/FreeRTOS_Demo/Full_Demo/Standard_Demo_Tasks/IntSemTest.o
 D_1            0x00000000        0x0 ./src/FreeRTOS_Demo/Full_Demo/Standard_Demo_Tasks/IntSemTest.o
 B_1            0x00000000        0x0 ./src/FreeRTOS_Demo/Full_Demo/Standard_Demo_Tasks/IntSemTest.o
 .rodata.xInterruptGivePeriod
                0x00000000        0x4 ./src/FreeRTOS_Demo/Full_Demo/Standard_Demo_Tasks/IntSemTest.o
 P              0x00000000        0x0 ./src/FreeRTOS_Demo/Full_Demo/Standard_Demo_Tasks/QueueOverwrite.o
 D_1            0x00000000        0x0 ./src/FreeRTOS_Demo/Full_Demo/Standard_Demo_Tasks/QueueOverwrite.o
 B_1            0x00000000        0x0 ./src/FreeRTOS_Demo/Full_Demo/Standard_Demo_Tasks/QueueOverwrite.o
 P              0x00000000        0x0 ./src/FreeRTOS_Demo/Full_Demo/Standard_Demo_Tasks/TaskNotify.o
 D_1            0x00000000        0x0 ./src/FreeRTOS_Demo/Full_Demo/Standard_Demo_Tasks/TaskNotify.o
 B_1            0x00000000        0x0 ./src/FreeRTOS_Demo/Full_Demo/Standard_Demo_Tasks/TaskNotify.o
 P              0x00000000        0x0 ./src/FreeRTOS_Demo/Full_Demo/Standard_Demo_Tasks/TaskNotifyArray.o
 D_1            0x00000000        0x0 ./src/FreeRTOS_Demo/Full_Demo/Standard_Demo_Tasks/TaskNotifyArray.o
 B_1            0x00000000        0x0 ./src/FreeRTOS_Demo/Full_Demo/Standard_Demo_Tasks/TaskNotifyArray.o
 P              0x00000000        0x0 ./src/FreeRTOS_Demo/Full_Demo/Standard_Demo_Tasks/TimerDemo.o
 D_1            0x00000000        0x0 ./src/FreeRTOS_Demo/Full_Demo/Standard_Demo_Tasks/TimerDemo.o
 B_1            0x00000000        0x0 ./src/FreeRTOS_Demo/Full_Demo/Standard_Demo_Tasks/TimerDemo.o
 P              0x00000000        0x0 ./src/FreeRTOS_Demo/Full_Demo/Standard_Demo_Tasks/blocktim.o
 D_1            0x00000000        0x0 ./src/FreeRTOS_Demo/Full_Demo/Standard_Demo_Tasks/blocktim.o
 B_1            0x00000000        0x0 ./src/FreeRTOS_Demo/Full_Demo/Standard_Demo_Tasks/blocktim.o
 P              0x00000000        0x0 ./src/FreeRTOS_Demo/Full_Demo/Standard_Demo_Tasks/countsem.o
 D_1            0x00000000        0x0 ./src/FreeRTOS_Demo/Full_Demo/Standard_Demo_Tasks/countsem.o
 B_1            0x00000000        0x0 ./src/FreeRTOS_Demo/Full_Demo/Standard_Demo_Tasks/countsem.o
 P              0x00000000        0x0 ./src/FreeRTOS_Demo/Full_Demo/Standard_Demo_Tasks/death.o
 D_1            0x00000000        0x0 ./src/FreeRTOS_Demo/Full_Demo/Standard_Demo_Tasks/death.o
 B_1            0x00000000        0x0 ./src/FreeRTOS_Demo/Full_Demo/Standard_Demo_Tasks/death.o
 P              0x00000000        0x0 ./src/FreeRTOS_Demo/Full_Demo/Standard_Demo_Tasks/dynamic.o
 D_1            0x00000000        0x0 ./src/FreeRTOS_Demo/Full_Demo/Standard_Demo_Tasks/dynamic.o
 B_1            0x00000000        0x0 ./src/FreeRTOS_Demo/Full_Demo/Standard_Demo_Tasks/dynamic.o
 P              0x00000000        0x0 ./src/FreeRTOS_Demo/Full_Demo/Standard_Demo_Tasks/flop.o
 D_1            0x00000000        0x0 ./src/FreeRTOS_Demo/Full_Demo/Standard_Demo_Tasks/flop.o
 B_1            0x00000000        0x0 ./src/FreeRTOS_Demo/Full_Demo/Standard_Demo_Tasks/flop.o
 P              0x00000000        0x0 ./src/FreeRTOS_Demo/Full_Demo/Standard_Demo_Tasks/recmutex.o
 D_1            0x00000000        0x0 ./src/FreeRTOS_Demo/Full_Demo/Standard_Demo_Tasks/recmutex.o
 B_1            0x00000000        0x0 ./src/FreeRTOS_Demo/Full_Demo/Standard_Demo_Tasks/recmutex.o
 P              0x00000000        0x0 ./src/FreeRTOS_Demo/Full_Demo/Standard_Demo_Tasks/semtest.o
 D_1            0x00000000        0x0 ./src/FreeRTOS_Demo/Full_Demo/Standard_Demo_Tasks/semtest.o
 B_1            0x00000000        0x0 ./src/FreeRTOS_Demo/Full_Demo/Standard_Demo_Tasks/semtest.o
 P              0x00000000        0x0 ./src/FreeRTOS_Demo/Full_Demo/FreeRTOS-Plus-CLI/FreeRTOS_CLI.o
 D_1            0x00000000        0x0 ./src/FreeRTOS_Demo/Full_Demo/FreeRTOS-Plus-CLI/FreeRTOS_CLI.o
 B_1            0x00000000        0x0 ./src/FreeRTOS_Demo/Full_Demo/FreeRTOS-Plus-CLI/FreeRTOS_CLI.o
 P              0x00000000        0x0 ./src/FreeRTOS_Demo/Full_Demo/IntQueueTimer.o
 D_1            0x00000000        0x0 ./src/FreeRTOS_Demo/Full_Demo/IntQueueTimer.o
 B_1            0x00000000        0x0 ./src/FreeRTOS_Demo/Full_Demo/IntQueueTimer.o
 P              0x00000000        0x0 ./src/FreeRTOS_Demo/Full_Demo/Sample-CLI-commands.o
 D_1            0x00000000        0x0 ./src/FreeRTOS_Demo/Full_Demo/Sample-CLI-commands.o
 B_1            0x00000000        0x0 ./src/FreeRTOS_Demo/Full_Demo/Sample-CLI-commands.o
 P              0x00000000        0x0 ./src/FreeRTOS_Demo/Full_Demo/UARTCommandConsole.o
 D_1            0x00000000        0x0 ./src/FreeRTOS_Demo/Full_Demo/UARTCommandConsole.o
 B_1            0x00000000        0x0 ./src/FreeRTOS_Demo/Full_Demo/UARTCommandConsole.o
 .text.vOutputString
                0x00000000       0x38 ./src/FreeRTOS_Demo/Full_Demo/UARTCommandConsole.o
 P              0x00000000        0x0 ./src/FreeRTOS_Demo/Full_Demo/main_full.o
 D_1            0x00000000        0x0 ./src/FreeRTOS_Demo/Full_Demo/main_full.o
 B_1            0x00000000        0x0 ./src/FreeRTOS_Demo/Full_Demo/main_full.o
 P              0x00000000        0x0 ./src/FreeRTOS_Demo/Full_Demo/serial.o
 D_1            0x00000000        0x0 ./src/FreeRTOS_Demo/Full_Demo/serial.o
 B_1            0x00000000        0x0 ./src/FreeRTOS_Demo/Full_Demo/serial.o
 P              0x00000000        0x0 ./src/FreeRTOS_Demo/Blinky_Demo/main_blinky.o
 D_1            0x00000000        0x0 ./src/FreeRTOS_Demo/Blinky_Demo/main_blinky.o
 B_1            0x00000000        0x0 ./src/FreeRTOS_Demo/Blinky_Demo/main_blinky.o
 .text.prvQueueSendTask
                0x00000000       0x54 ./src/FreeRTOS_Demo/Blinky_Demo/main_blinky.o
 .rodata.prvQueueReceiveTask.str1.1
                0x00000000       0x24 ./src/FreeRTOS_Demo/Blinky_Demo/main_blinky.o
 .text.prvQueueReceiveTask
                0x00000000       0x54 ./src/FreeRTOS_Demo/Blinky_Demo/main_blinky.o
 .rodata.main_blinky.str1.1
                0x00000000        0x6 ./src/FreeRTOS_Demo/Blinky_Demo/main_blinky.o
 .text.main_blinky
                0x00000000       0x58 ./src/FreeRTOS_Demo/Blinky_Demo/main_blinky.o
 .bss.xQueue    0x00000000        0x4 ./src/FreeRTOS_Demo/Blinky_Demo/main_blinky.o
 .debug_frame   0x00000000       0x80 ./src/FreeRTOS_Demo/Blinky_Demo/main_blinky.o
 .debug_info    0x00000000      0x4b1 ./src/FreeRTOS_Demo/Blinky_Demo/main_blinky.o
 .debug_abbrev  0x00000000      0x1cd ./src/FreeRTOS_Demo/Blinky_Demo/main_blinky.o
 .debug_loc     0x00000000       0x60 ./src/FreeRTOS_Demo/Blinky_Demo/main_blinky.o
 .debug_aranges
                0x00000000       0x30 ./src/FreeRTOS_Demo/Blinky_Demo/main_blinky.o
 .debug_ranges  0x00000000       0x20 ./src/FreeRTOS_Demo/Blinky_Demo/main_blinky.o
 .debug_line    0x00000000      0x550 ./src/FreeRTOS_Demo/Blinky_Demo/main_blinky.o
 .debug_str     0x00000000      0x3de ./src/FreeRTOS_Demo/Blinky_Demo/main_blinky.o
 .comment       0x00000000       0x37 ./src/FreeRTOS_Demo/Blinky_Demo/main_blinky.o
 P              0x00000000        0x0 ./src/FreeRTOS/Source/portable/MemMang/heap_4.o
 D_1            0x00000000        0x0 ./src/FreeRTOS/Source/portable/MemMang/heap_4.o
 B_1            0x00000000        0x0 ./src/FreeRTOS/Source/portable/MemMang/heap_4.o
 .text.vPortInitialiseBlocks
                0x00000000        0x1 ./src/FreeRTOS/Source/portable/MemMang/heap_4.o
 .text.vPortGetHeapStats
                0x00000000       0x7c ./src/FreeRTOS/Source/portable/MemMang/heap_4.o
 P              0x00000000        0x0 ./src/FreeRTOS/Source/portable/GCC/RX100/port.o
 D_1            0x00000000        0x0 ./src/FreeRTOS/Source/portable/GCC/RX100/port.o
 B_1            0x00000000        0x0 ./src/FreeRTOS/Source/portable/GCC/RX100/port.o
 .text.vPortEndScheduler
                0x00000000       0x10 ./src/FreeRTOS/Source/portable/GCC/RX100/port.o
 P              0x00000000        0x0 ./src/FreeRTOS/Source/event_groups.o
 D_1            0x00000000        0x0 ./src/FreeRTOS/Source/event_groups.o
 B_1            0x00000000        0x0 ./src/FreeRTOS/Source/event_groups.o
 .text.uxEventGroupGetNumber
                0x00000000        0x9 ./src/FreeRTOS/Source/event_groups.o
 .text.vEventGroupSetNumber
                0x00000000        0x3 ./src/FreeRTOS/Source/event_groups.o
 P              0x00000000        0x0 ./src/FreeRTOS/Source/list.o
 D_1            0x00000000        0x0 ./src/FreeRTOS/Source/list.o
 B_1            0x00000000        0x0 ./src/FreeRTOS/Source/list.o
 P              0x00000000        0x0 ./src/FreeRTOS/Source/queue.o
 D_1            0x00000000        0x0 ./src/FreeRTOS/Source/queue.o
 B_1            0x00000000        0x0 ./src/FreeRTOS/Source/queue.o
 .text.vQueueDelete
                0x00000000       0x17 ./src/FreeRTOS/Source/queue.o
 .text.uxQueueGetQueueNumber
                0x00000000        0x3 ./src/FreeRTOS/Source/queue.o
 .text.vQueueSetQueueNumber
                0x00000000        0x3 ./src/FreeRTOS/Source/queue.o
 .text.ucQueueGetQueueType
                0x00000000        0x4 ./src/FreeRTOS/Source/queue.o
 .text.xQueueCreateSet
                0x00000000       0x74 ./src/FreeRTOS/Source/queue.o
 .text.xQueueAddToSet
                0x00000000       0x30 ./src/FreeRTOS/Source/queue.o
 .text.xQueueRemoveFromSet
                0x00000000       0x28 ./src/FreeRTOS/Source/queue.o
 .text.xQueueSelectFromSet
                0x00000000       0x11 ./src/FreeRTOS/Source/queue.o
 P              0x00000000        0x0 ./src/FreeRTOS/Source/stream_buffer.o
 D_1            0x00000000        0x0 ./src/FreeRTOS/Source/stream_buffer.o
 B_1            0x00000000        0x0 ./src/FreeRTOS/Source/stream_buffer.o
 .text.xStreamBufferGenericCreate
                0x00000000       0x64 ./src/FreeRTOS/Source/stream_buffer.o
 .text.vStreamBufferDelete
                0x00000000       0x33 ./src/FreeRTOS/Source/stream_buffer.o
 .text.xStreamBufferReset
                0x00000000       0x5c ./src/FreeRTOS/Source/stream_buffer.o
 .text.xStreamBufferSetTriggerLevel
                0x00000000       0x2c ./src/FreeRTOS/Source/stream_buffer.o
 .text.xStreamBufferSpacesAvailable
                0x00000000       0x38 ./src/FreeRTOS/Source/stream_buffer.o
 .text.xStreamBufferBytesAvailable
                0x00000000       0x38 ./src/FreeRTOS/Source/stream_buffer.o
 .text.xStreamBufferSend
                0x00000000      0x280 ./src/FreeRTOS/Source/stream_buffer.o
 .text.xStreamBufferReceive
                0x00000000      0x104 ./src/FreeRTOS/Source/stream_buffer.o
 .text.xStreamBufferNextMessageLengthBytes
                0x00000000       0x58 ./src/FreeRTOS/Source/stream_buffer.o
 .text.xStreamBufferIsEmpty
                0x00000000       0x23 ./src/FreeRTOS/Source/stream_buffer.o
 .text.xStreamBufferIsFull
                0x00000000       0x38 ./src/FreeRTOS/Source/stream_buffer.o
 .text.uxStreamBufferGetStreamBufferNumber
                0x00000000        0x3 ./src/FreeRTOS/Source/stream_buffer.o
 .text.vStreamBufferSetStreamBufferNumber
                0x00000000        0x3 ./src/FreeRTOS/Source/stream_buffer.o
 .text.ucStreamBufferGetStreamBufferType
                0x00000000        0x5 ./src/FreeRTOS/Source/stream_buffer.o
 P              0x00000000        0x0 ./src/FreeRTOS/Source/tasks.o
 D_1            0x00000000        0x0 ./src/FreeRTOS/Source/tasks.o
 B_1            0x00000000        0x0 ./src/FreeRTOS/Source/tasks.o
 .text.vTaskEndScheduler
                0x00000000       0x1c ./src/FreeRTOS/Source/tasks.o
 .text.pcTaskGetName
                0x00000000       0x24 ./src/FreeRTOS/Source/tasks.o
 .text.xTaskCatchUpTicks
                0x00000000       0x4c ./src/FreeRTOS/Source/tasks.o
 .text.vTaskSetTimeOutState
                0x00000000       0x78 ./src/FreeRTOS/Source/tasks.o
 .text.uxTaskGetTaskNumber
                0x00000000        0x9 ./src/FreeRTOS/Source/tasks.o
 .text.vTaskSetTaskNumber
                0x00000000        0x6 ./src/FreeRTOS/Source/tasks.o
 .text.vTaskGetInfo
                0x00000000       0xac ./src/FreeRTOS/Source/tasks.o
 .text.uxTaskGetStackHighWaterMark
                0x00000000       0x38 ./src/FreeRTOS/Source/tasks.o
 P              0x00000000        0x0 ./src/FreeRTOS/Source/timers.o
 D_1            0x00000000        0x0 ./src/FreeRTOS/Source/timers.o
 B_1            0x00000000        0x0 ./src/FreeRTOS/Source/timers.o
 .text.xTimerGetTimerDaemonTaskHandle
                0x00000000       0x19 ./src/FreeRTOS/Source/timers.o
 .text.xTimerGetPeriod
                0x00000000       0x14 ./src/FreeRTOS/Source/timers.o
 .text.xTimerGetExpiryTime
                0x00000000       0x14 ./src/FreeRTOS/Source/timers.o
 .text.xTimerPendFunctionCall
                0x00000000       0x3c ./src/FreeRTOS/Source/timers.o
 .text.uxTimerGetTimerNumber
                0x00000000        0x3 ./src/FreeRTOS/Source/timers.o
 .text.vTimerSetTimerNumber
                0x00000000        0x3 ./src/FreeRTOS/Source/timers.o
 P              0x00000000        0x0 c:/renesas/gcc/redhat/gnurx-elf/8.3.0.202002/rx-elf/rx-elf/bin/../lib/gcc/rx-elf/8.3.0.202002-GNURX/../../../../rx-elf/lib/no-fpu-libs\libc_nano.a(lib_a-sprintf.o)
 D_1            0x00000000        0x0 c:/renesas/gcc/redhat/gnurx-elf/8.3.0.202002/rx-elf/rx-elf/bin/../lib/gcc/rx-elf/8.3.0.202002-GNURX/../../../../rx-elf/lib/no-fpu-libs\libc_nano.a(lib_a-sprintf.o)
 B_1            0x00000000        0x0 c:/renesas/gcc/redhat/gnurx-elf/8.3.0.202002/rx-elf/rx-elf/bin/../lib/gcc/rx-elf/8.3.0.202002-GNURX/../../../../rx-elf/lib/no-fpu-libs\libc_nano.a(lib_a-sprintf.o)
 .text._sprintf_r
                0x00000000       0x30 c:/renesas/gcc/redhat/gnurx-elf/8.3.0.202002/rx-elf/rx-elf/bin/../lib/gcc/rx-elf/8.3.0.202002-GNURX/../../../../rx-elf/lib/no-fpu-libs\libc_nano.a(lib_a-sprintf.o)
 P              0x00000000        0x0 c:/renesas/gcc/redhat/gnurx-elf/8.3.0.202002/rx-elf/rx-elf/bin/../lib/gcc/rx-elf/8.3.0.202002-GNURX/../../../../rx-elf/lib/no-fpu-libs\libc_nano.a(lib_a-strlen.o)
 D_1            0x00000000        0x0 c:/renesas/gcc/redhat/gnurx-elf/8.3.0.202002/rx-elf/rx-elf/bin/../lib/gcc/rx-elf/8.3.0.202002-GNURX/../../../../rx-elf/lib/no-fpu-libs\libc_nano.a(lib_a-strlen.o)
 B_1            0x00000000        0x0 c:/renesas/gcc/redhat/gnurx-elf/8.3.0.202002/rx-elf/rx-elf/bin/../lib/gcc/rx-elf/8.3.0.202002-GNURX/../../../../rx-elf/lib/no-fpu-libs\libc_nano.a(lib_a-strlen.o)
 P              0x00000000        0x0 c:/renesas/gcc/redhat/gnurx-elf/8.3.0.202002/rx-elf/rx-elf/bin/../lib/gcc/rx-elf/8.3.0.202002-GNURX/../../../../rx-elf/lib/no-fpu-libs\libc_nano.a(lib_a-strncat.o)
 D_1            0x00000000        0x0 c:/renesas/gcc/redhat/gnurx-elf/8.3.0.202002/rx-elf/rx-elf/bin/../lib/gcc/rx-elf/8.3.0.202002-GNURX/../../../../rx-elf/lib/no-fpu-libs\libc_nano.a(lib_a-strncat.o)
 B_1            0x00000000        0x0 c:/renesas/gcc/redhat/gnurx-elf/8.3.0.202002/rx-elf/rx-elf/bin/../lib/gcc/rx-elf/8.3.0.202002-GNURX/../../../../rx-elf/lib/no-fpu-libs\libc_nano.a(lib_a-strncat.o)
 P              0x00000000        0x0 c:/renesas/gcc/redhat/gnurx-elf/8.3.0.202002/rx-elf/rx-elf/bin/../lib/gcc/rx-elf/8.3.0.202002-GNURX/../../../../rx-elf/lib/no-fpu-libs\libc_nano.a(lib_a-strncpy.o)
 D_1            0x00000000        0x0 c:/renesas/gcc/redhat/gnurx-elf/8.3.0.202002/rx-elf/rx-elf/bin/../lib/gcc/rx-elf/8.3.0.202002-GNURX/../../../../rx-elf/lib/no-fpu-libs\libc_nano.a(lib_a-strncpy.o)
 B_1            0x00000000        0x0 c:/renesas/gcc/redhat/gnurx-elf/8.3.0.202002/rx-elf/rx-elf/bin/../lib/gcc/rx-elf/8.3.0.202002-GNURX/../../../../rx-elf/lib/no-fpu-libs\libc_nano.a(lib_a-strncpy.o)
 P              0x00000000        0x0 c:/renesas/gcc/redhat/gnurx-elf/8.3.0.202002/rx-elf/rx-elf/bin/../lib/gcc/rx-elf/8.3.0.202002-GNURX/../../../../rx-elf/lib/no-fpu-libs\libc_nano.a(lib_a-impure.o)
 D_1            0x00000000        0x0 c:/renesas/gcc/redhat/gnurx-elf/8.3.0.202002/rx-elf/rx-elf/bin/../lib/gcc/rx-elf/8.3.0.202002-GNURX/../../../../rx-elf/lib/no-fpu-libs\libc_nano.a(lib_a-impure.o)
 B_1            0x00000000        0x0 c:/renesas/gcc/redhat/gnurx-elf/8.3.0.202002/rx-elf/rx-elf/bin/../lib/gcc/rx-elf/8.3.0.202002-GNURX/../../../../rx-elf/lib/no-fpu-libs\libc_nano.a(lib_a-impure.o)
 .rodata._global_impure_ptr
                0x00000000        0x4 c:/renesas/gcc/redhat/gnurx-elf/8.3.0.202002/rx-elf/rx-elf/bin/../lib/gcc/rx-elf/8.3.0.202002-GNURX/../../../../rx-elf/lib/no-fpu-libs\libc_nano.a(lib_a-impure.o)
 P              0x00000000        0x0 c:/renesas/gcc/redhat/gnurx-elf/8.3.0.202002/rx-elf/rx-elf/bin/../lib/gcc/rx-elf/8.3.0.202002-GNURX/../../../../rx-elf/lib/no-fpu-libs\libc_nano.a(lib_a-nano-svfprintf.o)
 D_1            0x00000000        0x0 c:/renesas/gcc/redhat/gnurx-elf/8.3.0.202002/rx-elf/rx-elf/bin/../lib/gcc/rx-elf/8.3.0.202002-GNURX/../../../../rx-elf/lib/no-fpu-libs\libc_nano.a(lib_a-nano-svfprintf.o)
 B_1            0x00000000        0x0 c:/renesas/gcc/redhat/gnurx-elf/8.3.0.202002/rx-elf/rx-elf/bin/../lib/gcc/rx-elf/8.3.0.202002-GNURX/../../../../rx-elf/lib/no-fpu-libs\libc_nano.a(lib_a-nano-svfprintf.o)
 .text.__ssprint_r
                0x00000000       0xf1 c:/renesas/gcc/redhat/gnurx-elf/8.3.0.202002/rx-elf/rx-elf/bin/../lib/gcc/rx-elf/8.3.0.202002-GNURX/../../../../rx-elf/lib/no-fpu-libs\libc_nano.a(lib_a-nano-svfprintf.o)
 P              0x00000000        0x0 c:/renesas/gcc/redhat/gnurx-elf/8.3.0.202002/rx-elf/rx-elf/bin/../lib/gcc/rx-elf/8.3.0.202002-GNURX/../../../../rx-elf/lib/no-fpu-libs\libc_nano.a(lib_a-nano-vfprintf_i.o)
 D_1            0x00000000        0x0 c:/renesas/gcc/redhat/gnurx-elf/8.3.0.202002/rx-elf/rx-elf/bin/../lib/gcc/rx-elf/8.3.0.202002-GNURX/../../../../rx-elf/lib/no-fpu-libs\libc_nano.a(lib_a-nano-vfprintf_i.o)
 B_1            0x00000000        0x0 c:/renesas/gcc/redhat/gnurx-elf/8.3.0.202002/rx-elf/rx-elf/bin/../lib/gcc/rx-elf/8.3.0.202002-GNURX/../../../../rx-elf/lib/no-fpu-libs\libc_nano.a(lib_a-nano-vfprintf_i.o)
 P              0x00000000        0x0 c:/renesas/gcc/redhat/gnurx-elf/8.3.0.202002/rx-elf/rx-elf/bin/../lib/gcc/rx-elf/8.3.0.202002-GNURX/../../../../rx-elf/lib/no-fpu-libs\libc_nano.a(lib_a-memchr.o)
 D_1            0x00000000        0x0 c:/renesas/gcc/redhat/gnurx-elf/8.3.0.202002/rx-elf/rx-elf/bin/../lib/gcc/rx-elf/8.3.0.202002-GNURX/../../../../rx-elf/lib/no-fpu-libs\libc_nano.a(lib_a-memchr.o)
 B_1            0x00000000        0x0 c:/renesas/gcc/redhat/gnurx-elf/8.3.0.202002/rx-elf/rx-elf/bin/../lib/gcc/rx-elf/8.3.0.202002-GNURX/../../../../rx-elf/lib/no-fpu-libs\libc_nano.a(lib_a-memchr.o)
 P              0x00000000        0x0 c:/renesas/gcc/redhat/gnurx-elf/8.3.0.202002/rx-elf/rx-elf/bin/../lib/gcc/rx-elf/8.3.0.202002-GNURX/../../../../rx-elf/lib/no-fpu-libs\libc_nano.a(lib_a-memcpy.o)
 D_1            0x00000000        0x0 c:/renesas/gcc/redhat/gnurx-elf/8.3.0.202002/rx-elf/rx-elf/bin/../lib/gcc/rx-elf/8.3.0.202002-GNURX/../../../../rx-elf/lib/no-fpu-libs\libc_nano.a(lib_a-memcpy.o)
 B_1            0x00000000        0x0 c:/renesas/gcc/redhat/gnurx-elf/8.3.0.202002/rx-elf/rx-elf/bin/../lib/gcc/rx-elf/8.3.0.202002-GNURX/../../../../rx-elf/lib/no-fpu-libs\libc_nano.a(lib_a-memcpy.o)
 P              0x00000000        0x0 c:/renesas/gcc/redhat/gnurx-elf/8.3.0.202002/rx-elf/rx-elf/bin/../lib/gcc/rx-elf/8.3.0.202002-GNURX/../../../../rx-elf/lib/no-fpu-libs\libc_nano.a(lib_a-memmove.o)
 D_1            0x00000000        0x0 c:/renesas/gcc/redhat/gnurx-elf/8.3.0.202002/rx-elf/rx-elf/bin/../lib/gcc/rx-elf/8.3.0.202002-GNURX/../../../../rx-elf/lib/no-fpu-libs\libc_nano.a(lib_a-memmove.o)
 B_1            0x00000000        0x0 c:/renesas/gcc/redhat/gnurx-elf/8.3.0.202002/rx-elf/rx-elf/bin/../lib/gcc/rx-elf/8.3.0.202002-GNURX/../../../../rx-elf/lib/no-fpu-libs\libc_nano.a(lib_a-memmove.o)
 P              0x00000000        0x0 c:/renesas/gcc/redhat/gnurx-elf/8.3.0.202002/rx-elf/rx-elf/bin/../lib/gcc/rx-elf/8.3.0.202002-GNURX/../../../../rx-elf/lib/no-fpu-libs\libc_nano.a(lib_a-nano-freer.o)
 D_1            0x00000000        0x0 c:/renesas/gcc/redhat/gnurx-elf/8.3.0.202002/rx-elf/rx-elf/bin/../lib/gcc/rx-elf/8.3.0.202002-GNURX/../../../../rx-elf/lib/no-fpu-libs\libc_nano.a(lib_a-nano-freer.o)
 B_1            0x00000000        0x0 c:/renesas/gcc/redhat/gnurx-elf/8.3.0.202002/rx-elf/rx-elf/bin/../lib/gcc/rx-elf/8.3.0.202002-GNURX/../../../../rx-elf/lib/no-fpu-libs\libc_nano.a(lib_a-nano-freer.o)
 P              0x00000000        0x0 c:/renesas/gcc/redhat/gnurx-elf/8.3.0.202002/rx-elf/rx-elf/bin/../lib/gcc/rx-elf/8.3.0.202002-GNURX/../../../../rx-elf/lib/no-fpu-libs\libc_nano.a(lib_a-nano-mallocr.o)
 D_1            0x00000000        0x0 c:/renesas/gcc/redhat/gnurx-elf/8.3.0.202002/rx-elf/rx-elf/bin/../lib/gcc/rx-elf/8.3.0.202002-GNURX/../../../../rx-elf/lib/no-fpu-libs\libc_nano.a(lib_a-nano-mallocr.o)
 B_1            0x00000000        0x0 c:/renesas/gcc/redhat/gnurx-elf/8.3.0.202002/rx-elf/rx-elf/bin/../lib/gcc/rx-elf/8.3.0.202002-GNURX/../../../../rx-elf/lib/no-fpu-libs\libc_nano.a(lib_a-nano-mallocr.o)
 P              0x00000000        0x0 c:/renesas/gcc/redhat/gnurx-elf/8.3.0.202002/rx-elf/rx-elf/bin/../lib/gcc/rx-elf/8.3.0.202002-GNURX/../../../../rx-elf/lib/no-fpu-libs\libc_nano.a(lib_a-nano-reallocr.o)
 D_1            0x00000000        0x0 c:/renesas/gcc/redhat/gnurx-elf/8.3.0.202002/rx-elf/rx-elf/bin/../lib/gcc/rx-elf/8.3.0.202002-GNURX/../../../../rx-elf/lib/no-fpu-libs\libc_nano.a(lib_a-nano-reallocr.o)
 B_1            0x00000000        0x0 c:/renesas/gcc/redhat/gnurx-elf/8.3.0.202002/rx-elf/rx-elf/bin/../lib/gcc/rx-elf/8.3.0.202002-GNURX/../../../../rx-elf/lib/no-fpu-libs\libc_nano.a(lib_a-nano-reallocr.o)
 P              0x00000000        0x0 c:/renesas/gcc/redhat/gnurx-elf/8.3.0.202002/rx-elf/rx-elf/bin/../lib/gcc/rx-elf/8.3.0.202002-GNURX/../../../../rx-elf/lib/no-fpu-libs\libc_nano.a(lib_a-sbrkr.o)
 D_1            0x00000000        0x0 c:/renesas/gcc/redhat/gnurx-elf/8.3.0.202002/rx-elf/rx-elf/bin/../lib/gcc/rx-elf/8.3.0.202002-GNURX/../../../../rx-elf/lib/no-fpu-libs\libc_nano.a(lib_a-sbrkr.o)
 B_1            0x00000000        0x0 c:/renesas/gcc/redhat/gnurx-elf/8.3.0.202002/rx-elf/rx-elf/bin/../lib/gcc/rx-elf/8.3.0.202002-GNURX/../../../../rx-elf/lib/no-fpu-libs\libc_nano.a(lib_a-sbrkr.o)
 P              0x00000000        0x0 c:/renesas/gcc/redhat/gnurx-elf/8.3.0.202002/rx-elf/rx-elf/bin/../lib/gcc/rx-elf/8.3.0.202002-GNURX/../../../../rx-elf/lib/no-fpu-libs\libc_nano.a(lib_a-mlock.o)
 D_1            0x00000000        0x0 c:/renesas/gcc/redhat/gnurx-elf/8.3.0.202002/rx-elf/rx-elf/bin/../lib/gcc/rx-elf/8.3.0.202002-GNURX/../../../../rx-elf/lib/no-fpu-libs\libc_nano.a(lib_a-mlock.o)
 B_1            0x00000000        0x0 c:/renesas/gcc/redhat/gnurx-elf/8.3.0.202002/rx-elf/rx-elf/bin/../lib/gcc/rx-elf/8.3.0.202002-GNURX/../../../../rx-elf/lib/no-fpu-libs\libc_nano.a(lib_a-mlock.o)
 P              0x00000000        0x0 c:/renesas/gcc/redhat/gnurx-elf/8.3.0.202002/rx-elf/rx-elf/bin/../lib/gcc/rx-elf/8.3.0.202002-GNURX/../../../../rx-elf/lib/no-fpu-libs\libc_nano.a(lib_a-nano-msizer.o)
 D_1            0x00000000        0x0 c:/renesas/gcc/redhat/gnurx-elf/8.3.0.202002/rx-elf/rx-elf/bin/../lib/gcc/rx-elf/8.3.0.202002-GNURX/../../../../rx-elf/lib/no-fpu-libs\libc_nano.a(lib_a-nano-msizer.o)
 B_1            0x00000000        0x0 c:/renesas/gcc/redhat/gnurx-elf/8.3.0.202002/rx-elf/rx-elf/bin/../lib/gcc/rx-elf/8.3.0.202002-GNURX/../../../../rx-elf/lib/no-fpu-libs\libc_nano.a(lib_a-nano-msizer.o)
 P              0x00000000        0x0 c:/renesas/gcc/redhat/gnurx-elf/8.3.0.202002/rx-elf/rx-elf/bin/../lib/gcc/rx-elf/8.3.0.202002-GNURX/../../../../rx-elf/lib/no-fpu-libs\libc_nano.a(lib_a-reent.o)
 D_1            0x00000000        0x0 c:/renesas/gcc/redhat/gnurx-elf/8.3.0.202002/rx-elf/rx-elf/bin/../lib/gcc/rx-elf/8.3.0.202002-GNURX/../../../../rx-elf/lib/no-fpu-libs\libc_nano.a(lib_a-reent.o)
 B_1            0x00000000        0x0 c:/renesas/gcc/redhat/gnurx-elf/8.3.0.202002/rx-elf/rx-elf/bin/../lib/gcc/rx-elf/8.3.0.202002-GNURX/../../../../rx-elf/lib/no-fpu-libs\libc_nano.a(lib_a-reent.o)
 .text.cleanup_glue
                0x00000000       0x19 c:/renesas/gcc/redhat/gnurx-elf/8.3.0.202002/rx-elf/rx-elf/bin/../lib/gcc/rx-elf/8.3.0.202002-GNURX/../../../../rx-elf/lib/no-fpu-libs\libc_nano.a(lib_a-reent.o)
 .text._reclaim_reent
                0x00000000       0xe7 c:/renesas/gcc/redhat/gnurx-elf/8.3.0.202002/rx-elf/rx-elf/bin/../lib/gcc/rx-elf/8.3.0.202002-GNURX/../../../../rx-elf/lib/no-fpu-libs\libc_nano.a(lib_a-reent.o)
 D_1            0x00000000        0x0 c:/renesas/gcc/redhat/gnurx-elf/8.3.0.202002/rx-elf/rx-elf/bin/../lib/gcc/rx-elf/8.3.0.202002-GNURX/no-fpu-libs\libgcc.a(_fixunssfsi.o)
 B_1            0x00000000        0x0 c:/renesas/gcc/redhat/gnurx-elf/8.3.0.202002/rx-elf/rx-elf/bin/../lib/gcc/rx-elf/8.3.0.202002-GNURX/no-fpu-libs\libgcc.a(_fixunssfsi.o)
 D_1            0x00000000        0x0 c:/renesas/gcc/redhat/gnurx-elf/8.3.0.202002/rx-elf/rx-elf/bin/../lib/gcc/rx-elf/8.3.0.202002-GNURX/no-fpu-libs\libgcc.a(_udivdi3.o)
 B_1            0x00000000        0x0 c:/renesas/gcc/redhat/gnurx-elf/8.3.0.202002/rx-elf/rx-elf/bin/../lib/gcc/rx-elf/8.3.0.202002-GNURX/no-fpu-libs\libgcc.a(_udivdi3.o)
 D_1            0x00000000        0x0 c:/renesas/gcc/redhat/gnurx-elf/8.3.0.202002/rx-elf/rx-elf/bin/../lib/gcc/rx-elf/8.3.0.202002-GNURX/no-fpu-libs\libgcc.a(_addsub_sf.o)
 B_1            0x00000000        0x0 c:/renesas/gcc/redhat/gnurx-elf/8.3.0.202002/rx-elf/rx-elf/bin/../lib/gcc/rx-elf/8.3.0.202002-GNURX/no-fpu-libs\libgcc.a(_addsub_sf.o)
 D_1            0x00000000        0x0 c:/renesas/gcc/redhat/gnurx-elf/8.3.0.202002/rx-elf/rx-elf/bin/../lib/gcc/rx-elf/8.3.0.202002-GNURX/no-fpu-libs\libgcc.a(_mul_sf.o)
 B_1            0x00000000        0x0 c:/renesas/gcc/redhat/gnurx-elf/8.3.0.202002/rx-elf/rx-elf/bin/../lib/gcc/rx-elf/8.3.0.202002-GNURX/no-fpu-libs\libgcc.a(_mul_sf.o)
 D_1            0x00000000        0x0 c:/renesas/gcc/redhat/gnurx-elf/8.3.0.202002/rx-elf/rx-elf/bin/../lib/gcc/rx-elf/8.3.0.202002-GNURX/no-fpu-libs\libgcc.a(_div_sf.o)
 B_1            0x00000000        0x0 c:/renesas/gcc/redhat/gnurx-elf/8.3.0.202002/rx-elf/rx-elf/bin/../lib/gcc/rx-elf/8.3.0.202002-GNURX/no-fpu-libs\libgcc.a(_div_sf.o)
 D_1            0x00000000        0x0 c:/renesas/gcc/redhat/gnurx-elf/8.3.0.202002/rx-elf/rx-elf/bin/../lib/gcc/rx-elf/8.3.0.202002-GNURX/no-fpu-libs\libgcc.a(_gt_sf.o)
 B_1            0x00000000        0x0 c:/renesas/gcc/redhat/gnurx-elf/8.3.0.202002/rx-elf/rx-elf/bin/../lib/gcc/rx-elf/8.3.0.202002-GNURX/no-fpu-libs\libgcc.a(_gt_sf.o)
 D_1            0x00000000        0x0 c:/renesas/gcc/redhat/gnurx-elf/8.3.0.202002/rx-elf/rx-elf/bin/../lib/gcc/rx-elf/8.3.0.202002-GNURX/no-fpu-libs\libgcc.a(_ge_sf.o)
 B_1            0x00000000        0x0 c:/renesas/gcc/redhat/gnurx-elf/8.3.0.202002/rx-elf/rx-elf/bin/../lib/gcc/rx-elf/8.3.0.202002-GNURX/no-fpu-libs\libgcc.a(_ge_sf.o)
 D_1            0x00000000        0x0 c:/renesas/gcc/redhat/gnurx-elf/8.3.0.202002/rx-elf/rx-elf/bin/../lib/gcc/rx-elf/8.3.0.202002-GNURX/no-fpu-libs\libgcc.a(_lt_sf.o)
 B_1            0x00000000        0x0 c:/renesas/gcc/redhat/gnurx-elf/8.3.0.202002/rx-elf/rx-elf/bin/../lib/gcc/rx-elf/8.3.0.202002-GNURX/no-fpu-libs\libgcc.a(_lt_sf.o)
 D_1            0x00000000        0x0 c:/renesas/gcc/redhat/gnurx-elf/8.3.0.202002/rx-elf/rx-elf/bin/../lib/gcc/rx-elf/8.3.0.202002-GNURX/no-fpu-libs\libgcc.a(_le_sf.o)
 B_1            0x00000000        0x0 c:/renesas/gcc/redhat/gnurx-elf/8.3.0.202002/rx-elf/rx-elf/bin/../lib/gcc/rx-elf/8.3.0.202002-GNURX/no-fpu-libs\libgcc.a(_le_sf.o)
 D_1            0x00000000        0x0 c:/renesas/gcc/redhat/gnurx-elf/8.3.0.202002/rx-elf/rx-elf/bin/../lib/gcc/rx-elf/8.3.0.202002-GNURX/no-fpu-libs\libgcc.a(_sf_to_si.o)
 B_1            0x00000000        0x0 c:/renesas/gcc/redhat/gnurx-elf/8.3.0.202002/rx-elf/rx-elf/bin/../lib/gcc/rx-elf/8.3.0.202002-GNURX/no-fpu-libs\libgcc.a(_sf_to_si.o)
 P              0x00000000        0x0 c:/renesas/gcc/redhat/gnurx-elf/8.3.0.202002/rx-elf/rx-elf/bin/../lib/gcc/rx-elf/8.3.0.202002-GNURX/no-fpu-libs\libgcc.a(_thenan_sf.o)
 D_1            0x00000000        0x0 c:/renesas/gcc/redhat/gnurx-elf/8.3.0.202002/rx-elf/rx-elf/bin/../lib/gcc/rx-elf/8.3.0.202002-GNURX/no-fpu-libs\libgcc.a(_thenan_sf.o)
 B_1            0x00000000        0x0 c:/renesas/gcc/redhat/gnurx-elf/8.3.0.202002/rx-elf/rx-elf/bin/../lib/gcc/rx-elf/8.3.0.202002-GNURX/no-fpu-libs\libgcc.a(_thenan_sf.o)
 D_1            0x00000000        0x0 c:/renesas/gcc/redhat/gnurx-elf/8.3.0.202002/rx-elf/rx-elf/bin/../lib/gcc/rx-elf/8.3.0.202002-GNURX/no-fpu-libs\libgcc.a(_usi_to_sf.o)
 B_1            0x00000000        0x0 c:/renesas/gcc/redhat/gnurx-elf/8.3.0.202002/rx-elf/rx-elf/bin/../lib/gcc/rx-elf/8.3.0.202002-GNURX/no-fpu-libs\libgcc.a(_usi_to_sf.o)
 P              0x00000000        0x0 c:/renesas/gcc/redhat/gnurx-elf/8.3.0.202002/rx-elf/rx-elf/bin/../lib/gcc/rx-elf/8.3.0.202002-GNURX/no-fpu-libs\libgcc.a(_clz.o)
 D_1            0x00000000        0x0 c:/renesas/gcc/redhat/gnurx-elf/8.3.0.202002/rx-elf/rx-elf/bin/../lib/gcc/rx-elf/8.3.0.202002-GNURX/no-fpu-libs\libgcc.a(_clz.o)
 B_1            0x00000000        0x0 c:/renesas/gcc/redhat/gnurx-elf/8.3.0.202002/rx-elf/rx-elf/bin/../lib/gcc/rx-elf/8.3.0.202002-GNURX/no-fpu-libs\libgcc.a(_clz.o)
 D_1            0x00000000        0x0 c:/renesas/gcc/redhat/gnurx-elf/8.3.0.202002/rx-elf/rx-elf/bin/../lib/gcc/rx-elf/8.3.0.202002-GNURX/no-fpu-libs\libgcc.a(_clzsi2.o)
 B_1            0x00000000        0x0 c:/renesas/gcc/redhat/gnurx-elf/8.3.0.202002/rx-elf/rx-elf/bin/../lib/gcc/rx-elf/8.3.0.202002-GNURX/no-fpu-libs\libgcc.a(_clzsi2.o)
 D_1            0x00000000        0x0 c:/renesas/gcc/redhat/gnurx-elf/8.3.0.202002/rx-elf/rx-elf/bin/../lib/gcc/rx-elf/8.3.0.202002-GNURX/no-fpu-libs\libgcc.a(_pack_sf.o)
 B_1            0x00000000        0x0 c:/renesas/gcc/redhat/gnurx-elf/8.3.0.202002/rx-elf/rx-elf/bin/../lib/gcc/rx-elf/8.3.0.202002-GNURX/no-fpu-libs\libgcc.a(_pack_sf.o)
 D_1            0x00000000        0x0 c:/renesas/gcc/redhat/gnurx-elf/8.3.0.202002/rx-elf/rx-elf/bin/../lib/gcc/rx-elf/8.3.0.202002-GNURX/no-fpu-libs\libgcc.a(_unpack_sf.o)
 B_1            0x00000000        0x0 c:/renesas/gcc/redhat/gnurx-elf/8.3.0.202002/rx-elf/rx-elf/bin/../lib/gcc/rx-elf/8.3.0.202002-GNURX/no-fpu-libs\libgcc.a(_unpack_sf.o)
 D_1            0x00000000        0x0 c:/renesas/gcc/redhat/gnurx-elf/8.3.0.202002/rx-elf/rx-elf/bin/../lib/gcc/rx-elf/8.3.0.202002-GNURX/no-fpu-libs\libgcc.a(_fpcmp_parts_sf.o)
 B_1            0x00000000        0x0 c:/renesas/gcc/redhat/gnurx-elf/8.3.0.202002/rx-elf/rx-elf/bin/../lib/gcc/rx-elf/8.3.0.202002-GNURX/no-fpu-libs\libgcc.a(_fpcmp_parts_sf.o)

Memory Configuration

Name             Origin             Length             Attributes
RAM              0x00000004         0x0000bffc
ROM              0xfff80000         0x00080000
*default*        0x00000000         0xffffffff

Linker script and memory map

LOAD ./src/smc_workaround/r_dtc_rx_patch/r_dtc_rx.o
LOAD ./src/smc_workaround/r_dtc_rx_patch/r_dtc_rx_target.o
LOAD ./src/smc_workaround/FIT_patch.o
LOAD ./src/smc_workaround/u_sci_rx_ext.o
LOAD ./src/smc_gen/r_sci_rx/src/targets/rx130/r_sci_rx130.o
LOAD ./src/smc_gen/r_sci_rx/src/targets/rx130/r_sci_rx130_data.o
LOAD ./src/smc_gen/r_sci_rx/src/r_sci_rx.o
LOAD ./src/smc_gen/r_pincfg/r_sci_rx_pinset.o
LOAD ./src/smc_gen/r_gpio_rx/src/targets/rx130/r_gpio_rx130.o
LOAD ./src/smc_gen/r_gpio_rx/src/r_gpio_rx.o
LOAD ./src/smc_gen/r_byteq/src/r_byteq.o
LOAD ./src/smc_gen/r_bsp/mcu/rx130/mcu_clocks.o
LOAD ./src/smc_gen/r_bsp/mcu/rx130/mcu_init.o
LOAD ./src/smc_gen/r_bsp/mcu/rx130/mcu_interrupts.o
LOAD ./src/smc_gen/r_bsp/mcu/rx130/vecttbl.o
LOAD ./src/smc_gen/r_bsp/mcu/all/dbsct.o
LOAD ./src/smc_gen/r_bsp/mcu/all/lowlvl.o
LOAD ./src/smc_gen/r_bsp/mcu/all/lowsrc.o
LOAD ./src/smc_gen/r_bsp/mcu/all/mcu_locks.o
LOAD ./src/smc_gen/r_bsp/mcu/all/r_bsp_common.o
LOAD ./src/smc_gen/r_bsp/mcu/all/r_bsp_cpu.o
LOAD ./src/smc_gen/r_bsp/mcu/all/r_bsp_interrupts.o
LOAD ./src/smc_gen/r_bsp/mcu/all/r_bsp_locking.o
LOAD ./src/smc_gen/r_bsp/mcu/all/r_bsp_mcu_startup.o
LOAD ./src/smc_gen/r_bsp/mcu/all/r_bsp_software_interrupt.o
LOAD ./src/smc_gen/r_bsp/mcu/all/r_rx_intrinsic_functions.o
LOAD ./src/smc_gen/r_bsp/mcu/all/reset_program.o
LOAD ./src/smc_gen/r_bsp/mcu/all/resetprg.o
LOAD ./src/smc_gen/r_bsp/mcu/all/sbrk.o
LOAD ./src/smc_gen/r_bsp/board/generic_rx130/hwsetup.o
LOAD ./src/smc_gen/general/r_cg_hardware_setup.o
LOAD ./src/smc_gen/general/r_smc_cgc.o
LOAD ./src/smc_gen/general/r_smc_cgc_user.o
LOAD ./src/smc_gen/general/r_smc_interrupt.o
LOAD ./src/frtos_startup/freertos_object_init.o
LOAD ./src/frtos_startup/freertos_start.o
LOAD ./src/FreeRTOS_Demo/Full_Demo/Standard_Demo_Tasks/BlockQ.o
LOAD ./src/FreeRTOS_Demo/Full_Demo/Standard_Demo_Tasks/EventGroupsDemo.o
LOAD ./src/FreeRTOS_Demo/Full_Demo/Standard_Demo_Tasks/GenQTest.o
LOAD ./src/FreeRTOS_Demo/Full_Demo/Standard_Demo_Tasks/IntQueue.o
LOAD ./src/FreeRTOS_Demo/Full_Demo/Standard_Demo_Tasks/IntSemTest.o
LOAD ./src/FreeRTOS_Demo/Full_Demo/Standard_Demo_Tasks/QueueOverwrite.o
LOAD ./src/FreeRTOS_Demo/Full_Demo/Standard_Demo_Tasks/TaskNotify.o
LOAD ./src/FreeRTOS_Demo/Full_Demo/Standard_Demo_Tasks/TaskNotifyArray.o
LOAD ./src/FreeRTOS_Demo/Full_Demo/Standard_Demo_Tasks/TimerDemo.o
LOAD ./src/FreeRTOS_Demo/Full_Demo/Standard_Demo_Tasks/blocktim.o
LOAD ./src/FreeRTOS_Demo/Full_Demo/Standard_Demo_Tasks/countsem.o
LOAD ./src/FreeRTOS_Demo/Full_Demo/Standard_Demo_Tasks/death.o
LOAD ./src/FreeRTOS_Demo/Full_Demo/Standard_Demo_Tasks/dynamic.o
LOAD ./src/FreeRTOS_Demo/Full_Demo/Standard_Demo_Tasks/flop.o
LOAD ./src/FreeRTOS_Demo/Full_Demo/Standard_Demo_Tasks/recmutex.o
LOAD ./src/FreeRTOS_Demo/Full_Demo/Standard_Demo_Tasks/semtest.o
LOAD ./src/FreeRTOS_Demo/Full_Demo/FreeRTOS-Plus-CLI/FreeRTOS_CLI.o
LOAD ./src/FreeRTOS_Demo/Full_Demo/IntQueueTimer.o
LOAD ./src/FreeRTOS_Demo/Full_Demo/Sample-CLI-commands.o
LOAD ./src/FreeRTOS_Demo/Full_Demo/UARTCommandConsole.o
LOAD ./src/FreeRTOS_Demo/Full_Demo/main_full.o
LOAD ./src/FreeRTOS_Demo/Full_Demo/serial.o
LOAD ./src/FreeRTOS_Demo/Blinky_Demo/main_blinky.o
LOAD ./src/FreeRTOS/Source/portable/MemMang/heap_4.o
LOAD ./src/FreeRTOS/Source/portable/GCC/RX100/port.o
LOAD ./src/FreeRTOS/Source/event_groups.o
LOAD ./src/FreeRTOS/Source/list.o
LOAD ./src/FreeRTOS/Source/queue.o
LOAD ./src/FreeRTOS/Source/stream_buffer.o
LOAD ./src/FreeRTOS/Source/tasks.o
LOAD ./src/FreeRTOS/Source/timers.o
START GROUP
LOAD c:/renesas/gcc/redhat/gnurx-elf/8.3.0.202002/rx-elf/rx-elf/bin/../lib/gcc/rx-elf/8.3.0.202002-GNURX/../../../../rx-elf/lib/no-fpu-libs\libm.a
LOAD c:/renesas/gcc/redhat/gnurx-elf/8.3.0.202002/rx-elf/rx-elf/bin/../lib/gcc/rx-elf/8.3.0.202002-GNURX/../../../../rx-elf/lib/no-fpu-libs\libc_nano.a
LOAD c:/renesas/gcc/redhat/gnurx-elf/8.3.0.202002/rx-elf/rx-elf/bin/../lib/gcc/rx-elf/8.3.0.202002-GNURX/no-fpu-libs\libgcc.a
END GROUP
LOAD c:/renesas/gcc/redhat/gnurx-elf/8.3.0.202002/rx-elf/rx-elf/bin/../lib/gcc/rx-elf/8.3.0.202002-GNURX/no-fpu-libs\libgcc.a
LOAD c:/renesas/gcc/redhat/gnurx-elf/8.3.0.202002/rx-elf/rx-elf/bin/../lib/gcc/rx-elf/8.3.0.202002-GNURX/../../../../rx-elf/lib/no-fpu-libs\libg_nano.a
LOAD c:/renesas/gcc/redhat/gnurx-elf/8.3.0.202002/rx-elf/rx-elf/bin/../lib/gcc/rx-elf/8.3.0.202002-GNURX/../../../../rx-elf/lib/no-fpu-libs\libc_nano.a
LOAD c:/renesas/gcc/redhat/gnurx-elf/8.3.0.202002/rx-elf/rx-elf/bin/../lib/gcc/rx-elf/8.3.0.202002-GNURX/no-fpu-libs\libgcc.a
START GROUP
LOAD c:/renesas/gcc/redhat/gnurx-elf/8.3.0.202002/rx-elf/rx-elf/bin/../lib/gcc/rx-elf/8.3.0.202002-GNURX/no-fpu-libs\libgcc.a
LOAD c:/renesas/gcc/redhat/gnurx-elf/8.3.0.202002/rx-elf/rx-elf/bin/../lib/gcc/rx-elf/8.3.0.202002-GNURX/../../../../rx-elf/lib/no-fpu-libs\libc_nano.a
END GROUP

.fvectors       0xffffff80       0x80
 *(.fvectors)
 .fvectors      0xffffff80       0x80 ./src/smc_gen/r_bsp/mcu/rx130/vecttbl.o
                0xffffff80                Fixed_Vectors

.text           0xfff80000     0xd6d8
 *(.text)
 .text          0xfff80000       0x43 ./src/smc_gen/r_bsp/mcu/all/reset_program.o
                0xfff80000                PowerON_Reset_PC
                0xfff80000                PowerON_Reset
                0xfff80012                _INITSCT
 .text          0xfff80043        0xd c:/renesas/gcc/redhat/gnurx-elf/8.3.0.202002/rx-elf/rx-elf/bin/../lib/gcc/rx-elf/8.3.0.202002-GNURX/../../../../rx-elf/lib/no-fpu-libs\libc_nano.a(lib_a-strlen.o)
                0xfff80043                strlen
 .text          0xfff80050       0x1d c:/renesas/gcc/redhat/gnurx-elf/8.3.0.202002/rx-elf/rx-elf/bin/../lib/gcc/rx-elf/8.3.0.202002-GNURX/../../../../rx-elf/lib/no-fpu-libs\libc_nano.a(lib_a-strncat.o)
                0xfff80050                strncat
 .text          0xfff8006d        0xb c:/renesas/gcc/redhat/gnurx-elf/8.3.0.202002/rx-elf/rx-elf/bin/../lib/gcc/rx-elf/8.3.0.202002-GNURX/../../../../rx-elf/lib/no-fpu-libs\libc_nano.a(lib_a-strncpy.o)
                0xfff8006d                strncpy
 .text          0xfff80078        0xb c:/renesas/gcc/redhat/gnurx-elf/8.3.0.202002/rx-elf/rx-elf/bin/../lib/gcc/rx-elf/8.3.0.202002-GNURX/../../../../rx-elf/lib/no-fpu-libs\libc_nano.a(lib_a-memchr.o)
                0xfff80078                memchr
 .text          0xfff80083        0x7 c:/renesas/gcc/redhat/gnurx-elf/8.3.0.202002/rx-elf/rx-elf/bin/../lib/gcc/rx-elf/8.3.0.202002-GNURX/../../../../rx-elf/lib/no-fpu-libs\libc_nano.a(lib_a-memcpy.o)
                0xfff80083                memcpy
 .text          0xfff8008a       0x18 c:/renesas/gcc/redhat/gnurx-elf/8.3.0.202002/rx-elf/rx-elf/bin/../lib/gcc/rx-elf/8.3.0.202002-GNURX/../../../../rx-elf/lib/no-fpu-libs\libc_nano.a(lib_a-memmove.o)
                0xfff8008a                memmove
 *(.text.*ISR)
 *fill*         0xfff800a2        0x2 
 .text.xNotifyTaskFromISR
                0xfff800a4       0xb8 ./src/FreeRTOS_Demo/Full_Demo/Standard_Demo_Tasks/TaskNotify.o
                0xfff800a4                xNotifyTaskFromISR
 .text.xNotifyArrayTaskFromISR
                0xfff8015c       0xa8 ./src/FreeRTOS_Demo/Full_Demo/Standard_Demo_Tasks/TaskNotifyArray.o
                0xfff8015c                xNotifyArrayTaskFromISR
 .text.prvIntQTimer_0_1_ISR
                0xfff80204       0x20 ./src/FreeRTOS_Demo/Full_Demo/IntQueueTimer.o
                0xfff80204                $tableentry$174$.rvectors
 .text.prvIntQTimer_2_3_ISR
                0xfff80224       0x20 ./src/FreeRTOS_Demo/Full_Demo/IntQueueTimer.o
                0xfff80224                $tableentry$180$.rvectors
 .text.vPortSoftwareInterruptISR
                0xfff80244       0x56 ./src/FreeRTOS/Source/portable/GCC/RX100/port.o
                0xfff80244                $tableentry$27$.rvectors
                0xfff80244                vPortSoftwareInterruptISR
 .text.vPortTickISR
                0xfff8029a       0x24 ./src/FreeRTOS/Source/portable/GCC/RX100/port.o
                0xfff8029a                vPortTickISR
                0xfff8029a                $tableentry$28$.rvectors
 .text.xEventGroupClearBitsFromISR
                0xfff802be       0x10 ./src/FreeRTOS/Source/event_groups.o
                0xfff802be                xEventGroupClearBitsFromISR
 *fill*         0xfff802ce        0x2 
 .text.xEventGroupGetBitsFromISR
                0xfff802d0       0x24 ./src/FreeRTOS/Source/event_groups.o
                0xfff802d0                xEventGroupGetBitsFromISR
 .text.xEventGroupSetBitsFromISR
                0xfff802f4       0x10 ./src/FreeRTOS/Source/event_groups.o
                0xfff802f4                xEventGroupSetBitsFromISR
 .text.xQueueGenericSendFromISR
                0xfff80304       0xf8 ./src/FreeRTOS/Source/queue.o
                0xfff80304                xQueueGenericSendFromISR
 .text.xQueueGiveFromISR
                0xfff803fc       0xd8 ./src/FreeRTOS/Source/queue.o
                0xfff803fc                xQueueGiveFromISR
 .text.xQueueReceiveFromISR
                0xfff804d4       0xc8 ./src/FreeRTOS/Source/queue.o
                0xfff804d4                xQueueReceiveFromISR
 .text.xQueuePeekFromISR
                0xfff8059c       0x98 ./src/FreeRTOS/Source/queue.o
                0xfff8059c                xQueuePeekFromISR
 .text.uxQueueMessagesWaitingFromISR
                0xfff80634       0x14 ./src/FreeRTOS/Source/queue.o
                0xfff80634                uxQueueMessagesWaitingFromISR
 .text.xQueueIsQueueEmptyFromISR
                0xfff80648       0x1e ./src/FreeRTOS/Source/queue.o
                0xfff80648                xQueueIsQueueEmptyFromISR
 .text.xQueueIsQueueFullFromISR
                0xfff80666       0x23 ./src/FreeRTOS/Source/queue.o
                0xfff80666                xQueueIsQueueFullFromISR
 *fill*         0xfff80689        0x3 
 .text.xQueueSelectFromSetFromISR
                0xfff8068c       0xb4 ./src/FreeRTOS/Source/queue.o
                0xfff8068c                xQueueSelectFromSetFromISR
 .text.xStreamBufferSendFromISR
                0xfff80740      0x1d0 ./src/FreeRTOS/Source/stream_buffer.o
                0xfff80740                xStreamBufferSendFromISR
 .text.xStreamBufferReceiveFromISR
                0xfff80910       0xb8 ./src/FreeRTOS/Source/stream_buffer.o
                0xfff80910                xStreamBufferReceiveFromISR
 .text.xStreamBufferSendCompletedFromISR
                0xfff809c8       0x60 ./src/FreeRTOS/Source/stream_buffer.o
                0xfff809c8                xStreamBufferSendCompletedFromISR
 .text.xStreamBufferReceiveCompletedFromISR
                0xfff80a28       0x60 ./src/FreeRTOS/Source/stream_buffer.o
                0xfff80a28                xStreamBufferReceiveCompletedFromISR
 .text.uxTaskPriorityGetFromISR
                0xfff80a88       0x4c ./src/FreeRTOS/Source/tasks.o
                0xfff80a88                uxTaskPriorityGetFromISR
 .text.xTaskResumeFromISR
                0xfff80ad4       0xe0 ./src/FreeRTOS/Source/tasks.o
                0xfff80ad4                xTaskResumeFromISR
 .text.xTaskGetTickCountFromISR
                0xfff80bb4       0x1e ./src/FreeRTOS/Source/tasks.o
                0xfff80bb4                xTaskGetTickCountFromISR
 *fill*         0xfff80bd2        0x2 
 .text.xTaskGenericNotifyFromISR
                0xfff80bd4      0x17c ./src/FreeRTOS/Source/tasks.o
                0xfff80bd4                xTaskGenericNotifyFromISR
 .text.vTaskGenericNotifyGiveFromISR
                0xfff80d50       0xe8 ./src/FreeRTOS/Source/tasks.o
                0xfff80d50                vTaskGenericNotifyGiveFromISR
 .text.xTimerPendFunctionCallFromISR
                0xfff80e38       0x22 ./src/FreeRTOS/Source/timers.o
                0xfff80e38                xTimerPendFunctionCallFromISR
 *(.text.*_isr)
 .text.sci1_txi1_isr
                0xfff80e5a       0x14 ./src/smc_gen/r_sci_rx/src/targets/rx130/r_sci_rx130.o
                0xfff80e5a                $tableentry$220$.rvectors
 .text.sci1_tei1_isr
                0xfff80e6e       0x14 ./src/smc_gen/r_sci_rx/src/targets/rx130/r_sci_rx130.o
                0xfff80e6e                $tableentry$221$.rvectors
 .text.sci1_rxi1_isr
                0xfff80e82       0x14 ./src/smc_gen/r_sci_rx/src/targets/rx130/r_sci_rx130.o
                0xfff80e82                $tableentry$219$.rvectors
 .text.sci1_eri1_isr
                0xfff80e96       0x14 ./src/smc_gen/r_sci_rx/src/targets/rx130/r_sci_rx130.o
                0xfff80e96                $tableentry$218$.rvectors
 *fill*         0xfff80eaa        0x2 
 .text.excep_supervisor_inst_isr
                0xfff80eac       0x28 ./src/smc_gen/r_bsp/mcu/all/r_bsp_interrupts.o
                0xfff80eac                excep_supervisor_inst_isr
 .text.excep_undefined_inst_isr
                0xfff80ed4       0x28 ./src/smc_gen/r_bsp/mcu/all/r_bsp_interrupts.o
                0xfff80ed4                excep_undefined_inst_isr
 .text.non_maskable_isr
                0xfff80efc       0xb8 ./src/smc_gen/r_bsp/mcu/all/r_bsp_interrupts.o
                0xfff80efc                non_maskable_isr
 .text.undefined_interrupt_source_isr
                0xfff80fb4       0x28 ./src/smc_gen/r_bsp/mcu/all/r_bsp_interrupts.o
                0xfff80fb4                undefined_interrupt_source_isr
                0xfff80fb4                $tableentry$default$.rvectors
 .text.bus_error_isr
                0xfff80fdc       0x2c ./src/smc_gen/r_bsp/mcu/all/r_bsp_interrupts.o
                0xfff80fdc                $tableentry$16$.rvectors
                0xfff80fdc                bus_error_isr
 *(.text.*_interrupt)
 *(.text.*)
 .text.R_DTC_Open
                0xfff81008       0x8c ./src/smc_workaround/r_dtc_rx_patch/r_dtc_rx.o
                0xfff81008                R_DTC_Open
 .text.R_DTC_Create
                0xfff81094      0x150 ./src/smc_workaround/r_dtc_rx_patch/r_dtc_rx.o
                0xfff81094                R_DTC_Create
 .text.R_DTC_Control
                0xfff811e4      0x274 ./src/smc_workaround/r_dtc_rx_patch/r_dtc_rx.o
                0xfff811e4                R_DTC_Control
 .text.r_dtc_module_enable
                0xfff81458       0x2f ./src/smc_workaround/r_dtc_rx_patch/r_dtc_rx_target.o
                0xfff81458                r_dtc_module_enable
 .text.malloc   0xfff81487        0x4 ./src/smc_workaround/FIT_patch.o
                0xfff81487                malloc
 .text.sbrk     0xfff8148b        0x4 ./src/smc_workaround/FIT_patch.o
                0xfff8148b                sbrk
 .text.U_SCI_Control_EXT
                0xfff8148f       0x48 ./src/smc_workaround/u_sci_rx_ext.o
                0xfff8148f                U_SCI_Control_EXT
 *fill*         0xfff814d7        0x1 
 .text.sci_init_bit_rate.part.0
                0xfff814d8      0x224 ./src/smc_gen/r_sci_rx/src/targets/rx130/r_sci_rx130.o
 .text.sci_mcu_param_check
                0xfff816fc       0x16 ./src/smc_gen/r_sci_rx/src/targets/rx130/r_sci_rx130.o
                0xfff816fc                sci_mcu_param_check
 *fill*         0xfff81712        0x2 
 .text.sci_init_register
                0xfff81714       0x80 ./src/smc_gen/r_sci_rx/src/targets/rx130/r_sci_rx130.o
                0xfff81714                sci_init_register
 .text.sci_init_bit_rate
                0xfff81794        0xf ./src/smc_gen/r_sci_rx/src/targets/rx130/r_sci_rx130.o
                0xfff81794                sci_init_bit_rate
 .text.sci_initialize_ints
                0xfff817a3       0x84 ./src/smc_gen/r_sci_rx/src/targets/rx130/r_sci_rx130.o
                0xfff817a3                sci_initialize_ints
 *fill*         0xfff81827        0x1 
 .text.sci_async_cmds
                0xfff81828      0x20c ./src/smc_gen/r_sci_rx/src/targets/rx130/r_sci_rx130.o
                0xfff81828                sci_async_cmds
 .text.R_SCI_Open
                0xfff81a34      0x1cc ./src/smc_gen/r_sci_rx/src/r_sci_rx.o
                0xfff81a34                R_SCI_Open
 .text.R_SCI_Send
                0xfff81c00       0xa0 ./src/smc_gen/r_sci_rx/src/r_sci_rx.o
                0xfff81c00                R_SCI_Send
 .text.txi_handler
                0xfff81ca0       0x4c ./src/smc_gen/r_sci_rx/src/r_sci_rx.o
                0xfff81ca0                txi_handler
 .text.tei_handler
                0xfff81cec       0x32 ./src/smc_gen/r_sci_rx/src/r_sci_rx.o
                0xfff81cec                tei_handler
 *fill*         0xfff81d1e        0x2 
 .text.rxi_handler
                0xfff81d20       0x40 ./src/smc_gen/r_sci_rx/src/r_sci_rx.o
                0xfff81d20                rxi_handler
 .text.eri_handler
                0xfff81d60       0x70 ./src/smc_gen/r_sci_rx/src/r_sci_rx.o
                0xfff81d60                eri_handler
 .text.R_SCI_Control
                0xfff81dd0       0xd0 ./src/smc_gen/r_sci_rx/src/r_sci_rx.o
                0xfff81dd0                R_SCI_Control
 .text.R_SCI_PinSet_SCI1
                0xfff81ea0       0x29 ./src/smc_gen/r_pincfg/r_sci_rx_pinset.o
                0xfff81ea0                R_SCI_PinSet_SCI1
 .text.R_GPIO_PinWrite
                0xfff81ec9       0x23 ./src/smc_gen/r_gpio_rx/src/r_gpio_rx.o
                0xfff81ec9                R_GPIO_PinWrite
 .text.R_GPIO_PinDirectionSet
                0xfff81eec       0x23 ./src/smc_gen/r_gpio_rx/src/r_gpio_rx.o
                0xfff81eec                R_GPIO_PinDirectionSet
 *fill*         0xfff81f0f        0x1 
 .text.R_BYTEQ_Open
                0xfff81f10       0x7c ./src/smc_gen/r_byteq/src/r_byteq.o
                0xfff81f10                R_BYTEQ_Open
 .text.R_BYTEQ_Put
                0xfff81f8c       0x38 ./src/smc_gen/r_byteq/src/r_byteq.o
                0xfff81f8c                R_BYTEQ_Put
 .text.R_BYTEQ_Get
                0xfff81fc4       0x40 ./src/smc_gen/r_byteq/src/r_byteq.o
                0xfff81fc4                R_BYTEQ_Get
 .text.R_BYTEQ_Flush
                0xfff82004       0x10 ./src/smc_gen/r_byteq/src/r_byteq.o
                0xfff82004                R_BYTEQ_Flush
 .text.R_BYTEQ_Used
                0xfff82014       0x12 ./src/smc_gen/r_byteq/src/r_byteq.o
                0xfff82014                R_BYTEQ_Used
 .text.R_BYTEQ_Unused
                0xfff82026       0x19 ./src/smc_gen/r_byteq/src/r_byteq.o
                0xfff82026                R_BYTEQ_Unused
 .text.get_iclk_freq_hz
                0xfff8203f       0xa2 ./src/smc_gen/r_bsp/mcu/rx130/mcu_clocks.o
                0xfff8203f                get_iclk_freq_hz
 *fill*         0xfff820e1        0x3 
 .text.mcu_clock_setup
                0xfff820e4      0x10c ./src/smc_gen/r_bsp/mcu/rx130/mcu_clocks.o
                0xfff820e4                mcu_clock_setup
 .text.bsp_non_existent_port_init
                0xfff821f0       0x87 ./src/smc_gen/r_bsp/mcu/rx130/mcu_init.o
                0xfff821f0                bsp_non_existent_port_init
 .text.bsp_interrupt_enable_disable
                0xfff82277       0x5f ./src/smc_gen/r_bsp/mcu/rx130/mcu_interrupts.o
                0xfff82277                bsp_interrupt_enable_disable
 *fill*         0xfff822d6        0x2 
 .text.charput  0xfff822d8       0x1c ./src/smc_gen/r_bsp/mcu/all/lowlvl.o
                0xfff822d8                charput
 .text.delay_wait
                0xfff822f4        0x9 ./src/smc_gen/r_bsp/mcu/all/r_bsp_common.o
 *fill*         0xfff822fd        0x3 
 .text.R_BSP_SoftwareDelay
                0xfff82300       0xe8 ./src/smc_gen/r_bsp/mcu/all/r_bsp_common.o
                0xfff82300                R_BSP_SoftwareDelay
 .text.R_BSP_CpuInterruptLevelRead
                0xfff823e8        0x8 ./src/smc_gen/r_bsp/mcu/all/r_bsp_cpu.o
                0xfff823e8                R_BSP_CpuInterruptLevelRead
 .text.R_BSP_CpuInterruptLevelWrite
                0xfff823f0       0x9c ./src/smc_gen/r_bsp/mcu/all/r_bsp_cpu.o
                0xfff823f0                R_BSP_CpuInterruptLevelWrite
 .text.R_BSP_RegisterProtectEnable
                0xfff8248c       0x7c ./src/smc_gen/r_bsp/mcu/all/r_bsp_cpu.o
                0xfff8248c                R_BSP_RegisterProtectEnable
 .text.R_BSP_RegisterProtectDisable
                0xfff82508       0x74 ./src/smc_gen/r_bsp/mcu/all/r_bsp_cpu.o
                0xfff82508                R_BSP_RegisterProtectDisable
 .text.bsp_register_protect_open
                0xfff8257c       0x16 ./src/smc_gen/r_bsp/mcu/all/r_bsp_cpu.o
                0xfff8257c                bsp_register_protect_open
 .text.bsp_ram_initialize
                0xfff82592        0xe ./src/smc_gen/r_bsp/mcu/all/r_bsp_cpu.o
                0xfff82592                bsp_ram_initialize
 .text.R_BSP_InterruptControl.part.1
                0xfff825a0       0x21 ./src/smc_gen/r_bsp/mcu/all/r_bsp_interrupts.o
 .text.R_BSP_InterruptRequestEnable
                0xfff825c1       0x10 ./src/smc_gen/r_bsp/mcu/all/r_bsp_interrupts.o
                0xfff825c1                R_BSP_InterruptRequestEnable
 .text.R_BSP_InterruptRequestDisable
                0xfff825d1       0x10 ./src/smc_gen/r_bsp/mcu/all/r_bsp_interrupts.o
                0xfff825d1                R_BSP_InterruptRequestDisable
 .text.bsp_interrupt_open
                0xfff825e1       0x4c ./src/smc_gen/r_bsp/mcu/all/r_bsp_interrupts.o
                0xfff825e1                bsp_interrupt_open
 .text.R_BSP_InterruptWrite
                0xfff8262d       0x1a ./src/smc_gen/r_bsp/mcu/all/r_bsp_interrupts.o
                0xfff8262d                R_BSP_InterruptWrite
 *fill*         0xfff82647        0x1 
 .text.R_BSP_InterruptControl
                0xfff82648       0x98 ./src/smc_gen/r_bsp/mcu/all/r_bsp_interrupts.o
                0xfff82648                R_BSP_InterruptControl
 .text.R_BSP_HardwareLock
                0xfff826e0       0x27 ./src/smc_gen/r_bsp/mcu/all/r_bsp_locking.o
                0xfff826e0                R_BSP_HardwareLock
 .text.R_BSP_HardwareUnlock
                0xfff82707       0x12 ./src/smc_gen/r_bsp/mcu/all/r_bsp_locking.o
                0xfff82707                R_BSP_HardwareUnlock
 .text.R_BSP_BitSet
                0xfff82719        0x4 ./src/smc_gen/r_bsp/mcu/all/r_rx_intrinsic_functions.o
                0xfff82719                R_BSP_BitSet
 .text.R_BSP_BitClear
                0xfff8271d        0x4 ./src/smc_gen/r_bsp/mcu/all/r_rx_intrinsic_functions.o
                0xfff8271d                R_BSP_BitClear
 *fill*         0xfff82721        0x3 
 .text.PowerON_Reset_PC_Prg
                0xfff82724       0x4c ./src/smc_gen/r_bsp/mcu/all/resetprg.o
                0xfff82724                PowerON_Reset_PC_Prg
 .text.hardware_setup
                0xfff82770        0xa ./src/smc_gen/r_bsp/board/generic_rx130/hwsetup.o
                0xfff82770                hardware_setup
 .text.r_undefined_exception
                0xfff8277a        0x1 ./src/smc_gen/general/r_cg_hardware_setup.o
                0xfff8277a                r_undefined_exception
 .text.R_Systeminit
                0xfff8277b       0x9c ./src/smc_gen/general/r_cg_hardware_setup.o
                0xfff8277b                R_Systeminit
 .text.R_CGC_Create
                0xfff82817        0x4 ./src/smc_gen/general/r_smc_cgc.o
                0xfff82817                R_CGC_Create
 .text.R_CGC_Create_UserInit
                0xfff8281b        0x1 ./src/smc_gen/general/r_smc_cgc_user.o
                0xfff8281b                R_CGC_Create_UserInit
 .text.vApplicationSetupTimerInterrupt
                0xfff8281c       0x53 ./src/frtos_startup/freertos_start.o
                0xfff8281c                vApplicationSetupTimerInterrupt
 *fill*         0xfff8286f        0x1 
 .text.vAssertCalled
                0xfff82870       0x60 ./src/frtos_startup/freertos_start.o
                0xfff82870                vAssertCalled
 .text.vApplicationIdleHook
                0xfff828d0        0xc ./src/frtos_startup/freertos_start.o
                0xfff828d0                vApplicationIdleHook
 .text.vApplicationTickHook
                0xfff828dc        0x4 ./src/frtos_startup/freertos_start.o
                0xfff828dc                vApplicationTickHook
 .text.vPrintString
                0xfff828e0       0x28 ./src/frtos_startup/freertos_start.o
                0xfff828e0                vPrintString
 .text.vApplicationMallocFailedHook
                0xfff82908       0x2c ./src/frtos_startup/freertos_start.o
                0xfff82908                vApplicationMallocFailedHook
 .text.vApplicationStackOverflowHook
                0xfff82934       0x2c ./src/frtos_startup/freertos_start.o
                0xfff82934                vApplicationStackOverflowHook
 .text.Processing_Before_Start_Kernel
                0xfff82960       0x40 ./src/frtos_startup/freertos_start.o
                0xfff82960                Processing_Before_Start_Kernel
 .text.vToggleLED
                0xfff829a0       0x1b ./src/frtos_startup/freertos_start.o
                0xfff829a0                vToggleLED
 *fill*         0xfff829bb        0x1 
 .text.vSendString
                0xfff829bc       0x28 ./src/frtos_startup/freertos_start.o
                0xfff829bc                vSendString
 .text.vBlockingQueueProducer
                0xfff829e4       0x38 ./src/FreeRTOS_Demo/Full_Demo/Standard_Demo_Tasks/BlockQ.o
 .text.vBlockingQueueConsumer
                0xfff82a1c       0x3c ./src/FreeRTOS_Demo/Full_Demo/Standard_Demo_Tasks/BlockQ.o
 .text.vStartBlockingQueueTasks
                0xfff82a58      0x147 ./src/FreeRTOS_Demo/Full_Demo/Standard_Demo_Tasks/BlockQ.o
                0xfff82a58                vStartBlockingQueueTasks
 .text.xAreBlockingQueuesStillRunning
                0xfff82b9f       0x89 ./src/FreeRTOS_Demo/Full_Demo/Standard_Demo_Tasks/BlockQ.o
                0xfff82b9f                xAreBlockingQueuesStillRunning
 .text.prvSyncTask
                0xfff82c28       0xe0 ./src/FreeRTOS_Demo/Full_Demo/Standard_Demo_Tasks/EventGroupsDemo.o
 .text.prvTestSlaveTask
                0xfff82d08      0x114 ./src/FreeRTOS_Demo/Full_Demo/Standard_Demo_Tasks/EventGroupsDemo.o
 .text.prvTestMasterTask
                0xfff82e1c      0x3c4 ./src/FreeRTOS_Demo/Full_Demo/Standard_Demo_Tasks/EventGroupsDemo.o
 .text.vStartEventGroupTasks
                0xfff831e0       0xa8 ./src/FreeRTOS_Demo/Full_Demo/Standard_Demo_Tasks/EventGroupsDemo.o
                0xfff831e0                vStartEventGroupTasks
 .text.vPeriodicEventGroupsProcessing
                0xfff83288       0xa8 ./src/FreeRTOS_Demo/Full_Demo/Standard_Demo_Tasks/EventGroupsDemo.o
                0xfff83288                vPeriodicEventGroupsProcessing
 .text.xAreEventGroupTasksStillRunning
                0xfff83330       0x6a ./src/FreeRTOS_Demo/Full_Demo/Standard_Demo_Tasks/EventGroupsDemo.o
                0xfff83330                xAreEventGroupTasksStillRunning
 *fill*         0xfff8339a        0x2 
 .text.prvMediumPriorityMutexTask
                0xfff8339c       0x18 ./src/FreeRTOS_Demo/Full_Demo/Standard_Demo_Tasks/GenQTest.o
 .text.prvHighPriorityMutexTask
                0xfff833b4       0x60 ./src/FreeRTOS_Demo/Full_Demo/Standard_Demo_Tasks/GenQTest.o
 .text.prvLowPriorityMutexTask
                0xfff83414      0x1ac ./src/FreeRTOS_Demo/Full_Demo/Standard_Demo_Tasks/GenQTest.o
 .text.prvSendFrontAndBackTest
                0xfff835c0      0x25c ./src/FreeRTOS_Demo/Full_Demo/Standard_Demo_Tasks/GenQTest.o
 .text.vStartGenericQueueTasks
                0xfff8381c       0x98 ./src/FreeRTOS_Demo/Full_Demo/Standard_Demo_Tasks/GenQTest.o
                0xfff8381c                vStartGenericQueueTasks
 .text.xAreGenericQueueTasksStillRunning
                0xfff838b4       0x44 ./src/FreeRTOS_Demo/Full_Demo/Standard_Demo_Tasks/GenQTest.o
                0xfff838b4                xAreGenericQueueTasksStillRunning
 .text.prv2ndHigherPriorityNormallyFullTask
                0xfff838f8       0x90 ./src/FreeRTOS_Demo/Full_Demo/Standard_Demo_Tasks/IntQueue.o
 .text.prv1stHigherPriorityNormallyFullTask
                0xfff83988      0x150 ./src/FreeRTOS_Demo/Full_Demo/Standard_Demo_Tasks/IntQueue.o
 .text.prvLowerPriorityNormallyFullTask
                0xfff83ad8       0xb0 ./src/FreeRTOS_Demo/Full_Demo/Standard_Demo_Tasks/IntQueue.o
 .text.prvLowerPriorityNormallyEmptyTask
                0xfff83b88       0xc0 ./src/FreeRTOS_Demo/Full_Demo/Standard_Demo_Tasks/IntQueue.o
 .text.prvHigherPriorityNormallyEmptyTask
                0xfff83c48      0x170 ./src/FreeRTOS_Demo/Full_Demo/Standard_Demo_Tasks/IntQueue.o
 .text.vStartInterruptQueueTasks
                0xfff83db8       0xda ./src/FreeRTOS_Demo/Full_Demo/Standard_Demo_Tasks/IntQueue.o
                0xfff83db8                vStartInterruptQueueTasks
 *fill*         0xfff83e92        0x2 
 .text.xFirstTimerHandler
                0xfff83e94      0x1b8 ./src/FreeRTOS_Demo/Full_Demo/Standard_Demo_Tasks/IntQueue.o
                0xfff83e94                xFirstTimerHandler
 .text.xSecondTimerHandler
                0xfff8404c      0x274 ./src/FreeRTOS_Demo/Full_Demo/Standard_Demo_Tasks/IntQueue.o
                0xfff8404c                xSecondTimerHandler
 .text.xAreIntQueueTasksStillRunning
                0xfff842c0       0xa0 ./src/FreeRTOS_Demo/Full_Demo/Standard_Demo_Tasks/IntQueue.o
                0xfff842c0                xAreIntQueueTasksStillRunning
 .text.vInterruptCountingSemaphoreTask
                0xfff84360       0xa0 ./src/FreeRTOS_Demo/Full_Demo/Standard_Demo_Tasks/IntSemTest.o
 .text.vInterruptMutexMasterTask
                0xfff84400      0x1cc ./src/FreeRTOS_Demo/Full_Demo/Standard_Demo_Tasks/IntSemTest.o
 .text.vInterruptMutexSlaveTask
                0xfff845cc       0x64 ./src/FreeRTOS_Demo/Full_Demo/Standard_Demo_Tasks/IntSemTest.o
 .text.vStartInterruptSemaphoreTasks
                0xfff84630       0xcc ./src/FreeRTOS_Demo/Full_Demo/Standard_Demo_Tasks/IntSemTest.o
                0xfff84630                vStartInterruptSemaphoreTasks
 .text.vInterruptSemaphorePeriodicTest
                0xfff846fc       0x7c ./src/FreeRTOS_Demo/Full_Demo/Standard_Demo_Tasks/IntSemTest.o
                0xfff846fc                vInterruptSemaphorePeriodicTest
 .text.xAreInterruptSemaphoreTasksStillRunning
                0xfff84778       0x48 ./src/FreeRTOS_Demo/Full_Demo/Standard_Demo_Tasks/IntSemTest.o
                0xfff84778                xAreInterruptSemaphoreTasksStillRunning
 .text.prvQueueOverwriteTask
                0xfff847c0       0xb4 ./src/FreeRTOS_Demo/Full_Demo/Standard_Demo_Tasks/QueueOverwrite.o
 .text.vStartQueueOverwriteTask
                0xfff84874       0x35 ./src/FreeRTOS_Demo/Full_Demo/Standard_Demo_Tasks/QueueOverwrite.o
                0xfff84874                vStartQueueOverwriteTask
 .text.xIsQueueOverwriteTaskStillRunning
                0xfff848a9       0x29 ./src/FreeRTOS_Demo/Full_Demo/Standard_Demo_Tasks/QueueOverwrite.o
                0xfff848a9                xIsQueueOverwriteTaskStillRunning
 *fill*         0xfff848d2        0x2 
 .text.vQueueOverwritePeriodicISRDemo
                0xfff848d4       0xac ./src/FreeRTOS_Demo/Full_Demo/Standard_Demo_Tasks/QueueOverwrite.o
                0xfff848d4                vQueueOverwritePeriodicISRDemo
 .text.prvRand  0xfff84980       0x1a ./src/FreeRTOS_Demo/Full_Demo/Standard_Demo_Tasks/TaskNotify.o
 .text.prvNotifyingTimer
                0xfff8499a       0x2d ./src/FreeRTOS_Demo/Full_Demo/Standard_Demo_Tasks/TaskNotify.o
 *fill*         0xfff849c7        0x1 
 .text.prvNotifiedTask
                0xfff849c8      0x6c0 ./src/FreeRTOS_Demo/Full_Demo/Standard_Demo_Tasks/TaskNotify.o
 .text.prvSuspendedTaskTimerTestCallback
                0xfff85088       0x68 ./src/FreeRTOS_Demo/Full_Demo/Standard_Demo_Tasks/TaskNotify.o
 .text.vStartTaskNotifyTask
                0xfff850f0       0x2f ./src/FreeRTOS_Demo/Full_Demo/Standard_Demo_Tasks/TaskNotify.o
                0xfff850f0                vStartTaskNotifyTask
 *fill*         0xfff8511f        0x1 
 .text.xAreTaskNotificationTasksStillRunning
                0xfff85120       0x50 ./src/FreeRTOS_Demo/Full_Demo/Standard_Demo_Tasks/TaskNotify.o
                0xfff85120                xAreTaskNotificationTasksStillRunning
 .text.prvRand  0xfff85170       0x1a ./src/FreeRTOS_Demo/Full_Demo/Standard_Demo_Tasks/TaskNotifyArray.o
 .text.prvNotifyingTimerCallback
                0xfff8518a       0x32 ./src/FreeRTOS_Demo/Full_Demo/Standard_Demo_Tasks/TaskNotifyArray.o
 .text.prvNotifiedTask
                0xfff851bc      0xba4 ./src/FreeRTOS_Demo/Full_Demo/Standard_Demo_Tasks/TaskNotifyArray.o
 .text.prvSuspendedTaskTimerTestCallback
                0xfff85d60       0x7c ./src/FreeRTOS_Demo/Full_Demo/Standard_Demo_Tasks/TaskNotifyArray.o
 .text.vStartTaskNotifyArrayTask
                0xfff85ddc       0x8c ./src/FreeRTOS_Demo/Full_Demo/Standard_Demo_Tasks/TaskNotifyArray.o
                0xfff85ddc                vStartTaskNotifyArrayTask
 .text.xAreTaskNotificationArrayTasksStillRunning
                0xfff85e68       0x64 ./src/FreeRTOS_Demo/Full_Demo/Standard_Demo_Tasks/TaskNotifyArray.o
                0xfff85e68                xAreTaskNotificationArrayTasksStillRunning
 .text.prvISRAutoReloadTimerCallback
                0xfff85ecc        0xd ./src/FreeRTOS_Demo/Full_Demo/Standard_Demo_Tasks/TimerDemo.o
 .text.prvISROneShotTimerCallback
                0xfff85ed9        0xd ./src/FreeRTOS_Demo/Full_Demo/Standard_Demo_Tasks/TimerDemo.o
 *fill*         0xfff85ee6        0x2 
 .text.prvOneShotTimerCallback
                0xfff85ee8       0x3c ./src/FreeRTOS_Demo/Full_Demo/Standard_Demo_Tasks/TimerDemo.o
 .text.prvTimerTestTask
                0xfff85f24      0x600 ./src/FreeRTOS_Demo/Full_Demo/Standard_Demo_Tasks/TimerDemo.o
 .text.prvAutoReloadTimerCallback
                0xfff86524       0x2b ./src/FreeRTOS_Demo/Full_Demo/Standard_Demo_Tasks/TimerDemo.o
 *fill*         0xfff8654f        0x1 
 .text.vStartTimerDemoTask
                0xfff86550      0x184 ./src/FreeRTOS_Demo/Full_Demo/Standard_Demo_Tasks/TimerDemo.o
                0xfff86550                vStartTimerDemoTask
 .text.xAreTimerDemoTasksStillRunning
                0xfff866d4       0x64 ./src/FreeRTOS_Demo/Full_Demo/Standard_Demo_Tasks/TimerDemo.o
                0xfff866d4                xAreTimerDemoTasksStillRunning
 .text.vTimerPeriodicISRTests
                0xfff86738      0x334 ./src/FreeRTOS_Demo/Full_Demo/Standard_Demo_Tasks/TimerDemo.o
                0xfff86738                vTimerPeriodicISRTests
 .text.vSecondaryBlockTimeTestTask
                0xfff86a6c       0x9c ./src/FreeRTOS_Demo/Full_Demo/Standard_Demo_Tasks/blocktim.o
 .text.vPrimaryBlockTimeTestTask
                0xfff86b08      0x2bc ./src/FreeRTOS_Demo/Full_Demo/Standard_Demo_Tasks/blocktim.o
 .text.vCreateBlockTimeTasks
                0xfff86dc4       0x54 ./src/FreeRTOS_Demo/Full_Demo/Standard_Demo_Tasks/blocktim.o
                0xfff86dc4                vCreateBlockTimeTasks
 .text.xAreBlockTimeTestTasksStillRunning
                0xfff86e18       0x5c ./src/FreeRTOS_Demo/Full_Demo/Standard_Demo_Tasks/blocktim.o
                0xfff86e18                xAreBlockTimeTestTasksStillRunning
 .text.prvDecrementSemaphoreCount
                0xfff86e74       0x9c ./src/FreeRTOS_Demo/Full_Demo/Standard_Demo_Tasks/countsem.o
 .text.prvCountingSemaphoreTask
                0xfff86f10       0xac ./src/FreeRTOS_Demo/Full_Demo/Standard_Demo_Tasks/countsem.o
 .text.vStartCountingSemaphoreTasks
                0xfff86fbc       0x7c ./src/FreeRTOS_Demo/Full_Demo/Standard_Demo_Tasks/countsem.o
                0xfff86fbc                vStartCountingSemaphoreTasks
 .text.xAreCountingSemaphoreTasksStillRunning
                0xfff87038       0x48 ./src/FreeRTOS_Demo/Full_Demo/Standard_Demo_Tasks/countsem.o
                0xfff87038                xAreCountingSemaphoreTasksStillRunning
 .text.vCreateTasks
                0xfff87080       0x7c ./src/FreeRTOS_Demo/Full_Demo/Standard_Demo_Tasks/death.o
 .text.vSuicidalTask
                0xfff870fc       0x5c ./src/FreeRTOS_Demo/Full_Demo/Standard_Demo_Tasks/death.o
 .text.vCreateSuicidalTasks
                0xfff87158       0x1e ./src/FreeRTOS_Demo/Full_Demo/Standard_Demo_Tasks/death.o
                0xfff87158                vCreateSuicidalTasks
 *fill*         0xfff87176        0x2 
 .text.xIsCreateTaskStillRunning
                0xfff87178       0x4c ./src/FreeRTOS_Demo/Full_Demo/Standard_Demo_Tasks/death.o
                0xfff87178                xIsCreateTaskStillRunning
 .text.vQueueReceiveWhenSuspendedTask
                0xfff871c4       0x78 ./src/FreeRTOS_Demo/Full_Demo/Standard_Demo_Tasks/dynamic.o
 .text.vQueueSendWhenSuspendedTask
                0xfff8723c       0x48 ./src/FreeRTOS_Demo/Full_Demo/Standard_Demo_Tasks/dynamic.o
 .text.vLimitedIncrementTask
                0xfff87284       0x1c ./src/FreeRTOS_Demo/Full_Demo/Standard_Demo_Tasks/dynamic.o
 .text.vCounterControlTask
                0xfff872a0       0xc4 ./src/FreeRTOS_Demo/Full_Demo/Standard_Demo_Tasks/dynamic.o
 .text.vContinuousIncrementTask
                0xfff87364       0x74 ./src/FreeRTOS_Demo/Full_Demo/Standard_Demo_Tasks/dynamic.o
 .text.vStartDynamicPriorityTasks
                0xfff873d8       0xb4 ./src/FreeRTOS_Demo/Full_Demo/Standard_Demo_Tasks/dynamic.o
                0xfff873d8                vStartDynamicPriorityTasks
 .text.xAreDynamicPriorityTasksStillRunning
                0xfff8748c       0x58 ./src/FreeRTOS_Demo/Full_Demo/Standard_Demo_Tasks/dynamic.o
                0xfff8748c                xAreDynamicPriorityTasksStillRunning
 .text.vCompetingMathTask1
                0xfff874e4       0x8c ./src/FreeRTOS_Demo/Full_Demo/Standard_Demo_Tasks/flop.o
 .text.vCompetingMathTask2
                0xfff87570       0x8c ./src/FreeRTOS_Demo/Full_Demo/Standard_Demo_Tasks/flop.o
 .text.vCompetingMathTask4
                0xfff875fc      0x160 ./src/FreeRTOS_Demo/Full_Demo/Standard_Demo_Tasks/flop.o
 .text.vCompetingMathTask3
                0xfff8775c      0x16c ./src/FreeRTOS_Demo/Full_Demo/Standard_Demo_Tasks/flop.o
 .text.vStartMathTasks
                0xfff878c8       0x81 ./src/FreeRTOS_Demo/Full_Demo/Standard_Demo_Tasks/flop.o
                0xfff878c8                vStartMathTasks
 *fill*         0xfff87949        0x3 
 .text.xAreMathsTaskStillRunning
                0xfff8794c       0x4c ./src/FreeRTOS_Demo/Full_Demo/Standard_Demo_Tasks/flop.o
                0xfff8794c                xAreMathsTaskStillRunning
 .text.prvRecursiveMutexPollingTask
                0xfff87998       0xcc ./src/FreeRTOS_Demo/Full_Demo/Standard_Demo_Tasks/recmutex.o
 .text.prvRecursiveMutexBlockingTask
                0xfff87a64       0x70 ./src/FreeRTOS_Demo/Full_Demo/Standard_Demo_Tasks/recmutex.o
 .text.prvRecursiveMutexControllingTask
                0xfff87ad4       0x98 ./src/FreeRTOS_Demo/Full_Demo/Standard_Demo_Tasks/recmutex.o
 .text.vStartRecursiveMutexTasks
                0xfff87b6c       0x70 ./src/FreeRTOS_Demo/Full_Demo/Standard_Demo_Tasks/recmutex.o
                0xfff87b6c                vStartRecursiveMutexTasks
 .text.xAreRecursiveMutexTasksStillRunning
                0xfff87bdc       0x94 ./src/FreeRTOS_Demo/Full_Demo/Standard_Demo_Tasks/recmutex.o
                0xfff87bdc                xAreRecursiveMutexTasksStillRunning
 .text.prvSemaphoreTest
                0xfff87c70       0xcc ./src/FreeRTOS_Demo/Full_Demo/Standard_Demo_Tasks/semtest.o
 .text.vStartSemaphoreTasks
                0xfff87d3c       0xdc ./src/FreeRTOS_Demo/Full_Demo/Standard_Demo_Tasks/semtest.o
                0xfff87d3c                vStartSemaphoreTasks
 .text.xAreSemaphoreTasksStillRunning
                0xfff87e18       0x5a ./src/FreeRTOS_Demo/Full_Demo/Standard_Demo_Tasks/semtest.o
                0xfff87e18                xAreSemaphoreTasksStillRunning
 .text.prvHelpCommand
                0xfff87e72       0x3e ./src/FreeRTOS_Demo/Full_Demo/FreeRTOS-Plus-CLI/FreeRTOS_CLI.o
 .text.FreeRTOS_CLIRegisterCommand
                0xfff87eb0       0x50 ./src/FreeRTOS_Demo/Full_Demo/FreeRTOS-Plus-CLI/FreeRTOS_CLI.o
                0xfff87eb0                FreeRTOS_CLIRegisterCommand
 .text.FreeRTOS_CLIProcessCommand
                0xfff87f00       0xdc ./src/FreeRTOS_Demo/Full_Demo/FreeRTOS-Plus-CLI/FreeRTOS_CLI.o
                0xfff87f00                FreeRTOS_CLIProcessCommand
 .text.FreeRTOS_CLIGetOutputBuffer
                0xfff87fdc        0x7 ./src/FreeRTOS_Demo/Full_Demo/FreeRTOS-Plus-CLI/FreeRTOS_CLI.o
                0xfff87fdc                FreeRTOS_CLIGetOutputBuffer
 *fill*         0xfff87fe3        0x1 
 .text.FreeRTOS_CLIGetParameter
                0xfff87fe4       0x5c ./src/FreeRTOS_Demo/Full_Demo/FreeRTOS-Plus-CLI/FreeRTOS_CLI.o
                0xfff87fe4                FreeRTOS_CLIGetParameter
 .text.vInitialiseTimerForIntQueueTest
                0xfff88040       0xc6 ./src/FreeRTOS_Demo/Full_Demo/IntQueueTimer.o
                0xfff88040                vInitialiseTimerForIntQueueTest
 *fill*         0xfff88106        0x2 
 .text.prvQueryHeapCommand
                0xfff88108       0x34 ./src/FreeRTOS_Demo/Full_Demo/Sample-CLI-commands.o
 .text.prvParameterEchoCommand
                0xfff8813c       0x90 ./src/FreeRTOS_Demo/Full_Demo/Sample-CLI-commands.o
 .text.prvThreeParameterEchoCommand
                0xfff881cc       0x94 ./src/FreeRTOS_Demo/Full_Demo/Sample-CLI-commands.o
 .text.prvTaskStatsCommand
                0xfff88260       0x44 ./src/FreeRTOS_Demo/Full_Demo/Sample-CLI-commands.o
 .text.vRegisterSampleCLICommands
                0xfff882a4       0x28 ./src/FreeRTOS_Demo/Full_Demo/Sample-CLI-commands.o
                0xfff882a4                vRegisterSampleCLICommands
 .text.prvUARTCommandConsoleTask
                0xfff882cc      0x160 ./src/FreeRTOS_Demo/Full_Demo/UARTCommandConsole.o
 .text.vUARTCommandConsoleStart
                0xfff8842c       0x56 ./src/FreeRTOS_Demo/Full_Demo/UARTCommandConsole.o
                0xfff8842c                vUARTCommandConsoleStart
 .text.prvRegTest1Implementation
                0xfff88482       0x8a ./src/FreeRTOS_Demo/Full_Demo/main_full.o
 .text.prvRegTest2Implementation
                0xfff8850c       0x9b ./src/FreeRTOS_Demo/Full_Demo/main_full.o
 *fill*         0xfff885a7        0x1 
 .text.prvCheckTask
                0xfff885a8      0x154 ./src/FreeRTOS_Demo/Full_Demo/main_full.o
 .text.prvPseudoRandomiser
                0xfff886fc       0x50 ./src/FreeRTOS_Demo/Full_Demo/main_full.o
 .text.prvRegTestTaskEntry2
                0xfff8874c       0x17 ./src/FreeRTOS_Demo/Full_Demo/main_full.o
 .text.prvRegTestTaskEntry1
                0xfff88763       0x17 ./src/FreeRTOS_Demo/Full_Demo/main_full.o
 *fill*         0xfff8877a        0x2 
 .text.main_full
                0xfff8877c       0xdc ./src/FreeRTOS_Demo/Full_Demo/main_full.o
                0xfff8877c                main_full
 .text.vFullDemoTickHook
                0xfff88858       0x18 ./src/FreeRTOS_Demo/Full_Demo/main_full.o
                0xfff88858                vFullDemoTickHook
 .text.vSerialSciCallback
                0xfff88870       0x7c ./src/FreeRTOS_Demo/Full_Demo/serial.o
                0xfff88870                vSerialSciCallback
 .text.xSerialPortInitMinimal
                0xfff888ec       0x4c ./src/FreeRTOS_Demo/Full_Demo/serial.o
                0xfff888ec                xSerialPortInitMinimal
 .text.vSerialPutString
                0xfff88938       0xac ./src/FreeRTOS_Demo/Full_Demo/serial.o
                0xfff88938                vSerialPutString
 .text.xSerialGetChar
                0xfff889e4        0xc ./src/FreeRTOS_Demo/Full_Demo/serial.o
                0xfff889e4                xSerialGetChar
 .text.xSerialPutChar
                0xfff889f0       0x46 ./src/FreeRTOS_Demo/Full_Demo/serial.o
                0xfff889f0                xSerialPutChar
 *fill*         0xfff88a36        0x2 
 .text.pvPortMalloc
                0xfff88a38      0x194 ./src/FreeRTOS/Source/portable/MemMang/heap_4.o
                0xfff88a38                pvPortMalloc
 .text.vPortFree
                0xfff88bcc       0xcc ./src/FreeRTOS/Source/portable/MemMang/heap_4.o
                0xfff88bcc                vPortFree
 .text.xPortGetFreeHeapSize
                0xfff88c98        0x9 ./src/FreeRTOS/Source/portable/MemMang/heap_4.o
                0xfff88c98                xPortGetFreeHeapSize
 .text.xPortGetMinimumEverFreeHeapSize
                0xfff88ca1        0x9 ./src/FreeRTOS/Source/portable/MemMang/heap_4.o
                0xfff88ca1                xPortGetMinimumEverFreeHeapSize
 .text.prvStartFirstTask
                0xfff88caa       0x1c ./src/FreeRTOS/Source/portable/GCC/RX100/port.o
 .text.pxPortInitialiseStack
                0xfff88cc6       0x33 ./src/FreeRTOS/Source/portable/GCC/RX100/port.o
                0xfff88cc6                pxPortInitialiseStack
 *fill*         0xfff88cf9        0x3 
 .text.xPortStartScheduler
                0xfff88cfc       0x84 ./src/FreeRTOS/Source/portable/GCC/RX100/port.o
                0xfff88cfc                xPortStartScheduler
 .text.ulPortGetIPL
                0xfff88d80        0x8 ./src/FreeRTOS/Source/portable/GCC/RX100/port.o
                0xfff88d80                ulPortGetIPL
 .text.vPortSetIPL
                0xfff88d88       0x15 ./src/FreeRTOS/Source/portable/GCC/RX100/port.o
                0xfff88d88                vPortSetIPL
 *fill*         0xfff88d9d        0x3 
 .text.vEventGroupClearBitsCallback
                0xfff88da0       0x44 ./src/FreeRTOS/Source/event_groups.o
                0xfff88da0                vEventGroupClearBitsCallback
 .text.xEventGroupCreate
                0xfff88de4       0x20 ./src/FreeRTOS/Source/event_groups.o
                0xfff88de4                xEventGroupCreate
 .text.xEventGroupWaitBits
                0xfff88e04      0x118 ./src/FreeRTOS/Source/event_groups.o
                0xfff88e04                xEventGroupWaitBits
 .text.xEventGroupClearBits
                0xfff88f1c       0x4c ./src/FreeRTOS/Source/event_groups.o
                0xfff88f1c                xEventGroupClearBits
 .text.xEventGroupSetBits
                0xfff88f68       0x84 ./src/FreeRTOS/Source/event_groups.o
                0xfff88f68                xEventGroupSetBits
 .text.xEventGroupSync
                0xfff88fec      0x124 ./src/FreeRTOS/Source/event_groups.o
                0xfff88fec                xEventGroupSync
 .text.vEventGroupSetBitsCallback
                0xfff89110        0x4 ./src/FreeRTOS/Source/event_groups.o
                0xfff89110                vEventGroupSetBitsCallback
 .text.vEventGroupDelete
                0xfff89114       0x54 ./src/FreeRTOS/Source/event_groups.o
                0xfff89114                vEventGroupDelete
 .text.vListInitialise
                0xfff89168       0x11 ./src/FreeRTOS/Source/list.o
                0xfff89168                vListInitialise
 .text.vListInitialiseItem
                0xfff89179        0x4 ./src/FreeRTOS/Source/list.o
                0xfff89179                vListInitialiseItem
 .text.vListInsertEnd
                0xfff8917d       0x17 ./src/FreeRTOS/Source/list.o
                0xfff8917d                vListInsertEnd
 .text.vListInsert
                0xfff89194       0x30 ./src/FreeRTOS/Source/list.o
                0xfff89194                vListInsert
 .text.uxListRemove
                0xfff891c4       0x2a ./src/FreeRTOS/Source/list.o
                0xfff891c4                uxListRemove
 *fill*         0xfff891ee        0x2 
 .text.prvCopyDataToQueue
                0xfff891f0       0x84 ./src/FreeRTOS/Source/queue.o
 .text.prvUnlockQueue
                0xfff89274      0x138 ./src/FreeRTOS/Source/queue.o
 .text.prvNotifyQueueSetContainer
                0xfff893ac       0xa4 ./src/FreeRTOS/Source/queue.o
 .text.xQueueGenericReset
                0xfff89450       0x80 ./src/FreeRTOS/Source/queue.o
                0xfff89450                xQueueGenericReset
 .text.xQueueGenericCreate
                0xfff894d0       0x9c ./src/FreeRTOS/Source/queue.o
                0xfff894d0                xQueueGenericCreate
 .text.xQueueCreateCountingSemaphore
                0xfff8956c       0x7c ./src/FreeRTOS/Source/queue.o
                0xfff8956c                xQueueCreateCountingSemaphore
 .text.xQueueGenericSend
                0xfff895e8      0x190 ./src/FreeRTOS/Source/queue.o
                0xfff895e8                xQueueGenericSend
 .text.xQueueCreateMutex
                0xfff89778       0x70 ./src/FreeRTOS/Source/queue.o
                0xfff89778                xQueueCreateMutex
 .text.xQueueGiveMutexRecursive
                0xfff897e8       0x40 ./src/FreeRTOS/Source/queue.o
                0xfff897e8                xQueueGiveMutexRecursive
 .text.xQueueReceive
                0xfff89828      0x158 ./src/FreeRTOS/Source/queue.o
                0xfff89828                xQueueReceive
 .text.xQueueSemaphoreTake
                0xfff89980      0x1a4 ./src/FreeRTOS/Source/queue.o
                0xfff89980                xQueueSemaphoreTake
 .text.xQueueTakeMutexRecursive
                0xfff89b24       0x40 ./src/FreeRTOS/Source/queue.o
                0xfff89b24                xQueueTakeMutexRecursive
 .text.xQueuePeek
                0xfff89b64      0x158 ./src/FreeRTOS/Source/queue.o
                0xfff89b64                xQueuePeek
 .text.uxQueueMessagesWaiting
                0xfff89cbc       0x29 ./src/FreeRTOS/Source/queue.o
                0xfff89cbc                uxQueueMessagesWaiting
 .text.uxQueueSpacesAvailable
                0xfff89ce5       0x35 ./src/FreeRTOS/Source/queue.o
                0xfff89ce5                uxQueueSpacesAvailable
 *fill*         0xfff89d1a        0x2 
 .text.vQueueWaitForMessageRestricted
                0xfff89d1c       0x48 ./src/FreeRTOS/Source/queue.o
                0xfff89d1c                vQueueWaitForMessageRestricted
 .text.prvReadBytesFromBuffer
                0xfff89d64       0x7c ./src/FreeRTOS/Source/stream_buffer.o
 .text.vTaskSwitchContext.part.5
                0xfff89de0      0x228 ./src/FreeRTOS/Source/tasks.o
 .text.prvIdleTask
                0xfff8a008       0xa8 ./src/FreeRTOS/Source/tasks.o
 .text.xTaskCreate
                0xfff8a0b0      0x28c ./src/FreeRTOS/Source/tasks.o
                0xfff8a0b0                xTaskCreate
 .text.vTaskDelete
                0xfff8a33c      0x10c ./src/FreeRTOS/Source/tasks.o
                0xfff8a33c                vTaskDelete
 .text.eTaskGetState
                0xfff8a448       0xcc ./src/FreeRTOS/Source/tasks.o
                0xfff8a448                eTaskGetState
 .text.uxTaskPriorityGet
                0xfff8a514       0x68 ./src/FreeRTOS/Source/tasks.o
                0xfff8a514                uxTaskPriorityGet
 .text.vTaskPrioritySet
                0xfff8a57c      0x108 ./src/FreeRTOS/Source/tasks.o
                0xfff8a57c                vTaskPrioritySet
 .text.vTaskSuspend
                0xfff8a684      0x174 ./src/FreeRTOS/Source/tasks.o
                0xfff8a684                vTaskSuspend
 .text.vTaskResume
                0xfff8a7f8       0xd4 ./src/FreeRTOS/Source/tasks.o
                0xfff8a7f8                vTaskResume
 .text.vTaskStartScheduler
                0xfff8a8cc      0x234 ./src/FreeRTOS/Source/tasks.o
                0xfff8a8cc                vTaskStartScheduler
 .text.vTaskSuspendAll
                0xfff8ab00        0xd ./src/FreeRTOS/Source/tasks.o
                0xfff8ab00                vTaskSuspendAll
 .text.xTaskGetTickCount
                0xfff8ab0d        0x9 ./src/FreeRTOS/Source/tasks.o
                0xfff8ab0d                xTaskGetTickCount
 .text.uxTaskGetNumberOfTasks
                0xfff8ab16        0x9 ./src/FreeRTOS/Source/tasks.o
                0xfff8ab16                uxTaskGetNumberOfTasks
 *fill*         0xfff8ab1f        0x1 
 .text.xTaskIncrementTick
                0xfff8ab20      0x154 ./src/FreeRTOS/Source/tasks.o
                0xfff8ab20                xTaskIncrementTick
 .text.xTaskResumeAll
                0xfff8ac74      0x168 ./src/FreeRTOS/Source/tasks.o
                0xfff8ac74                xTaskResumeAll
 .text.vTaskDelayUntil
                0xfff8addc       0xc4 ./src/FreeRTOS/Source/tasks.o
                0xfff8addc                vTaskDelayUntil
 .text.vTaskDelay
                0xfff8aea0       0x8c ./src/FreeRTOS/Source/tasks.o
                0xfff8aea0                vTaskDelay
 .text.prvListTasksWithinSingleList.part.9
                0xfff8af2c       0xf0 ./src/FreeRTOS/Source/tasks.o
 .text.uxTaskGetSystemState
                0xfff8b01c       0xe8 ./src/FreeRTOS/Source/tasks.o
                0xfff8b01c                uxTaskGetSystemState
 .text.vTaskSwitchContext
                0xfff8b104       0x1a ./src/FreeRTOS/Source/tasks.o
                0xfff8b104                vTaskSwitchContext
 *fill*         0xfff8b11e        0x2 
 .text.vTaskPlaceOnEventList
                0xfff8b120       0x8c ./src/FreeRTOS/Source/tasks.o
                0xfff8b120                vTaskPlaceOnEventList
 .text.vTaskPlaceOnUnorderedEventList
                0xfff8b1ac       0xbc ./src/FreeRTOS/Source/tasks.o
                0xfff8b1ac                vTaskPlaceOnUnorderedEventList
 .text.vTaskPlaceOnEventListRestricted
                0xfff8b268       0xa0 ./src/FreeRTOS/Source/tasks.o
                0xfff8b268                vTaskPlaceOnEventListRestricted
 .text.xTaskRemoveFromEventList
                0xfff8b308       0x8c ./src/FreeRTOS/Source/tasks.o
                0xfff8b308                xTaskRemoveFromEventList
 .text.vTaskRemoveFromUnorderedEventList
                0xfff8b394       0x90 ./src/FreeRTOS/Source/tasks.o
                0xfff8b394                vTaskRemoveFromUnorderedEventList
 .text.vTaskInternalSetTimeOutState
                0xfff8b424       0x15 ./src/FreeRTOS/Source/tasks.o
                0xfff8b424                vTaskInternalSetTimeOutState
 *fill*         0xfff8b439        0x3 
 .text.xTaskCheckForTimeOut
                0xfff8b43c       0xd0 ./src/FreeRTOS/Source/tasks.o
                0xfff8b43c                xTaskCheckForTimeOut
 .text.vTaskMissedYield
                0xfff8b50c        0xa ./src/FreeRTOS/Source/tasks.o
                0xfff8b50c                vTaskMissedYield
 .text.xTaskGetCurrentTaskHandle
                0xfff8b516        0x9 ./src/FreeRTOS/Source/tasks.o
                0xfff8b516                xTaskGetCurrentTaskHandle
 .text.xTaskGetSchedulerState
                0xfff8b51f       0x20 ./src/FreeRTOS/Source/tasks.o
                0xfff8b51f                xTaskGetSchedulerState
 *fill*         0xfff8b53f        0x1 
 .text.xTaskPriorityInherit
                0xfff8b540       0x88 ./src/FreeRTOS/Source/tasks.o
                0xfff8b540                xTaskPriorityInherit
 .text.xTaskPriorityDisinherit
                0xfff8b5c8       0x80 ./src/FreeRTOS/Source/tasks.o
                0xfff8b5c8                xTaskPriorityDisinherit
 .text.vTaskPriorityDisinheritAfterTimeout
                0xfff8b648       0x9c ./src/FreeRTOS/Source/tasks.o
                0xfff8b648                vTaskPriorityDisinheritAfterTimeout
 .text.vTaskEnterCritical
                0xfff8b6e4       0x2c ./src/FreeRTOS/Source/tasks.o
                0xfff8b6e4                vTaskEnterCritical
 .text.vTaskExitCritical
                0xfff8b710       0x2d ./src/FreeRTOS/Source/tasks.o
                0xfff8b710                vTaskExitCritical
 *fill*         0xfff8b73d        0x3 
 .text.vTaskList
                0xfff8b740       0xec ./src/FreeRTOS/Source/tasks.o
                0xfff8b740                vTaskList
 .text.uxTaskResetEventItemValue
                0xfff8b82c       0x17 ./src/FreeRTOS/Source/tasks.o
                0xfff8b82c                uxTaskResetEventItemValue
 *fill*         0xfff8b843        0x1 
 .text.pvTaskIncrementMutexHeldCount
                0xfff8b844       0x18 ./src/FreeRTOS/Source/tasks.o
                0xfff8b844                pvTaskIncrementMutexHeldCount
 .text.ulTaskGenericNotifyTake
                0xfff8b85c      0x154 ./src/FreeRTOS/Source/tasks.o
                0xfff8b85c                ulTaskGenericNotifyTake
 .text.xTaskGenericNotifyWait
                0xfff8b9b0      0x180 ./src/FreeRTOS/Source/tasks.o
                0xfff8b9b0                xTaskGenericNotifyWait
 .text.xTaskGenericNotify
                0xfff8bb30      0x178 ./src/FreeRTOS/Source/tasks.o
                0xfff8bb30                xTaskGenericNotify
 .text.xTaskGenericNotifyStateClear
                0xfff8bca8       0x8c ./src/FreeRTOS/Source/tasks.o
                0xfff8bca8                xTaskGenericNotifyStateClear
 .text.ulTaskGenericNotifyValueClear
                0xfff8bd34       0x7c ./src/FreeRTOS/Source/tasks.o
                0xfff8bd34                ulTaskGenericNotifyValueClear
 .text.prvSwitchTimerLists
                0xfff8bdb0       0x88 ./src/FreeRTOS/Source/timers.o
 .text.prvTimerTask
                0xfff8be38      0x270 ./src/FreeRTOS/Source/timers.o
 .text.xTimerCreateTimerTask
                0xfff8c0a8       0x8c ./src/FreeRTOS/Source/timers.o
                0xfff8c0a8                xTimerCreateTimerTask
 .text.xTimerCreate
                0xfff8c134       0xa8 ./src/FreeRTOS/Source/timers.o
                0xfff8c134                xTimerCreate
 .text.xTimerGenericCommand
                0xfff8c1dc       0x70 ./src/FreeRTOS/Source/timers.o
                0xfff8c1dc                xTimerGenericCommand
 .text.vTimerSetReloadMode
                0xfff8c24c       0x38 ./src/FreeRTOS/Source/timers.o
                0xfff8c24c                vTimerSetReloadMode
 .text.uxTimerGetReloadMode
                0xfff8c284       0x33 ./src/FreeRTOS/Source/timers.o
                0xfff8c284                uxTimerGetReloadMode
 .text.pcTimerGetName
                0xfff8c2b7       0x14 ./src/FreeRTOS/Source/timers.o
                0xfff8c2b7                pcTimerGetName
 .text.xTimerIsTimerActive
                0xfff8c2cb       0x33 ./src/FreeRTOS/Source/timers.o
                0xfff8c2cb                xTimerIsTimerActive
 .text.pvTimerGetTimerID
                0xfff8c2fe       0x29 ./src/FreeRTOS/Source/timers.o
                0xfff8c2fe                pvTimerGetTimerID
 .text.vTimerSetTimerID
                0xfff8c327       0x28 ./src/FreeRTOS/Source/timers.o
                0xfff8c327                vTimerSetTimerID
 .text.sprintf  0xfff8c34f       0x38 c:/renesas/gcc/redhat/gnurx-elf/8.3.0.202002/rx-elf/rx-elf/bin/../lib/gcc/rx-elf/8.3.0.202002-GNURX/../../../../rx-elf/lib/no-fpu-libs\libc_nano.a(lib_a-sprintf.o)
                0xfff8c34f                siprintf
                0xfff8c34f                sprintf
 .text.__ssputs_r
                0xfff8c387       0xb2 c:/renesas/gcc/redhat/gnurx-elf/8.3.0.202002/rx-elf/rx-elf/bin/../lib/gcc/rx-elf/8.3.0.202002-GNURX/../../../../rx-elf/lib/no-fpu-libs\libc_nano.a(lib_a-nano-svfprintf.o)
                0xfff8c387                __ssputs_r
 .text._svfprintf_r
                0xfff8c439      0x1ff c:/renesas/gcc/redhat/gnurx-elf/8.3.0.202002/rx-elf/rx-elf/bin/../lib/gcc/rx-elf/8.3.0.202002-GNURX/../../../../rx-elf/lib/no-fpu-libs\libc_nano.a(lib_a-nano-svfprintf.o)
                0xfff8c439                _svfprintf_r
                0xfff8c439                _svfiprintf_r
 .text._printf_common
                0xfff8c638       0xcf c:/renesas/gcc/redhat/gnurx-elf/8.3.0.202002/rx-elf/rx-elf/bin/../lib/gcc/rx-elf/8.3.0.202002-GNURX/../../../../rx-elf/lib/no-fpu-libs\libc_nano.a(lib_a-nano-vfprintf_i.o)
                0xfff8c638                _printf_common
 .text._printf_i
                0xfff8c707      0x226 c:/renesas/gcc/redhat/gnurx-elf/8.3.0.202002/rx-elf/rx-elf/bin/../lib/gcc/rx-elf/8.3.0.202002-GNURX/../../../../rx-elf/lib/no-fpu-libs\libc_nano.a(lib_a-nano-vfprintf_i.o)
                0xfff8c707                _printf_i
 .text._free_r  0xfff8c92d       0x9f c:/renesas/gcc/redhat/gnurx-elf/8.3.0.202002/rx-elf/rx-elf/bin/../lib/gcc/rx-elf/8.3.0.202002-GNURX/../../../../rx-elf/lib/no-fpu-libs\libc_nano.a(lib_a-nano-freer.o)
                0xfff8c92d                _free_r
 .text._malloc_r
                0xfff8c9cc       0xbf c:/renesas/gcc/redhat/gnurx-elf/8.3.0.202002/rx-elf/rx-elf/bin/../lib/gcc/rx-elf/8.3.0.202002-GNURX/../../../../rx-elf/lib/no-fpu-libs\libc_nano.a(lib_a-nano-mallocr.o)
                0xfff8c9cc                _malloc_r
 .text._realloc_r
                0xfff8ca8b       0x4a c:/renesas/gcc/redhat/gnurx-elf/8.3.0.202002/rx-elf/rx-elf/bin/../lib/gcc/rx-elf/8.3.0.202002-GNURX/../../../../rx-elf/lib/no-fpu-libs\libc_nano.a(lib_a-nano-reallocr.o)
                0xfff8ca8b                _realloc_r
 .text._sbrk_r  0xfff8cad5       0x21 c:/renesas/gcc/redhat/gnurx-elf/8.3.0.202002/rx-elf/rx-elf/bin/../lib/gcc/rx-elf/8.3.0.202002-GNURX/../../../../rx-elf/lib/no-fpu-libs\libc_nano.a(lib_a-sbrkr.o)
                0xfff8cad5                _sbrk_r
 .text.__malloc_lock
                0xfff8caf6        0x1 c:/renesas/gcc/redhat/gnurx-elf/8.3.0.202002/rx-elf/rx-elf/bin/../lib/gcc/rx-elf/8.3.0.202002-GNURX/../../../../rx-elf/lib/no-fpu-libs\libc_nano.a(lib_a-mlock.o)
                0xfff8caf6                __malloc_lock
 .text.__malloc_unlock
                0xfff8caf7        0x1 c:/renesas/gcc/redhat/gnurx-elf/8.3.0.202002/rx-elf/rx-elf/bin/../lib/gcc/rx-elf/8.3.0.202002-GNURX/../../../../rx-elf/lib/no-fpu-libs\libc_nano.a(lib_a-mlock.o)
                0xfff8caf7                __malloc_unlock
 .text._malloc_usable_size_r
                0xfff8caf8       0x12 c:/renesas/gcc/redhat/gnurx-elf/8.3.0.202002/rx-elf/rx-elf/bin/../lib/gcc/rx-elf/8.3.0.202002-GNURX/../../../../rx-elf/lib/no-fpu-libs\libc_nano.a(lib_a-nano-msizer.o)
                0xfff8caf8                _malloc_usable_size_r
 *(P)
 P              0xfff8cb0a       0x34 c:/renesas/gcc/redhat/gnurx-elf/8.3.0.202002/rx-elf/rx-elf/bin/../lib/gcc/rx-elf/8.3.0.202002-GNURX/no-fpu-libs\libgcc.a(_fixunssfsi.o)
                0xfff8cb0a                __fixunssfsi
                0xfff8cb0a                _COM_CONVd32u
                0xfff8cb0a                _COM_CONVf32u
 *fill*         0xfff8cb3e        0x2 
 P              0xfff8cb40      0x3d0 c:/renesas/gcc/redhat/gnurx-elf/8.3.0.202002/rx-elf/rx-elf/bin/../lib/gcc/rx-elf/8.3.0.202002-GNURX/no-fpu-libs\libgcc.a(_udivdi3.o)
                0xfff8cb40                _COM_DIV64u
                0xfff8cb40                __udivdi3
 P              0xfff8cf10      0x1d0 c:/renesas/gcc/redhat/gnurx-elf/8.3.0.202002/rx-elf/rx-elf/bin/../lib/gcc/rx-elf/8.3.0.202002-GNURX/no-fpu-libs\libgcc.a(_addsub_sf.o)
                0xfff8d071                __addsf3
                0xfff8d071                _COM_ADDd
                0xfff8d071                _COM_ADDf
                0xfff8d0a5                _COM_SUBd
                0xfff8d0a5                _COM_SUBf
                0xfff8d0a5                __subsf3
 P              0xfff8d0e0      0x138 c:/renesas/gcc/redhat/gnurx-elf/8.3.0.202002/rx-elf/rx-elf/bin/../lib/gcc/rx-elf/8.3.0.202002-GNURX/no-fpu-libs\libgcc.a(_mul_sf.o)
                0xfff8d0e0                _COM_MULd
                0xfff8d0e0                __mulsf3
                0xfff8d0e0                _COM_MULf
 P              0xfff8d218       0xd8 c:/renesas/gcc/redhat/gnurx-elf/8.3.0.202002/rx-elf/rx-elf/bin/../lib/gcc/rx-elf/8.3.0.202002-GNURX/no-fpu-libs\libgcc.a(_div_sf.o)
                0xfff8d218                _COM_DIVd
                0xfff8d218                __divsf3
                0xfff8d218                _COM_DIVf
 P              0xfff8d2f0       0x3a c:/renesas/gcc/redhat/gnurx-elf/8.3.0.202002/rx-elf/rx-elf/bin/../lib/gcc/rx-elf/8.3.0.202002-GNURX/no-fpu-libs\libgcc.a(_gt_sf.o)
                0xfff8d2f0                __gtsf2
 P              0xfff8d32a       0x3a c:/renesas/gcc/redhat/gnurx-elf/8.3.0.202002/rx-elf/rx-elf/bin/../lib/gcc/rx-elf/8.3.0.202002-GNURX/no-fpu-libs\libgcc.a(_ge_sf.o)
                0xfff8d32a                __gesf2
 P              0xfff8d364       0x39 c:/renesas/gcc/redhat/gnurx-elf/8.3.0.202002/rx-elf/rx-elf/bin/../lib/gcc/rx-elf/8.3.0.202002-GNURX/no-fpu-libs\libgcc.a(_lt_sf.o)
                0xfff8d364                __ltsf2
 P              0xfff8d39d       0x39 c:/renesas/gcc/redhat/gnurx-elf/8.3.0.202002/rx-elf/rx-elf/bin/../lib/gcc/rx-elf/8.3.0.202002-GNURX/no-fpu-libs\libgcc.a(_le_sf.o)
                0xfff8d39d                __lesf2
 *fill*         0xfff8d3d6        0x2 
 P              0xfff8d3d8       0x60 c:/renesas/gcc/redhat/gnurx-elf/8.3.0.202002/rx-elf/rx-elf/bin/../lib/gcc/rx-elf/8.3.0.202002-GNURX/no-fpu-libs\libgcc.a(_sf_to_si.o)
                0xfff8d3d8                _COM_CONVf32s
                0xfff8d3d8                _COM_CONVd32s
                0xfff8d3d8                __fixsfsi
 P              0xfff8d438       0x65 c:/renesas/gcc/redhat/gnurx-elf/8.3.0.202002/rx-elf/rx-elf/bin/../lib/gcc/rx-elf/8.3.0.202002-GNURX/no-fpu-libs\libgcc.a(_usi_to_sf.o)
                0xfff8d438                _COM_CONV32uf
                0xfff8d438                _COM_CONV32ud
                0xfff8d438                __floatunsisf
 P              0xfff8d49d       0x59 c:/renesas/gcc/redhat/gnurx-elf/8.3.0.202002/rx-elf/rx-elf/bin/../lib/gcc/rx-elf/8.3.0.202002-GNURX/no-fpu-libs\libgcc.a(_clzsi2.o)
                0xfff8d49d                __clzsi2
 *fill*         0xfff8d4f6        0x2 
 P              0xfff8d4f8       0xe0 c:/renesas/gcc/redhat/gnurx-elf/8.3.0.202002/rx-elf/rx-elf/bin/../lib/gcc/rx-elf/8.3.0.202002-GNURX/no-fpu-libs\libgcc.a(_pack_sf.o)
                0xfff8d4f8                __pack_f
 P              0xfff8d5d8       0x70 c:/renesas/gcc/redhat/gnurx-elf/8.3.0.202002/rx-elf/rx-elf/bin/../lib/gcc/rx-elf/8.3.0.202002-GNURX/no-fpu-libs\libgcc.a(_unpack_sf.o)
                0xfff8d5d8                __unpack_f
 P              0xfff8d648       0x90 c:/renesas/gcc/redhat/gnurx-elf/8.3.0.202002/rx-elf/rx-elf/bin/../lib/gcc/rx-elf/8.3.0.202002-GNURX/no-fpu-libs\libgcc.a(_fpcmp_parts_sf.o)
                0xfff8d648                __fpcmp_parts_f
                0xfff8d6d8                etext = .

.rvectors       0xfff8d6d8      0x400
                0xfff8d6d8                _rvectors_start = .
                0xfff8d6d8        0x4 LONG 0xfff80fb4 DEFINED ($tableentry$0$.rvectors)?$tableentry$0$.rvectors:DEFINED ($tableentry$default$.rvectors)?$tableentry$default$.rvectors:0xffffffff
                0xfff8d6dc        0x4 LONG 0xfff80fb4 DEFINED ($tableentry$1$.rvectors)?$tableentry$1$.rvectors:DEFINED ($tableentry$default$.rvectors)?$tableentry$default$.rvectors:0xffffffff
                0xfff8d6e0        0x4 LONG 0xfff80fb4 DEFINED ($tableentry$2$.rvectors)?$tableentry$2$.rvectors:DEFINED ($tableentry$default$.rvectors)?$tableentry$default$.rvectors:0xffffffff
                0xfff8d6e4        0x4 LONG 0xfff80fb4 DEFINED ($tableentry$3$.rvectors)?$tableentry$3$.rvectors:DEFINED ($tableentry$default$.rvectors)?$tableentry$default$.rvectors:0xffffffff
                0xfff8d6e8        0x4 LONG 0xfff80fb4 DEFINED ($tableentry$4$.rvectors)?$tableentry$4$.rvectors:DEFINED ($tableentry$default$.rvectors)?$tableentry$default$.rvectors:0xffffffff
                0xfff8d6ec        0x4 LONG 0xfff80fb4 DEFINED ($tableentry$5$.rvectors)?$tableentry$5$.rvectors:DEFINED ($tableentry$default$.rvectors)?$tableentry$default$.rvectors:0xffffffff
                0xfff8d6f0        0x4 LONG 0xfff80fb4 DEFINED ($tableentry$6$.rvectors)?$tableentry$6$.rvectors:DEFINED ($tableentry$default$.rvectors)?$tableentry$default$.rvectors:0xffffffff
                0xfff8d6f4        0x4 LONG 0xfff80fb4 DEFINED ($tableentry$7$.rvectors)?$tableentry$7$.rvectors:DEFINED ($tableentry$default$.rvectors)?$tableentry$default$.rvectors:0xffffffff
                0xfff8d6f8        0x4 LONG 0xfff80fb4 DEFINED ($tableentry$8$.rvectors)?$tableentry$8$.rvectors:DEFINED ($tableentry$default$.rvectors)?$tableentry$default$.rvectors:0xffffffff
                0xfff8d6fc        0x4 LONG 0xfff80fb4 DEFINED ($tableentry$9$.rvectors)?$tableentry$9$.rvectors:DEFINED ($tableentry$default$.rvectors)?$tableentry$default$.rvectors:0xffffffff
                0xfff8d700        0x4 LONG 0xfff80fb4 DEFINED ($tableentry$10$.rvectors)?$tableentry$10$.rvectors:DEFINED ($tableentry$default$.rvectors)?$tableentry$default$.rvectors:0xffffffff
                0xfff8d704        0x4 LONG 0xfff80fb4 DEFINED ($tableentry$11$.rvectors)?$tableentry$11$.rvectors:DEFINED ($tableentry$default$.rvectors)?$tableentry$default$.rvectors:0xffffffff
                0xfff8d708        0x4 LONG 0xfff80fb4 DEFINED ($tableentry$12$.rvectors)?$tableentry$12$.rvectors:DEFINED ($tableentry$default$.rvectors)?$tableentry$default$.rvectors:0xffffffff
                0xfff8d70c        0x4 LONG 0xfff80fb4 DEFINED ($tableentry$13$.rvectors)?$tableentry$13$.rvectors:DEFINED ($tableentry$default$.rvectors)?$tableentry$default$.rvectors:0xffffffff
                0xfff8d710        0x4 LONG 0xfff80fb4 DEFINED ($tableentry$14$.rvectors)?$tableentry$14$.rvectors:DEFINED ($tableentry$default$.rvectors)?$tableentry$default$.rvectors:0xffffffff
                0xfff8d714        0x4 LONG 0xfff80fb4 DEFINED ($tableentry$15$.rvectors)?$tableentry$15$.rvectors:DEFINED ($tableentry$default$.rvectors)?$tableentry$default$.rvectors:0xffffffff
                0xfff8d718        0x4 LONG 0xfff80fdc DEFINED ($tableentry$16$.rvectors)?$tableentry$16$.rvectors:DEFINED ($tableentry$default$.rvectors)?$tableentry$default$.rvectors:0xffffffff
                0xfff8d71c        0x4 LONG 0xfff80fb4 DEFINED ($tableentry$17$.rvectors)?$tableentry$17$.rvectors:DEFINED ($tableentry$default$.rvectors)?$tableentry$default$.rvectors:0xffffffff
                0xfff8d720        0x4 LONG 0xfff80fb4 DEFINED ($tableentry$18$.rvectors)?$tableentry$18$.rvectors:DEFINED ($tableentry$default$.rvectors)?$tableentry$default$.rvectors:0xffffffff
                0xfff8d724        0x4 LONG 0xfff80fb4 DEFINED ($tableentry$19$.rvectors)?$tableentry$19$.rvectors:DEFINED ($tableentry$default$.rvectors)?$tableentry$default$.rvectors:0xffffffff
                0xfff8d728        0x4 LONG 0xfff80fb4 DEFINED ($tableentry$20$.rvectors)?$tableentry$20$.rvectors:DEFINED ($tableentry$default$.rvectors)?$tableentry$default$.rvectors:0xffffffff
                0xfff8d72c        0x4 LONG 0xfff80fb4 DEFINED ($tableentry$21$.rvectors)?$tableentry$21$.rvectors:DEFINED ($tableentry$default$.rvectors)?$tableentry$default$.rvectors:0xffffffff
                0xfff8d730        0x4 LONG 0xfff80fb4 DEFINED ($tableentry$22$.rvectors)?$tableentry$22$.rvectors:DEFINED ($tableentry$default$.rvectors)?$tableentry$default$.rvectors:0xffffffff
                0xfff8d734        0x4 LONG 0xfff80fb4 DEFINED ($tableentry$23$.rvectors)?$tableentry$23$.rvectors:DEFINED ($tableentry$default$.rvectors)?$tableentry$default$.rvectors:0xffffffff
                0xfff8d738        0x4 LONG 0xfff80fb4 DEFINED ($tableentry$24$.rvectors)?$tableentry$24$.rvectors:DEFINED ($tableentry$default$.rvectors)?$tableentry$default$.rvectors:0xffffffff
                0xfff8d73c        0x4 LONG 0xfff80fb4 DEFINED ($tableentry$25$.rvectors)?$tableentry$25$.rvectors:DEFINED ($tableentry$default$.rvectors)?$tableentry$default$.rvectors:0xffffffff
                0xfff8d740        0x4 LONG 0xfff80fb4 DEFINED ($tableentry$26$.rvectors)?$tableentry$26$.rvectors:DEFINED ($tableentry$default$.rvectors)?$tableentry$default$.rvectors:0xffffffff
                0xfff8d744        0x4 LONG 0xfff80244 DEFINED ($tableentry$27$.rvectors)?$tableentry$27$.rvectors:DEFINED ($tableentry$default$.rvectors)?$tableentry$default$.rvectors:0xffffffff
                0xfff8d748        0x4 LONG 0xfff8029a DEFINED ($tableentry$28$.rvectors)?$tableentry$28$.rvectors:DEFINED ($tableentry$default$.rvectors)?$tableentry$default$.rvectors:0xffffffff
                0xfff8d74c        0x4 LONG 0xfff80fb4 DEFINED ($tableentry$29$.rvectors)?$tableentry$29$.rvectors:DEFINED ($tableentry$default$.rvectors)?$tableentry$default$.rvectors:0xffffffff
                0xfff8d750        0x4 LONG 0xfff80fb4 DEFINED ($tableentry$30$.rvectors)?$tableentry$30$.rvectors:DEFINED ($tableentry$default$.rvectors)?$tableentry$default$.rvectors:0xffffffff
                0xfff8d754        0x4 LONG 0xfff80fb4 DEFINED ($tableentry$31$.rvectors)?$tableentry$31$.rvectors:DEFINED ($tableentry$default$.rvectors)?$tableentry$default$.rvectors:0xffffffff
                0xfff8d758        0x4 LONG 0xfff80fb4 DEFINED ($tableentry$32$.rvectors)?$tableentry$32$.rvectors:DEFINED ($tableentry$default$.rvectors)?$tableentry$default$.rvectors:0xffffffff
                0xfff8d75c        0x4 LONG 0xfff80fb4 DEFINED ($tableentry$33$.rvectors)?$tableentry$33$.rvectors:DEFINED ($tableentry$default$.rvectors)?$tableentry$default$.rvectors:0xffffffff
                0xfff8d760        0x4 LONG 0xfff80fb4 DEFINED ($tableentry$34$.rvectors)?$tableentry$34$.rvectors:DEFINED ($tableentry$default$.rvectors)?$tableentry$default$.rvectors:0xffffffff
                0xfff8d764        0x4 LONG 0xfff80fb4 DEFINED ($tableentry$35$.rvectors)?$tableentry$35$.rvectors:DEFINED ($tableentry$default$.rvectors)?$tableentry$default$.rvectors:0xffffffff
                0xfff8d768        0x4 LONG 0xfff80fb4 DEFINED ($tableentry$36$.rvectors)?$tableentry$36$.rvectors:DEFINED ($tableentry$default$.rvectors)?$tableentry$default$.rvectors:0xffffffff
                0xfff8d76c        0x4 LONG 0xfff80fb4 DEFINED ($tableentry$37$.rvectors)?$tableentry$37$.rvectors:DEFINED ($tableentry$default$.rvectors)?$tableentry$default$.rvectors:0xffffffff
                0xfff8d770        0x4 LONG 0xfff80fb4 DEFINED ($tableentry$38$.rvectors)?$tableentry$38$.rvectors:DEFINED ($tableentry$default$.rvectors)?$tableentry$default$.rvectors:0xffffffff
                0xfff8d774        0x4 LONG 0xfff80fb4 DEFINED ($tableentry$39$.rvectors)?$tableentry$39$.rvectors:DEFINED ($tableentry$default$.rvectors)?$tableentry$default$.rvectors:0xffffffff
                0xfff8d778        0x4 LONG 0xfff80fb4 DEFINED ($tableentry$40$.rvectors)?$tableentry$40$.rvectors:DEFINED ($tableentry$default$.rvectors)?$tableentry$default$.rvectors:0xffffffff
                0xfff8d77c        0x4 LONG 0xfff80fb4 DEFINED ($tableentry$41$.rvectors)?$tableentry$41$.rvectors:DEFINED ($tableentry$default$.rvectors)?$tableentry$default$.rvectors:0xffffffff
                0xfff8d780        0x4 LONG 0xfff80fb4 DEFINED ($tableentry$42$.rvectors)?$tableentry$42$.rvectors:DEFINED ($tableentry$default$.rvectors)?$tableentry$default$.rvectors:0xffffffff
                0xfff8d784        0x4 LONG 0xfff80fb4 DEFINED ($tableentry$43$.rvectors)?$tableentry$43$.rvectors:DEFINED ($tableentry$default$.rvectors)?$tableentry$default$.rvectors:0xffffffff
                0xfff8d788        0x4 LONG 0xfff80fb4 DEFINED ($tableentry$44$.rvectors)?$tableentry$44$.rvectors:DEFINED ($tableentry$default$.rvectors)?$tableentry$default$.rvectors:0xffffffff
                0xfff8d78c        0x4 LONG 0xfff80fb4 DEFINED ($tableentry$45$.rvectors)?$tableentry$45$.rvectors:DEFINED ($tableentry$default$.rvectors)?$tableentry$default$.rvectors:0xffffffff
                0xfff8d790        0x4 LONG 0xfff80fb4 DEFINED ($tableentry$46$.rvectors)?$tableentry$46$.rvectors:DEFINED ($tableentry$default$.rvectors)?$tableentry$default$.rvectors:0xffffffff
                0xfff8d794        0x4 LONG 0xfff80fb4 DEFINED ($tableentry$47$.rvectors)?$tableentry$47$.rvectors:DEFINED ($tableentry$default$.rvectors)?$tableentry$default$.rvectors:0xffffffff
                0xfff8d798        0x4 LONG 0xfff80fb4 DEFINED ($tableentry$48$.rvectors)?$tableentry$48$.rvectors:DEFINED ($tableentry$default$.rvectors)?$tableentry$default$.rvectors:0xffffffff
                0xfff8d79c        0x4 LONG 0xfff80fb4 DEFINED ($tableentry$49$.rvectors)?$tableentry$49$.rvectors:DEFINED ($tableentry$default$.rvectors)?$tableentry$default$.rvectors:0xffffffff
                0xfff8d7a0        0x4 LONG 0xfff80fb4 DEFINED ($tableentry$50$.rvectors)?$tableentry$50$.rvectors:DEFINED ($tableentry$default$.rvectors)?$tableentry$default$.rvectors:0xffffffff
                0xfff8d7a4        0x4 LONG 0xfff80fb4 DEFINED ($tableentry$51$.rvectors)?$tableentry$51$.rvectors:DEFINED ($tableentry$default$.rvectors)?$tableentry$default$.rvectors:0xffffffff
                0xfff8d7a8        0x4 LONG 0xfff80fb4 DEFINED ($tableentry$52$.rvectors)?$tableentry$52$.rvectors:DEFINED ($tableentry$default$.rvectors)?$tableentry$default$.rvectors:0xffffffff
                0xfff8d7ac        0x4 LONG 0xfff80fb4 DEFINED ($tableentry$53$.rvectors)?$tableentry$53$.rvectors:DEFINED ($tableentry$default$.rvectors)?$tableentry$default$.rvectors:0xffffffff
                0xfff8d7b0        0x4 LONG 0xfff80fb4 DEFINED ($tableentry$54$.rvectors)?$tableentry$54$.rvectors:DEFINED ($tableentry$default$.rvectors)?$tableentry$default$.rvectors:0xffffffff
                0xfff8d7b4        0x4 LONG 0xfff80fb4 DEFINED ($tableentry$55$.rvectors)?$tableentry$55$.rvectors:DEFINED ($tableentry$default$.rvectors)?$tableentry$default$.rvectors:0xffffffff
                0xfff8d7b8        0x4 LONG 0xfff80fb4 DEFINED ($tableentry$56$.rvectors)?$tableentry$56$.rvectors:DEFINED ($tableentry$default$.rvectors)?$tableentry$default$.rvectors:0xffffffff
                0xfff8d7bc        0x4 LONG 0xfff80fb4 DEFINED ($tableentry$57$.rvectors)?$tableentry$57$.rvectors:DEFINED ($tableentry$default$.rvectors)?$tableentry$default$.rvectors:0xffffffff
                0xfff8d7c0        0x4 LONG 0xfff80fb4 DEFINED ($tableentry$58$.rvectors)?$tableentry$58$.rvectors:DEFINED ($tableentry$default$.rvectors)?$tableentry$default$.rvectors:0xffffffff
                0xfff8d7c4        0x4 LONG 0xfff80fb4 DEFINED ($tableentry$59$.rvectors)?$tableentry$59$.rvectors:DEFINED ($tableentry$default$.rvectors)?$tableentry$default$.rvectors:0xffffffff
                0xfff8d7c8        0x4 LONG 0xfff80fb4 DEFINED ($tableentry$60$.rvectors)?$tableentry$60$.rvectors:DEFINED ($tableentry$default$.rvectors)?$tableentry$default$.rvectors:0xffffffff
                0xfff8d7cc        0x4 LONG 0xfff80fb4 DEFINED ($tableentry$61$.rvectors)?$tableentry$61$.rvectors:DEFINED ($tableentry$default$.rvectors)?$tableentry$default$.rvectors:0xffffffff
                0xfff8d7d0        0x4 LONG 0xfff80fb4 DEFINED ($tableentry$62$.rvectors)?$tableentry$62$.rvectors:DEFINED ($tableentry$default$.rvectors)?$tableentry$default$.rvectors:0xffffffff
                0xfff8d7d4        0x4 LONG 0xfff80fb4 DEFINED ($tableentry$63$.rvectors)?$tableentry$63$.rvectors:DEFINED ($tableentry$default$.rvectors)?$tableentry$default$.rvectors:0xffffffff
                0xfff8d7d8        0x4 LONG 0xfff80fb4 DEFINED ($tableentry$64$.rvectors)?$tableentry$64$.rvectors:DEFINED ($tableentry$default$.rvectors)?$tableentry$default$.rvectors:0xffffffff
                0xfff8d7dc        0x4 LONG 0xfff80fb4 DEFINED ($tableentry$65$.rvectors)?$tableentry$65$.rvectors:DEFINED ($tableentry$default$.rvectors)?$tableentry$default$.rvectors:0xffffffff
                0xfff8d7e0        0x4 LONG 0xfff80fb4 DEFINED ($tableentry$66$.rvectors)?$tableentry$66$.rvectors:DEFINED ($tableentry$default$.rvectors)?$tableentry$default$.rvectors:0xffffffff
                0xfff8d7e4        0x4 LONG 0xfff80fb4 DEFINED ($tableentry$67$.rvectors)?$tableentry$67$.rvectors:DEFINED ($tableentry$default$.rvectors)?$tableentry$default$.rvectors:0xffffffff
                0xfff8d7e8        0x4 LONG 0xfff80fb4 DEFINED ($tableentry$68$.rvectors)?$tableentry$68$.rvectors:DEFINED ($tableentry$default$.rvectors)?$tableentry$default$.rvectors:0xffffffff
                0xfff8d7ec        0x4 LONG 0xfff80fb4 DEFINED ($tableentry$69$.rvectors)?$tableentry$69$.rvectors:DEFINED ($tableentry$default$.rvectors)?$tableentry$default$.rvectors:0xffffffff
                0xfff8d7f0        0x4 LONG 0xfff80fb4 DEFINED ($tableentry$70$.rvectors)?$tableentry$70$.rvectors:DEFINED ($tableentry$default$.rvectors)?$tableentry$default$.rvectors:0xffffffff
                0xfff8d7f4        0x4 LONG 0xfff80fb4 DEFINED ($tableentry$71$.rvectors)?$tableentry$71$.rvectors:DEFINED ($tableentry$default$.rvectors)?$tableentry$default$.rvectors:0xffffffff
                0xfff8d7f8        0x4 LONG 0xfff80fb4 DEFINED ($tableentry$72$.rvectors)?$tableentry$72$.rvectors:DEFINED ($tableentry$default$.rvectors)?$tableentry$default$.rvectors:0xffffffff
                0xfff8d7fc        0x4 LONG 0xfff80fb4 DEFINED ($tableentry$73$.rvectors)?$tableentry$73$.rvectors:DEFINED ($tableentry$default$.rvectors)?$tableentry$default$.rvectors:0xffffffff
                0xfff8d800        0x4 LONG 0xfff80fb4 DEFINED ($tableentry$74$.rvectors)?$tableentry$74$.rvectors:DEFINED ($tableentry$default$.rvectors)?$tableentry$default$.rvectors:0xffffffff
                0xfff8d804        0x4 LONG 0xfff80fb4 DEFINED ($tableentry$75$.rvectors)?$tableentry$75$.rvectors:DEFINED ($tableentry$default$.rvectors)?$tableentry$default$.rvectors:0xffffffff
                0xfff8d808        0x4 LONG 0xfff80fb4 DEFINED ($tableentry$76$.rvectors)?$tableentry$76$.rvectors:DEFINED ($tableentry$default$.rvectors)?$tableentry$default$.rvectors:0xffffffff
                0xfff8d80c        0x4 LONG 0xfff80fb4 DEFINED ($tableentry$77$.rvectors)?$tableentry$77$.rvectors:DEFINED ($tableentry$default$.rvectors)?$tableentry$default$.rvectors:0xffffffff
                0xfff8d810        0x4 LONG 0xfff80fb4 DEFINED ($tableentry$78$.rvectors)?$tableentry$78$.rvectors:DEFINED ($tableentry$default$.rvectors)?$tableentry$default$.rvectors:0xffffffff
                0xfff8d814        0x4 LONG 0xfff80fb4 DEFINED ($tableentry$79$.rvectors)?$tableentry$79$.rvectors:DEFINED ($tableentry$default$.rvectors)?$tableentry$default$.rvectors:0xffffffff
                0xfff8d818        0x4 LONG 0xfff80fb4 DEFINED ($tableentry$80$.rvectors)?$tableentry$80$.rvectors:DEFINED ($tableentry$default$.rvectors)?$tableentry$default$.rvectors:0xffffffff
                0xfff8d81c        0x4 LONG 0xfff80fb4 DEFINED ($tableentry$81$.rvectors)?$tableentry$81$.rvectors:DEFINED ($tableentry$default$.rvectors)?$tableentry$default$.rvectors:0xffffffff
                0xfff8d820        0x4 LONG 0xfff80fb4 DEFINED ($tableentry$82$.rvectors)?$tableentry$82$.rvectors:DEFINED ($tableentry$default$.rvectors)?$tableentry$default$.rvectors:0xffffffff
                0xfff8d824        0x4 LONG 0xfff80fb4 DEFINED ($tableentry$83$.rvectors)?$tableentry$83$.rvectors:DEFINED ($tableentry$default$.rvectors)?$tableentry$default$.rvectors:0xffffffff
                0xfff8d828        0x4 LONG 0xfff80fb4 DEFINED ($tableentry$84$.rvectors)?$tableentry$84$.rvectors:DEFINED ($tableentry$default$.rvectors)?$tableentry$default$.rvectors:0xffffffff
                0xfff8d82c        0x4 LONG 0xfff80fb4 DEFINED ($tableentry$85$.rvectors)?$tableentry$85$.rvectors:DEFINED ($tableentry$default$.rvectors)?$tableentry$default$.rvectors:0xffffffff
                0xfff8d830        0x4 LONG 0xfff80fb4 DEFINED ($tableentry$86$.rvectors)?$tableentry$86$.rvectors:DEFINED ($tableentry$default$.rvectors)?$tableentry$default$.rvectors:0xffffffff
                0xfff8d834        0x4 LONG 0xfff80fb4 DEFINED ($tableentry$87$.rvectors)?$tableentry$87$.rvectors:DEFINED ($tableentry$default$.rvectors)?$tableentry$default$.rvectors:0xffffffff
                0xfff8d838        0x4 LONG 0xfff80fb4 DEFINED ($tableentry$88$.rvectors)?$tableentry$88$.rvectors:DEFINED ($tableentry$default$.rvectors)?$tableentry$default$.rvectors:0xffffffff
                0xfff8d83c        0x4 LONG 0xfff80fb4 DEFINED ($tableentry$89$.rvectors)?$tableentry$89$.rvectors:DEFINED ($tableentry$default$.rvectors)?$tableentry$default$.rvectors:0xffffffff
                0xfff8d840        0x4 LONG 0xfff80fb4 DEFINED ($tableentry$90$.rvectors)?$tableentry$90$.rvectors:DEFINED ($tableentry$default$.rvectors)?$tableentry$default$.rvectors:0xffffffff
                0xfff8d844        0x4 LONG 0xfff80fb4 DEFINED ($tableentry$91$.rvectors)?$tableentry$91$.rvectors:DEFINED ($tableentry$default$.rvectors)?$tableentry$default$.rvectors:0xffffffff
                0xfff8d848        0x4 LONG 0xfff80fb4 DEFINED ($tableentry$92$.rvectors)?$tableentry$92$.rvectors:DEFINED ($tableentry$default$.rvectors)?$tableentry$default$.rvectors:0xffffffff
                0xfff8d84c        0x4 LONG 0xfff80fb4 DEFINED ($tableentry$93$.rvectors)?$tableentry$93$.rvectors:DEFINED ($tableentry$default$.rvectors)?$tableentry$default$.rvectors:0xffffffff
                0xfff8d850        0x4 LONG 0xfff80fb4 DEFINED ($tableentry$94$.rvectors)?$tableentry$94$.rvectors:DEFINED ($tableentry$default$.rvectors)?$tableentry$default$.rvectors:0xffffffff
                0xfff8d854        0x4 LONG 0xfff80fb4 DEFINED ($tableentry$95$.rvectors)?$tableentry$95$.rvectors:DEFINED ($tableentry$default$.rvectors)?$tableentry$default$.rvectors:0xffffffff
                0xfff8d858        0x4 LONG 0xfff80fb4 DEFINED ($tableentry$96$.rvectors)?$tableentry$96$.rvectors:DEFINED ($tableentry$default$.rvectors)?$tableentry$default$.rvectors:0xffffffff
                0xfff8d85c        0x4 LONG 0xfff80fb4 DEFINED ($tableentry$97$.rvectors)?$tableentry$97$.rvectors:DEFINED ($tableentry$default$.rvectors)?$tableentry$default$.rvectors:0xffffffff
                0xfff8d860        0x4 LONG 0xfff80fb4 DEFINED ($tableentry$98$.rvectors)?$tableentry$98$.rvectors:DEFINED ($tableentry$default$.rvectors)?$tableentry$default$.rvectors:0xffffffff
                0xfff8d864        0x4 LONG 0xfff80fb4 DEFINED ($tableentry$99$.rvectors)?$tableentry$99$.rvectors:DEFINED ($tableentry$default$.rvectors)?$tableentry$default$.rvectors:0xffffffff
                0xfff8d868        0x4 LONG 0xfff80fb4 DEFINED ($tableentry$100$.rvectors)?$tableentry$100$.rvectors:DEFINED ($tableentry$default$.rvectors)?$tableentry$default$.rvectors:0xffffffff
                0xfff8d86c        0x4 LONG 0xfff80fb4 DEFINED ($tableentry$101$.rvectors)?$tableentry$101$.rvectors:DEFINED ($tableentry$default$.rvectors)?$tableentry$default$.rvectors:0xffffffff
                0xfff8d870        0x4 LONG 0xfff80fb4 DEFINED ($tableentry$102$.rvectors)?$tableentry$102$.rvectors:DEFINED ($tableentry$default$.rvectors)?$tableentry$default$.rvectors:0xffffffff
                0xfff8d874        0x4 LONG 0xfff80fb4 DEFINED ($tableentry$103$.rvectors)?$tableentry$103$.rvectors:DEFINED ($tableentry$default$.rvectors)?$tableentry$default$.rvectors:0xffffffff
                0xfff8d878        0x4 LONG 0xfff80fb4 DEFINED ($tableentry$104$.rvectors)?$tableentry$104$.rvectors:DEFINED ($tableentry$default$.rvectors)?$tableentry$default$.rvectors:0xffffffff
                0xfff8d87c        0x4 LONG 0xfff80fb4 DEFINED ($tableentry$105$.rvectors)?$tableentry$105$.rvectors:DEFINED ($tableentry$default$.rvectors)?$tableentry$default$.rvectors:0xffffffff
                0xfff8d880        0x4 LONG 0xfff80fb4 DEFINED ($tableentry$106$.rvectors)?$tableentry$106$.rvectors:DEFINED ($tableentry$default$.rvectors)?$tableentry$default$.rvectors:0xffffffff
                0xfff8d884        0x4 LONG 0xfff80fb4 DEFINED ($tableentry$107$.rvectors)?$tableentry$107$.rvectors:DEFINED ($tableentry$default$.rvectors)?$tableentry$default$.rvectors:0xffffffff
                0xfff8d888        0x4 LONG 0xfff80fb4 DEFINED ($tableentry$108$.rvectors)?$tableentry$108$.rvectors:DEFINED ($tableentry$default$.rvectors)?$tableentry$default$.rvectors:0xffffffff
                0xfff8d88c        0x4 LONG 0xfff80fb4 DEFINED ($tableentry$109$.rvectors)?$tableentry$109$.rvectors:DEFINED ($tableentry$default$.rvectors)?$tableentry$default$.rvectors:0xffffffff
                0xfff8d890        0x4 LONG 0xfff80fb4 DEFINED ($tableentry$110$.rvectors)?$tableentry$110$.rvectors:DEFINED ($tableentry$default$.rvectors)?$tableentry$default$.rvectors:0xffffffff
                0xfff8d894        0x4 LONG 0xfff80fb4 DEFINED ($tableentry$111$.rvectors)?$tableentry$111$.rvectors:DEFINED ($tableentry$default$.rvectors)?$tableentry$default$.rvectors:0xffffffff
                0xfff8d898        0x4 LONG 0xfff80fb4 DEFINED ($tableentry$112$.rvectors)?$tableentry$112$.rvectors:DEFINED ($tableentry$default$.rvectors)?$tableentry$default$.rvectors:0xffffffff
                0xfff8d89c        0x4 LONG 0xfff80fb4 DEFINED ($tableentry$113$.rvectors)?$tableentry$113$.rvectors:DEFINED ($tableentry$default$.rvectors)?$tableentry$default$.rvectors:0xffffffff
                0xfff8d8a0        0x4 LONG 0xfff80fb4 DEFINED ($tableentry$114$.rvectors)?$tableentry$114$.rvectors:DEFINED ($tableentry$default$.rvectors)?$tableentry$default$.rvectors:0xffffffff
                0xfff8d8a4        0x4 LONG 0xfff80fb4 DEFINED ($tableentry$115$.rvectors)?$tableentry$115$.rvectors:DEFINED ($tableentry$default$.rvectors)?$tableentry$default$.rvectors:0xffffffff
                0xfff8d8a8        0x4 LONG 0xfff80fb4 DEFINED ($tableentry$116$.rvectors)?$tableentry$116$.rvectors:DEFINED ($tableentry$default$.rvectors)?$tableentry$default$.rvectors:0xffffffff
                0xfff8d8ac        0x4 LONG 0xfff80fb4 DEFINED ($tableentry$117$.rvectors)?$tableentry$117$.rvectors:DEFINED ($tableentry$default$.rvectors)?$tableentry$default$.rvectors:0xffffffff
                0xfff8d8b0        0x4 LONG 0xfff80fb4 DEFINED ($tableentry$118$.rvectors)?$tableentry$118$.rvectors:DEFINED ($tableentry$default$.rvectors)?$tableentry$default$.rvectors:0xffffffff
                0xfff8d8b4        0x4 LONG 0xfff80fb4 DEFINED ($tableentry$119$.rvectors)?$tableentry$119$.rvectors:DEFINED ($tableentry$default$.rvectors)?$tableentry$default$.rvectors:0xffffffff
                0xfff8d8b8        0x4 LONG 0xfff80fb4 DEFINED ($tableentry$120$.rvectors)?$tableentry$120$.rvectors:DEFINED ($tableentry$default$.rvectors)?$tableentry$default$.rvectors:0xffffffff
                0xfff8d8bc        0x4 LONG 0xfff80fb4 DEFINED ($tableentry$121$.rvectors)?$tableentry$121$.rvectors:DEFINED ($tableentry$default$.rvectors)?$tableentry$default$.rvectors:0xffffffff
                0xfff8d8c0        0x4 LONG 0xfff80fb4 DEFINED ($tableentry$122$.rvectors)?$tableentry$122$.rvectors:DEFINED ($tableentry$default$.rvectors)?$tableentry$default$.rvectors:0xffffffff
                0xfff8d8c4        0x4 LONG 0xfff80fb4 DEFINED ($tableentry$123$.rvectors)?$tableentry$123$.rvectors:DEFINED ($tableentry$default$.rvectors)?$tableentry$default$.rvectors:0xffffffff
                0xfff8d8c8        0x4 LONG 0xfff80fb4 DEFINED ($tableentry$124$.rvectors)?$tableentry$124$.rvectors:DEFINED ($tableentry$default$.rvectors)?$tableentry$default$.rvectors:0xffffffff
                0xfff8d8cc        0x4 LONG 0xfff80fb4 DEFINED ($tableentry$125$.rvectors)?$tableentry$125$.rvectors:DEFINED ($tableentry$default$.rvectors)?$tableentry$default$.rvectors:0xffffffff
                0xfff8d8d0        0x4 LONG 0xfff80fb4 DEFINED ($tableentry$126$.rvectors)?$tableentry$126$.rvectors:DEFINED ($tableentry$default$.rvectors)?$tableentry$default$.rvectors:0xffffffff
                0xfff8d8d4        0x4 LONG 0xfff80fb4 DEFINED ($tableentry$127$.rvectors)?$tableentry$127$.rvectors:DEFINED ($tableentry$default$.rvectors)?$tableentry$default$.rvectors:0xffffffff
                0xfff8d8d8        0x4 LONG 0xfff80fb4 DEFINED ($tableentry$128$.rvectors)?$tableentry$128$.rvectors:DEFINED ($tableentry$default$.rvectors)?$tableentry$default$.rvectors:0xffffffff
                0xfff8d8dc        0x4 LONG 0xfff80fb4 DEFINED ($tableentry$129$.rvectors)?$tableentry$129$.rvectors:DEFINED ($tableentry$default$.rvectors)?$tableentry$default$.rvectors:0xffffffff
                0xfff8d8e0        0x4 LONG 0xfff80fb4 DEFINED ($tableentry$130$.rvectors)?$tableentry$130$.rvectors:DEFINED ($tableentry$default$.rvectors)?$tableentry$default$.rvectors:0xffffffff
                0xfff8d8e4        0x4 LONG 0xfff80fb4 DEFINED ($tableentry$131$.rvectors)?$tableentry$131$.rvectors:DEFINED ($tableentry$default$.rvectors)?$tableentry$default$.rvectors:0xffffffff
                0xfff8d8e8        0x4 LONG 0xfff80fb4 DEFINED ($tableentry$132$.rvectors)?$tableentry$132$.rvectors:DEFINED ($tableentry$default$.rvectors)?$tableentry$default$.rvectors:0xffffffff
                0xfff8d8ec        0x4 LONG 0xfff80fb4 DEFINED ($tableentry$133$.rvectors)?$tableentry$133$.rvectors:DEFINED ($tableentry$default$.rvectors)?$tableentry$default$.rvectors:0xffffffff
                0xfff8d8f0        0x4 LONG 0xfff80fb4 DEFINED ($tableentry$134$.rvectors)?$tableentry$134$.rvectors:DEFINED ($tableentry$default$.rvectors)?$tableentry$default$.rvectors:0xffffffff
                0xfff8d8f4        0x4 LONG 0xfff80fb4 DEFINED ($tableentry$135$.rvectors)?$tableentry$135$.rvectors:DEFINED ($tableentry$default$.rvectors)?$tableentry$default$.rvectors:0xffffffff
                0xfff8d8f8        0x4 LONG 0xfff80fb4 DEFINED ($tableentry$136$.rvectors)?$tableentry$136$.rvectors:DEFINED ($tableentry$default$.rvectors)?$tableentry$default$.rvectors:0xffffffff
                0xfff8d8fc        0x4 LONG 0xfff80fb4 DEFINED ($tableentry$137$.rvectors)?$tableentry$137$.rvectors:DEFINED ($tableentry$default$.rvectors)?$tableentry$default$.rvectors:0xffffffff
                0xfff8d900        0x4 LONG 0xfff80fb4 DEFINED ($tableentry$138$.rvectors)?$tableentry$138$.rvectors:DEFINED ($tableentry$default$.rvectors)?$tableentry$default$.rvectors:0xffffffff
                0xfff8d904        0x4 LONG 0xfff80fb4 DEFINED ($tableentry$139$.rvectors)?$tableentry$139$.rvectors:DEFINED ($tableentry$default$.rvectors)?$tableentry$default$.rvectors:0xffffffff
                0xfff8d908        0x4 LONG 0xfff80fb4 DEFINED ($tableentry$140$.rvectors)?$tableentry$140$.rvectors:DEFINED ($tableentry$default$.rvectors)?$tableentry$default$.rvectors:0xffffffff
                0xfff8d90c        0x4 LONG 0xfff80fb4 DEFINED ($tableentry$141$.rvectors)?$tableentry$141$.rvectors:DEFINED ($tableentry$default$.rvectors)?$tableentry$default$.rvectors:0xffffffff
                0xfff8d910        0x4 LONG 0xfff80fb4 DEFINED ($tableentry$142$.rvectors)?$tableentry$142$.rvectors:DEFINED ($tableentry$default$.rvectors)?$tableentry$default$.rvectors:0xffffffff
                0xfff8d914        0x4 LONG 0xfff80fb4 DEFINED ($tableentry$143$.rvectors)?$tableentry$143$.rvectors:DEFINED ($tableentry$default$.rvectors)?$tableentry$default$.rvectors:0xffffffff
                0xfff8d918        0x4 LONG 0xfff80fb4 DEFINED ($tableentry$144$.rvectors)?$tableentry$144$.rvectors:DEFINED ($tableentry$default$.rvectors)?$tableentry$default$.rvectors:0xffffffff
                0xfff8d91c        0x4 LONG 0xfff80fb4 DEFINED ($tableentry$145$.rvectors)?$tableentry$145$.rvectors:DEFINED ($tableentry$default$.rvectors)?$tableentry$default$.rvectors:0xffffffff
                0xfff8d920        0x4 LONG 0xfff80fb4 DEFINED ($tableentry$146$.rvectors)?$tableentry$146$.rvectors:DEFINED ($tableentry$default$.rvectors)?$tableentry$default$.rvectors:0xffffffff
                0xfff8d924        0x4 LONG 0xfff80fb4 DEFINED ($tableentry$147$.rvectors)?$tableentry$147$.rvectors:DEFINED ($tableentry$default$.rvectors)?$tableentry$default$.rvectors:0xffffffff
                0xfff8d928        0x4 LONG 0xfff80fb4 DEFINED ($tableentry$148$.rvectors)?$tableentry$148$.rvectors:DEFINED ($tableentry$default$.rvectors)?$tableentry$default$.rvectors:0xffffffff
                0xfff8d92c        0x4 LONG 0xfff80fb4 DEFINED ($tableentry$149$.rvectors)?$tableentry$149$.rvectors:DEFINED ($tableentry$default$.rvectors)?$tableentry$default$.rvectors:0xffffffff
                0xfff8d930        0x4 LONG 0xfff80fb4 DEFINED ($tableentry$150$.rvectors)?$tableentry$150$.rvectors:DEFINED ($tableentry$default$.rvectors)?$tableentry$default$.rvectors:0xffffffff
                0xfff8d934        0x4 LONG 0xfff80fb4 DEFINED ($tableentry$151$.rvectors)?$tableentry$151$.rvectors:DEFINED ($tableentry$default$.rvectors)?$tableentry$default$.rvectors:0xffffffff
                0xfff8d938        0x4 LONG 0xfff80fb4 DEFINED ($tableentry$152$.rvectors)?$tableentry$152$.rvectors:DEFINED ($tableentry$default$.rvectors)?$tableentry$default$.rvectors:0xffffffff
                0xfff8d93c        0x4 LONG 0xfff80fb4 DEFINED ($tableentry$153$.rvectors)?$tableentry$153$.rvectors:DEFINED ($tableentry$default$.rvectors)?$tableentry$default$.rvectors:0xffffffff
                0xfff8d940        0x4 LONG 0xfff80fb4 DEFINED ($tableentry$154$.rvectors)?$tableentry$154$.rvectors:DEFINED ($tableentry$default$.rvectors)?$tableentry$default$.rvectors:0xffffffff
                0xfff8d944        0x4 LONG 0xfff80fb4 DEFINED ($tableentry$155$.rvectors)?$tableentry$155$.rvectors:DEFINED ($tableentry$default$.rvectors)?$tableentry$default$.rvectors:0xffffffff
                0xfff8d948        0x4 LONG 0xfff80fb4 DEFINED ($tableentry$156$.rvectors)?$tableentry$156$.rvectors:DEFINED ($tableentry$default$.rvectors)?$tableentry$default$.rvectors:0xffffffff
                0xfff8d94c        0x4 LONG 0xfff80fb4 DEFINED ($tableentry$157$.rvectors)?$tableentry$157$.rvectors:DEFINED ($tableentry$default$.rvectors)?$tableentry$default$.rvectors:0xffffffff
                0xfff8d950        0x4 LONG 0xfff80fb4 DEFINED ($tableentry$158$.rvectors)?$tableentry$158$.rvectors:DEFINED ($tableentry$default$.rvectors)?$tableentry$default$.rvectors:0xffffffff
                0xfff8d954        0x4 LONG 0xfff80fb4 DEFINED ($tableentry$159$.rvectors)?$tableentry$159$.rvectors:DEFINED ($tableentry$default$.rvectors)?$tableentry$default$.rvectors:0xffffffff
                0xfff8d958        0x4 LONG 0xfff80fb4 DEFINED ($tableentry$160$.rvectors)?$tableentry$160$.rvectors:DEFINED ($tableentry$default$.rvectors)?$tableentry$default$.rvectors:0xffffffff
                0xfff8d95c        0x4 LONG 0xfff80fb4 DEFINED ($tableentry$161$.rvectors)?$tableentry$161$.rvectors:DEFINED ($tableentry$default$.rvectors)?$tableentry$default$.rvectors:0xffffffff
                0xfff8d960        0x4 LONG 0xfff80fb4 DEFINED ($tableentry$162$.rvectors)?$tableentry$162$.rvectors:DEFINED ($tableentry$default$.rvectors)?$tableentry$default$.rvectors:0xffffffff
                0xfff8d964        0x4 LONG 0xfff80fb4 DEFINED ($tableentry$163$.rvectors)?$tableentry$163$.rvectors:DEFINED ($tableentry$default$.rvectors)?$tableentry$default$.rvectors:0xffffffff
                0xfff8d968        0x4 LONG 0xfff80fb4 DEFINED ($tableentry$164$.rvectors)?$tableentry$164$.rvectors:DEFINED ($tableentry$default$.rvectors)?$tableentry$default$.rvectors:0xffffffff
                0xfff8d96c        0x4 LONG 0xfff80fb4 DEFINED ($tableentry$165$.rvectors)?$tableentry$165$.rvectors:DEFINED ($tableentry$default$.rvectors)?$tableentry$default$.rvectors:0xffffffff
                0xfff8d970        0x4 LONG 0xfff80fb4 DEFINED ($tableentry$166$.rvectors)?$tableentry$166$.rvectors:DEFINED ($tableentry$default$.rvectors)?$tableentry$default$.rvectors:0xffffffff
                0xfff8d974        0x4 LONG 0xfff80fb4 DEFINED ($tableentry$167$.rvectors)?$tableentry$167$.rvectors:DEFINED ($tableentry$default$.rvectors)?$tableentry$default$.rvectors:0xffffffff
                0xfff8d978        0x4 LONG 0xfff80fb4 DEFINED ($tableentry$168$.rvectors)?$tableentry$168$.rvectors:DEFINED ($tableentry$default$.rvectors)?$tableentry$default$.rvectors:0xffffffff
                0xfff8d97c        0x4 LONG 0xfff80fb4 DEFINED ($tableentry$169$.rvectors)?$tableentry$169$.rvectors:DEFINED ($tableentry$default$.rvectors)?$tableentry$default$.rvectors:0xffffffff
                0xfff8d980        0x4 LONG 0xfff80fb4 DEFINED ($tableentry$170$.rvectors)?$tableentry$170$.rvectors:DEFINED ($tableentry$default$.rvectors)?$tableentry$default$.rvectors:0xffffffff
                0xfff8d984        0x4 LONG 0xfff80fb4 DEFINED ($tableentry$171$.rvectors)?$tableentry$171$.rvectors:DEFINED ($tableentry$default$.rvectors)?$tableentry$default$.rvectors:0xffffffff
                0xfff8d988        0x4 LONG 0xfff80fb4 DEFINED ($tableentry$172$.rvectors)?$tableentry$172$.rvectors:DEFINED ($tableentry$default$.rvectors)?$tableentry$default$.rvectors:0xffffffff
                0xfff8d98c        0x4 LONG 0xfff80fb4 DEFINED ($tableentry$173$.rvectors)?$tableentry$173$.rvectors:DEFINED ($tableentry$default$.rvectors)?$tableentry$default$.rvectors:0xffffffff
                0xfff8d990        0x4 LONG 0xfff80204 DEFINED ($tableentry$174$.rvectors)?$tableentry$174$.rvectors:DEFINED ($tableentry$default$.rvectors)?$tableentry$default$.rvectors:0xffffffff
                0xfff8d994        0x4 LONG 0xfff80fb4 DEFINED ($tableentry$175$.rvectors)?$tableentry$175$.rvectors:DEFINED ($tableentry$default$.rvectors)?$tableentry$default$.rvectors:0xffffffff
                0xfff8d998        0x4 LONG 0xfff80fb4 DEFINED ($tableentry$176$.rvectors)?$tableentry$176$.rvectors:DEFINED ($tableentry$default$.rvectors)?$tableentry$default$.rvectors:0xffffffff
                0xfff8d99c        0x4 LONG 0xfff80fb4 DEFINED ($tableentry$177$.rvectors)?$tableentry$177$.rvectors:DEFINED ($tableentry$default$.rvectors)?$tableentry$default$.rvectors:0xffffffff
                0xfff8d9a0        0x4 LONG 0xfff80fb4 DEFINED ($tableentry$178$.rvectors)?$tableentry$178$.rvectors:DEFINED ($tableentry$default$.rvectors)?$tableentry$default$.rvectors:0xffffffff
                0xfff8d9a4        0x4 LONG 0xfff80fb4 DEFINED ($tableentry$179$.rvectors)?$tableentry$179$.rvectors:DEFINED ($tableentry$default$.rvectors)?$tableentry$default$.rvectors:0xffffffff
                0xfff8d9a8        0x4 LONG 0xfff80224 DEFINED ($tableentry$180$.rvectors)?$tableentry$180$.rvectors:DEFINED ($tableentry$default$.rvectors)?$tableentry$default$.rvectors:0xffffffff
                0xfff8d9ac        0x4 LONG 0xfff80fb4 DEFINED ($tableentry$181$.rvectors)?$tableentry$181$.rvectors:DEFINED ($tableentry$default$.rvectors)?$tableentry$default$.rvectors:0xffffffff
                0xfff8d9b0        0x4 LONG 0xfff80fb4 DEFINED ($tableentry$182$.rvectors)?$tableentry$182$.rvectors:DEFINED ($tableentry$default$.rvectors)?$tableentry$default$.rvectors:0xffffffff
                0xfff8d9b4        0x4 LONG 0xfff80fb4 DEFINED ($tableentry$183$.rvectors)?$tableentry$183$.rvectors:DEFINED ($tableentry$default$.rvectors)?$tableentry$default$.rvectors:0xffffffff
                0xfff8d9b8        0x4 LONG 0xfff80fb4 DEFINED ($tableentry$184$.rvectors)?$tableentry$184$.rvectors:DEFINED ($tableentry$default$.rvectors)?$tableentry$default$.rvectors:0xffffffff
                0xfff8d9bc        0x4 LONG 0xfff80fb4 DEFINED ($tableentry$185$.rvectors)?$tableentry$185$.rvectors:DEFINED ($tableentry$default$.rvectors)?$tableentry$default$.rvectors:0xffffffff
                0xfff8d9c0        0x4 LONG 0xfff80fb4 DEFINED ($tableentry$186$.rvectors)?$tableentry$186$.rvectors:DEFINED ($tableentry$default$.rvectors)?$tableentry$default$.rvectors:0xffffffff
                0xfff8d9c4        0x4 LONG 0xfff80fb4 DEFINED ($tableentry$187$.rvectors)?$tableentry$187$.rvectors:DEFINED ($tableentry$default$.rvectors)?$tableentry$default$.rvectors:0xffffffff
                0xfff8d9c8        0x4 LONG 0xfff80fb4 DEFINED ($tableentry$188$.rvectors)?$tableentry$188$.rvectors:DEFINED ($tableentry$default$.rvectors)?$tableentry$default$.rvectors:0xffffffff
                0xfff8d9cc        0x4 LONG 0xfff80fb4 DEFINED ($tableentry$189$.rvectors)?$tableentry$189$.rvectors:DEFINED ($tableentry$default$.rvectors)?$tableentry$default$.rvectors:0xffffffff
                0xfff8d9d0        0x4 LONG 0xfff80fb4 DEFINED ($tableentry$190$.rvectors)?$tableentry$190$.rvectors:DEFINED ($tableentry$default$.rvectors)?$tableentry$default$.rvectors:0xffffffff
                0xfff8d9d4        0x4 LONG 0xfff80fb4 DEFINED ($tableentry$191$.rvectors)?$tableentry$191$.rvectors:DEFINED ($tableentry$default$.rvectors)?$tableentry$default$.rvectors:0xffffffff
                0xfff8d9d8        0x4 LONG 0xfff80fb4 DEFINED ($tableentry$192$.rvectors)?$tableentry$192$.rvectors:DEFINED ($tableentry$default$.rvectors)?$tableentry$default$.rvectors:0xffffffff
                0xfff8d9dc        0x4 LONG 0xfff80fb4 DEFINED ($tableentry$193$.rvectors)?$tableentry$193$.rvectors:DEFINED ($tableentry$default$.rvectors)?$tableentry$default$.rvectors:0xffffffff
                0xfff8d9e0        0x4 LONG 0xfff80fb4 DEFINED ($tableentry$194$.rvectors)?$tableentry$194$.rvectors:DEFINED ($tableentry$default$.rvectors)?$tableentry$default$.rvectors:0xffffffff
                0xfff8d9e4        0x4 LONG 0xfff80fb4 DEFINED ($tableentry$195$.rvectors)?$tableentry$195$.rvectors:DEFINED ($tableentry$default$.rvectors)?$tableentry$default$.rvectors:0xffffffff
                0xfff8d9e8        0x4 LONG 0xfff80fb4 DEFINED ($tableentry$196$.rvectors)?$tableentry$196$.rvectors:DEFINED ($tableentry$default$.rvectors)?$tableentry$default$.rvectors:0xffffffff
                0xfff8d9ec        0x4 LONG 0xfff80fb4 DEFINED ($tableentry$197$.rvectors)?$tableentry$197$.rvectors:DEFINED ($tableentry$default$.rvectors)?$tableentry$default$.rvectors:0xffffffff
                0xfff8d9f0        0x4 LONG 0xfff80fb4 DEFINED ($tableentry$198$.rvectors)?$tableentry$198$.rvectors:DEFINED ($tableentry$default$.rvectors)?$tableentry$default$.rvectors:0xffffffff
                0xfff8d9f4        0x4 LONG 0xfff80fb4 DEFINED ($tableentry$199$.rvectors)?$tableentry$199$.rvectors:DEFINED ($tableentry$default$.rvectors)?$tableentry$default$.rvectors:0xffffffff
                0xfff8d9f8        0x4 LONG 0xfff80fb4 DEFINED ($tableentry$200$.rvectors)?$tableentry$200$.rvectors:DEFINED ($tableentry$default$.rvectors)?$tableentry$default$.rvectors:0xffffffff
                0xfff8d9fc        0x4 LONG 0xfff80fb4 DEFINED ($tableentry$201$.rvectors)?$tableentry$201$.rvectors:DEFINED ($tableentry$default$.rvectors)?$tableentry$default$.rvectors:0xffffffff
                0xfff8da00        0x4 LONG 0xfff80fb4 DEFINED ($tableentry$202$.rvectors)?$tableentry$202$.rvectors:DEFINED ($tableentry$default$.rvectors)?$tableentry$default$.rvectors:0xffffffff
                0xfff8da04        0x4 LONG 0xfff80fb4 DEFINED ($tableentry$203$.rvectors)?$tableentry$203$.rvectors:DEFINED ($tableentry$default$.rvectors)?$tableentry$default$.rvectors:0xffffffff
                0xfff8da08        0x4 LONG 0xfff80fb4 DEFINED ($tableentry$204$.rvectors)?$tableentry$204$.rvectors:DEFINED ($tableentry$default$.rvectors)?$tableentry$default$.rvectors:0xffffffff
                0xfff8da0c        0x4 LONG 0xfff80fb4 DEFINED ($tableentry$205$.rvectors)?$tableentry$205$.rvectors:DEFINED ($tableentry$default$.rvectors)?$tableentry$default$.rvectors:0xffffffff
                0xfff8da10        0x4 LONG 0xfff80fb4 DEFINED ($tableentry$206$.rvectors)?$tableentry$206$.rvectors:DEFINED ($tableentry$default$.rvectors)?$tableentry$default$.rvectors:0xffffffff
                0xfff8da14        0x4 LONG 0xfff80fb4 DEFINED ($tableentry$207$.rvectors)?$tableentry$207$.rvectors:DEFINED ($tableentry$default$.rvectors)?$tableentry$default$.rvectors:0xffffffff
                0xfff8da18        0x4 LONG 0xfff80fb4 DEFINED ($tableentry$208$.rvectors)?$tableentry$208$.rvectors:DEFINED ($tableentry$default$.rvectors)?$tableentry$default$.rvectors:0xffffffff
                0xfff8da1c        0x4 LONG 0xfff80fb4 DEFINED ($tableentry$209$.rvectors)?$tableentry$209$.rvectors:DEFINED ($tableentry$default$.rvectors)?$tableentry$default$.rvectors:0xffffffff
                0xfff8da20        0x4 LONG 0xfff80fb4 DEFINED ($tableentry$210$.rvectors)?$tableentry$210$.rvectors:DEFINED ($tableentry$default$.rvectors)?$tableentry$default$.rvectors:0xffffffff
                0xfff8da24        0x4 LONG 0xfff80fb4 DEFINED ($tableentry$211$.rvectors)?$tableentry$211$.rvectors:DEFINED ($tableentry$default$.rvectors)?$tableentry$default$.rvectors:0xffffffff
                0xfff8da28        0x4 LONG 0xfff80fb4 DEFINED ($tableentry$212$.rvectors)?$tableentry$212$.rvectors:DEFINED ($tableentry$default$.rvectors)?$tableentry$default$.rvectors:0xffffffff
                0xfff8da2c        0x4 LONG 0xfff80fb4 DEFINED ($tableentry$213$.rvectors)?$tableentry$213$.rvectors:DEFINED ($tableentry$default$.rvectors)?$tableentry$default$.rvectors:0xffffffff
                0xfff8da30        0x4 LONG 0xfff80fb4 DEFINED ($tableentry$214$.rvectors)?$tableentry$214$.rvectors:DEFINED ($tableentry$default$.rvectors)?$tableentry$default$.rvectors:0xffffffff
                0xfff8da34        0x4 LONG 0xfff80fb4 DEFINED ($tableentry$215$.rvectors)?$tableentry$215$.rvectors:DEFINED ($tableentry$default$.rvectors)?$tableentry$default$.rvectors:0xffffffff
                0xfff8da38        0x4 LONG 0xfff80fb4 DEFINED ($tableentry$216$.rvectors)?$tableentry$216$.rvectors:DEFINED ($tableentry$default$.rvectors)?$tableentry$default$.rvectors:0xffffffff
                0xfff8da3c        0x4 LONG 0xfff80fb4 DEFINED ($tableentry$217$.rvectors)?$tableentry$217$.rvectors:DEFINED ($tableentry$default$.rvectors)?$tableentry$default$.rvectors:0xffffffff
                0xfff8da40        0x4 LONG 0xfff80e96 DEFINED ($tableentry$218$.rvectors)?$tableentry$218$.rvectors:DEFINED ($tableentry$default$.rvectors)?$tableentry$default$.rvectors:0xffffffff
                0xfff8da44        0x4 LONG 0xfff80e82 DEFINED ($tableentry$219$.rvectors)?$tableentry$219$.rvectors:DEFINED ($tableentry$default$.rvectors)?$tableentry$default$.rvectors:0xffffffff
                0xfff8da48        0x4 LONG 0xfff80e5a DEFINED ($tableentry$220$.rvectors)?$tableentry$220$.rvectors:DEFINED ($tableentry$default$.rvectors)?$tableentry$default$.rvectors:0xffffffff
                0xfff8da4c        0x4 LONG 0xfff80e6e DEFINED ($tableentry$221$.rvectors)?$tableentry$221$.rvectors:DEFINED ($tableentry$default$.rvectors)?$tableentry$default$.rvectors:0xffffffff
                0xfff8da50        0x4 LONG 0xfff80fb4 DEFINED ($tableentry$222$.rvectors)?$tableentry$222$.rvectors:DEFINED ($tableentry$default$.rvectors)?$tableentry$default$.rvectors:0xffffffff
                0xfff8da54        0x4 LONG 0xfff80fb4 DEFINED ($tableentry$223$.rvectors)?$tableentry$223$.rvectors:DEFINED ($tableentry$default$.rvectors)?$tableentry$default$.rvectors:0xffffffff
                0xfff8da58        0x4 LONG 0xfff80fb4 DEFINED ($tableentry$224$.rvectors)?$tableentry$224$.rvectors:DEFINED ($tableentry$default$.rvectors)?$tableentry$default$.rvectors:0xffffffff
                0xfff8da5c        0x4 LONG 0xfff80fb4 DEFINED ($tableentry$225$.rvectors)?$tableentry$225$.rvectors:DEFINED ($tableentry$default$.rvectors)?$tableentry$default$.rvectors:0xffffffff
                0xfff8da60        0x4 LONG 0xfff80fb4 DEFINED ($tableentry$226$.rvectors)?$tableentry$226$.rvectors:DEFINED ($tableentry$default$.rvectors)?$tableentry$default$.rvectors:0xffffffff
                0xfff8da64        0x4 LONG 0xfff80fb4 DEFINED ($tableentry$227$.rvectors)?$tableentry$227$.rvectors:DEFINED ($tableentry$default$.rvectors)?$tableentry$default$.rvectors:0xffffffff
                0xfff8da68        0x4 LONG 0xfff80fb4 DEFINED ($tableentry$228$.rvectors)?$tableentry$228$.rvectors:DEFINED ($tableentry$default$.rvectors)?$tableentry$default$.rvectors:0xffffffff
                0xfff8da6c        0x4 LONG 0xfff80fb4 DEFINED ($tableentry$229$.rvectors)?$tableentry$229$.rvectors:DEFINED ($tableentry$default$.rvectors)?$tableentry$default$.rvectors:0xffffffff
                0xfff8da70        0x4 LONG 0xfff80fb4 DEFINED ($tableentry$230$.rvectors)?$tableentry$230$.rvectors:DEFINED ($tableentry$default$.rvectors)?$tableentry$default$.rvectors:0xffffffff
                0xfff8da74        0x4 LONG 0xfff80fb4 DEFINED ($tableentry$231$.rvectors)?$tableentry$231$.rvectors:DEFINED ($tableentry$default$.rvectors)?$tableentry$default$.rvectors:0xffffffff
                0xfff8da78        0x4 LONG 0xfff80fb4 DEFINED ($tableentry$232$.rvectors)?$tableentry$232$.rvectors:DEFINED ($tableentry$default$.rvectors)?$tableentry$default$.rvectors:0xffffffff
                0xfff8da7c        0x4 LONG 0xfff80fb4 DEFINED ($tableentry$233$.rvectors)?$tableentry$233$.rvectors:DEFINED ($tableentry$default$.rvectors)?$tableentry$default$.rvectors:0xffffffff
                0xfff8da80        0x4 LONG 0xfff80fb4 DEFINED ($tableentry$234$.rvectors)?$tableentry$234$.rvectors:DEFINED ($tableentry$default$.rvectors)?$tableentry$default$.rvectors:0xffffffff
                0xfff8da84        0x4 LONG 0xfff80fb4 DEFINED ($tableentry$235$.rvectors)?$tableentry$235$.rvectors:DEFINED ($tableentry$default$.rvectors)?$tableentry$default$.rvectors:0xffffffff
                0xfff8da88        0x4 LONG 0xfff80fb4 DEFINED ($tableentry$236$.rvectors)?$tableentry$236$.rvectors:DEFINED ($tableentry$default$.rvectors)?$tableentry$default$.rvectors:0xffffffff
                0xfff8da8c        0x4 LONG 0xfff80fb4 DEFINED ($tableentry$237$.rvectors)?$tableentry$237$.rvectors:DEFINED ($tableentry$default$.rvectors)?$tableentry$default$.rvectors:0xffffffff
                0xfff8da90        0x4 LONG 0xfff80fb4 DEFINED ($tableentry$238$.rvectors)?$tableentry$238$.rvectors:DEFINED ($tableentry$default$.rvectors)?$tableentry$default$.rvectors:0xffffffff
                0xfff8da94        0x4 LONG 0xfff80fb4 DEFINED ($tableentry$239$.rvectors)?$tableentry$239$.rvectors:DEFINED ($tableentry$default$.rvectors)?$tableentry$default$.rvectors:0xffffffff
                0xfff8da98        0x4 LONG 0xfff80fb4 DEFINED ($tableentry$240$.rvectors)?$tableentry$240$.rvectors:DEFINED ($tableentry$default$.rvectors)?$tableentry$default$.rvectors:0xffffffff
                0xfff8da9c        0x4 LONG 0xfff80fb4 DEFINED ($tableentry$241$.rvectors)?$tableentry$241$.rvectors:DEFINED ($tableentry$default$.rvectors)?$tableentry$default$.rvectors:0xffffffff
                0xfff8daa0        0x4 LONG 0xfff80fb4 DEFINED ($tableentry$242$.rvectors)?$tableentry$242$.rvectors:DEFINED ($tableentry$default$.rvectors)?$tableentry$default$.rvectors:0xffffffff
                0xfff8daa4        0x4 LONG 0xfff80fb4 DEFINED ($tableentry$243$.rvectors)?$tableentry$243$.rvectors:DEFINED ($tableentry$default$.rvectors)?$tableentry$default$.rvectors:0xffffffff
                0xfff8daa8        0x4 LONG 0xfff80fb4 DEFINED ($tableentry$244$.rvectors)?$tableentry$244$.rvectors:DEFINED ($tableentry$default$.rvectors)?$tableentry$default$.rvectors:0xffffffff
                0xfff8daac        0x4 LONG 0xfff80fb4 DEFINED ($tableentry$245$.rvectors)?$tableentry$245$.rvectors:DEFINED ($tableentry$default$.rvectors)?$tableentry$default$.rvectors:0xffffffff
                0xfff8dab0        0x4 LONG 0xfff80fb4 DEFINED ($tableentry$246$.rvectors)?$tableentry$246$.rvectors:DEFINED ($tableentry$default$.rvectors)?$tableentry$default$.rvectors:0xffffffff
                0xfff8dab4        0x4 LONG 0xfff80fb4 DEFINED ($tableentry$247$.rvectors)?$tableentry$247$.rvectors:DEFINED ($tableentry$default$.rvectors)?$tableentry$default$.rvectors:0xffffffff
                0xfff8dab8        0x4 LONG 0xfff80fb4 DEFINED ($tableentry$248$.rvectors)?$tableentry$248$.rvectors:DEFINED ($tableentry$default$.rvectors)?$tableentry$default$.rvectors:0xffffffff
                0xfff8dabc        0x4 LONG 0xfff80fb4 DEFINED ($tableentry$249$.rvectors)?$tableentry$249$.rvectors:DEFINED ($tableentry$default$.rvectors)?$tableentry$default$.rvectors:0xffffffff
                0xfff8dac0        0x4 LONG 0xfff80fb4 DEFINED ($tableentry$250$.rvectors)?$tableentry$250$.rvectors:DEFINED ($tableentry$default$.rvectors)?$tableentry$default$.rvectors:0xffffffff
                0xfff8dac4        0x4 LONG 0xfff80fb4 DEFINED ($tableentry$251$.rvectors)?$tableentry$251$.rvectors:DEFINED ($tableentry$default$.rvectors)?$tableentry$default$.rvectors:0xffffffff
                0xfff8dac8        0x4 LONG 0xfff80fb4 DEFINED ($tableentry$252$.rvectors)?$tableentry$252$.rvectors:DEFINED ($tableentry$default$.rvectors)?$tableentry$default$.rvectors:0xffffffff
                0xfff8dacc        0x4 LONG 0xfff80fb4 DEFINED ($tableentry$253$.rvectors)?$tableentry$253$.rvectors:DEFINED ($tableentry$default$.rvectors)?$tableentry$default$.rvectors:0xffffffff
                0xfff8dad0        0x4 LONG 0xfff80fb4 DEFINED ($tableentry$254$.rvectors)?$tableentry$254$.rvectors:DEFINED ($tableentry$default$.rvectors)?$tableentry$default$.rvectors:0xffffffff
                0xfff8dad4        0x4 LONG 0xfff80fb4 DEFINED ($tableentry$255$.rvectors)?$tableentry$255$.rvectors:DEFINED ($tableentry$default$.rvectors)?$tableentry$default$.rvectors:0xffffffff
                0xfff8dad8                _rvectors_end = .

.init           0xfff8dad8        0x0
 *(.init)
                0xfff8dad8                __preinit_array_start = .
 *(.preinit_array)
                0xfff8dad8                __preinit_array_end = .
                0xfff8dad8                __init_array_start = ((. + 0x3) & 0xfffffffc)
 *(.init_array)
 *(SORT(.init_array.*))
                0xfff8dad8                __init_array_end = .
                0xfff8dad8                __fini_array_start = .
 *(.fini_array)
 *(SORT(.fini_array.*))
                0xfff8dad8                __fini_array_end = .

.fini
 *(.fini)

.got
 *(.got)
 *(.got.plt)

.rodata         0xfff8dad8      0xbac
 *(.rodata)
 *(.rodata.*)
 .rodata.g_source_array
                0xfff8dad8      0x100 ./src/smc_workaround/r_dtc_rx_patch/r_dtc_rx_target.o
                0xfff8dad8                g_source_array
 .rodata.g_handles
                0xfff8dbd8       0x34 ./src/smc_gen/r_sci_rx/src/targets/rx130/r_sci_rx130_data.o
                0xfff8dbd8                g_handles
 .rodata.ch1_rom
                0xfff8dc0c       0x34 ./src/smc_gen/r_sci_rx/src/targets/rx130/r_sci_rx130_data.o
                0xfff8dc0c                ch1_rom
 .rodata.async_baud
                0xfff8dc40       0x36 ./src/smc_gen/r_sci_rx/src/targets/rx130/r_sci_rx130_data.o
                0xfff8dc40                async_baud
 *fill*         0xfff8dc76        0x2 
 .rodata.R_BSP_CpuInterruptLevelWrite
                0xfff8dc78       0x40 ./src/smc_gen/r_bsp/mcu/all/r_bsp_cpu.o
 .rodata.s_prcr_masks
                0xfff8dcb8        0x8 ./src/smc_gen/r_bsp/mcu/all/r_bsp_cpu.o
 .rodata.vAssertCalled.str1.1
                0xfff8dcc0       0x13 ./src/frtos_startup/freertos_start.o
                                 0x16 (size before relaxing)
 .rodata.vApplicationMallocFailedHook.str1.1
                0xfff8dcd3       0x1b ./src/frtos_startup/freertos_start.o
 .rodata.vApplicationStackOverflowHook.str1.1
                0xfff8dcee       0x11 ./src/frtos_startup/freertos_start.o
 .rodata.vStartBlockingQueueTasks.str1.1
                0xfff8dcff       0x30 ./src/FreeRTOS_Demo/Full_Demo/Standard_Demo_Tasks/BlockQ.o
 .rodata.vStartEventGroupTasks.str1.1
                0xfff8dd2f       0x10 ./src/FreeRTOS_Demo/Full_Demo/Standard_Demo_Tasks/EventGroupsDemo.o
 .rodata.vStartGenericQueueTasks.str1.1
                0xfff8dd3f       0x18 ./src/FreeRTOS_Demo/Full_Demo/Standard_Demo_Tasks/GenQTest.o
 .rodata.vStartInterruptQueueTasks.str1.1
                0xfff8dd57       0x24 ./src/FreeRTOS_Demo/Full_Demo/Standard_Demo_Tasks/IntQueue.o
 .rodata.vStartInterruptSemaphoreTasks.str1.1
                0xfff8dd7b       0x15 ./src/FreeRTOS_Demo/Full_Demo/Standard_Demo_Tasks/IntSemTest.o
 .rodata.vStartQueueOverwriteTask.str1.1
                0xfff8dd90        0x6 ./src/FreeRTOS_Demo/Full_Demo/Standard_Demo_Tasks/QueueOverwrite.o
 .rodata.prvNotifiedTask.str1.1
                0xfff8dd96       0x16 ./src/FreeRTOS_Demo/Full_Demo/Standard_Demo_Tasks/TaskNotify.o
 .rodata.vStartTaskNotifyTask.str1.1
                0xfff8ddac        0x9 ./src/FreeRTOS_Demo/Full_Demo/Standard_Demo_Tasks/TaskNotify.o
 .rodata.vStartTaskNotifyArrayTask.str1.1
                0xfff8ddb5        0xd ./src/FreeRTOS_Demo/Full_Demo/Standard_Demo_Tasks/TaskNotifyArray.o
                                 0x23 (size before relaxing)
 .rodata.prvTimerTestTask.str1.1
                0xfff8ddc2        0xe ./src/FreeRTOS_Demo/Full_Demo/Standard_Demo_Tasks/TimerDemo.o
 .rodata.vStartTimerDemoTask.str1.1
                0xfff8ddd0       0x1f ./src/FreeRTOS_Demo/Full_Demo/Standard_Demo_Tasks/TimerDemo.o
 .rodata.vCreateBlockTimeTasks.str1.1
                0xfff8ddef        0xe ./src/FreeRTOS_Demo/Full_Demo/Standard_Demo_Tasks/blocktim.o
 .rodata.vStartCountingSemaphoreTasks.str1.1
                0xfff8ddfd        0xa ./src/FreeRTOS_Demo/Full_Demo/Standard_Demo_Tasks/countsem.o
 .rodata.vCreateTasks.str1.1
                0xfff8de07       0x10 ./src/FreeRTOS_Demo/Full_Demo/Standard_Demo_Tasks/death.o
 .rodata.vCreateSuicidalTasks.str1.1
                0xfff8de17        0x8 ./src/FreeRTOS_Demo/Full_Demo/Standard_Demo_Tasks/death.o
 .rodata.vStartDynamicPriorityTasks.str1.1
                0xfff8de1f       0x27 ./src/FreeRTOS_Demo/Full_Demo/Standard_Demo_Tasks/dynamic.o
 .rodata.vStartMathTasks.str1.1
                0xfff8de46       0x18 ./src/FreeRTOS_Demo/Full_Demo/Standard_Demo_Tasks/flop.o
 .rodata.vStartRecursiveMutexTasks.str1.1
                0xfff8de5e        0xf ./src/FreeRTOS_Demo/Full_Demo/Standard_Demo_Tasks/recmutex.o
 .rodata.vStartSemaphoreTasks.str1.1
                0xfff8de6d       0x20 ./src/FreeRTOS_Demo/Full_Demo/Standard_Demo_Tasks/semtest.o
 .rodata.FreeRTOS_CLIProcessCommand.str1.1
                0xfff8de8d       0xa8 ./src/FreeRTOS_Demo/Full_Demo/FreeRTOS-Plus-CLI/FreeRTOS_CLI.o
 .rodata.str1.1
                0xfff8df35       0x35 ./src/FreeRTOS_Demo/Full_Demo/FreeRTOS-Plus-CLI/FreeRTOS_CLI.o
 *fill*         0xfff8df6a        0x2 
 .rodata.xHelpCommand
                0xfff8df6c       0x10 ./src/FreeRTOS_Demo/Full_Demo/FreeRTOS-Plus-CLI/FreeRTOS_CLI.o
 .rodata.prvQueryHeapCommand.str1.1
                0xfff8df7c       0x3e ./src/FreeRTOS_Demo/Full_Demo/Sample-CLI-commands.o
 .rodata.prvParameterEchoCommand.str1.1
                0xfff8dfba       0x1c ./src/FreeRTOS_Demo/Full_Demo/Sample-CLI-commands.o
 .rodata.prvThreeParameterEchoCommand.str1.1
                0xfff8dfd6       0x1d ./src/FreeRTOS_Demo/Full_Demo/Sample-CLI-commands.o
 .rodata.prvTaskStatsCommand.str1.1
                0xfff8dff3       0x56 ./src/FreeRTOS_Demo/Full_Demo/Sample-CLI-commands.o
 .rodata.str1.1
                0xfff8e049      0x18a ./src/FreeRTOS_Demo/Full_Demo/Sample-CLI-commands.o
 *fill*         0xfff8e1d3        0x1 
 .rodata.xQueryHeap
                0xfff8e1d4       0x10 ./src/FreeRTOS_Demo/Full_Demo/Sample-CLI-commands.o
 .rodata.xParameterEcho
                0xfff8e1e4       0x10 ./src/FreeRTOS_Demo/Full_Demo/Sample-CLI-commands.o
 .rodata.xThreeParameterEcho
                0xfff8e1f4       0x10 ./src/FreeRTOS_Demo/Full_Demo/Sample-CLI-commands.o
 .rodata.xTaskStats
                0xfff8e204       0x10 ./src/FreeRTOS_Demo/Full_Demo/Sample-CLI-commands.o
 .rodata.prvUARTCommandConsoleTask.str1.1
                0xfff8e214       0x89 ./src/FreeRTOS_Demo/Full_Demo/UARTCommandConsole.o
                                 0x8c (size before relaxing)
 .rodata.vUARTCommandConsoleStart.str1.1
                0xfff8e29d        0x4 ./src/FreeRTOS_Demo/Full_Demo/UARTCommandConsole.o
 .rodata.prvCheckTask.str1.1
                0xfff8e2a1      0x26e ./src/FreeRTOS_Demo/Full_Demo/main_full.o
                                0x271 (size before relaxing)
 .rodata.main_full.str1.1
                0xfff8e50f       0x14 ./src/FreeRTOS_Demo/Full_Demo/main_full.o
 .rodata.vTaskList.str1.1
                0xfff8e523        0xf ./src/FreeRTOS/Source/tasks.o
 .rodata.CSWTCH.156
                0xfff8e532        0x5 ./src/FreeRTOS/Source/tasks.o
 .rodata.xTimerCreateTimerTask.str1.1
                0xfff8e537        0x8 ./src/FreeRTOS/Source/timers.o
 .rodata._svfprintf_r.str1.1
                0xfff8e53f       0x11 c:/renesas/gcc/redhat/gnurx-elf/8.3.0.202002/rx-elf/rx-elf/bin/../lib/gcc/rx-elf/8.3.0.202002-GNURX/../../../../rx-elf/lib/no-fpu-libs\libc_nano.a(lib_a-nano-svfprintf.o)
 .rodata._printf_i.str1.1
                0xfff8e550       0x22 c:/renesas/gcc/redhat/gnurx-elf/8.3.0.202002/rx-elf/rx-elf/bin/../lib/gcc/rx-elf/8.3.0.202002-GNURX/../../../../rx-elf/lib/no-fpu-libs\libc_nano.a(lib_a-nano-vfprintf_i.o)
 *(C_1)
 *(C_2)
 *(C)
 *fill*         0xfff8e572        0x2 
 C              0xfff8e574       0x10 c:/renesas/gcc/redhat/gnurx-elf/8.3.0.202002/rx-elf/rx-elf/bin/../lib/gcc/rx-elf/8.3.0.202002-GNURX/no-fpu-libs\libgcc.a(_thenan_sf.o)
                0xfff8e574                __thenan_sf
 C              0xfff8e584      0x100 c:/renesas/gcc/redhat/gnurx-elf/8.3.0.202002/rx-elf/rx-elf/bin/../lib/gcc/rx-elf/8.3.0.202002-GNURX/no-fpu-libs\libgcc.a(_clz.o)
                0xfff8e584                __clz_tab
                0xfff8e684                _erodata = .

.eh_frame_hdr
 *(.eh_frame_hdr)

.eh_frame
 *(.eh_frame)

.jcr
 *(.jcr)

.tors           0xfff8e684        0x0
                0xfff8e684                __CTOR_LIST__ = .
                0xfff8e684                . = ALIGN (0x2)
                0xfff8e684                ___ctors = .
 *(.ctors)
                0xfff8e684                ___ctors_end = .
                0xfff8e684                __CTOR_END__ = .
                0xfff8e684                __DTOR_LIST__ = .
                0xfff8e684                ___dtors = .
 *(.dtors)
                0xfff8e684                ___dtors_end = .
                0xfff8e684                __DTOR_END__ = .
                0xfff8e684                . = ALIGN (0x2)
                0xfff8e684                _mdata = .

.data           0x00000004      0x13c load address 0xfff8e684
                0x00000004                _data = .
 *(.data)
 *(.data.*)
 .data.ch1_ctrl
                0x00000004       0x20 ./src/smc_gen/r_sci_rx/src/targets/rx130/r_sci_rx130_data.o
                0x00000004                ch1_ctrl
 .data.xErrorStatus
                0x00000024        0x4 ./src/FreeRTOS_Demo/Full_Demo/Standard_Demo_Tasks/IntQueue.o
 .data.xISRTestStatus
                0x00000028        0x4 ./src/FreeRTOS_Demo/Full_Demo/Standard_Demo_Tasks/QueueOverwrite.o
 .data.xErrorStatus
                0x0000002c        0x4 ./src/FreeRTOS_Demo/Full_Demo/Standard_Demo_Tasks/TaskNotify.o
 .data.xErrorStatus.2139
                0x00000030        0x4 ./src/FreeRTOS_Demo/Full_Demo/Standard_Demo_Tasks/TaskNotifyArray.o
 .data.uxTick.2057
                0x00000034        0x4 ./src/FreeRTOS_Demo/Full_Demo/Standard_Demo_Tasks/TimerDemo.o
 .data.xTestStatus
                0x00000038        0x4 ./src/FreeRTOS_Demo/Full_Demo/Standard_Demo_Tasks/TimerDemo.o
 .data.usLastCreationCount.1915
                0x0000003c        0x2 ./src/FreeRTOS_Demo/Full_Demo/Standard_Demo_Tasks/death.o
 *fill*         0x0000003e        0x2 
 .data.pxLastCommandInList.1926
                0x00000040        0x4 ./src/FreeRTOS_Demo/Full_Demo/FreeRTOS-Plus-CLI/FreeRTOS_CLI.o
 .data.xRegisteredCommands
                0x00000044        0x8 ./src/FreeRTOS_Demo/Full_Demo/FreeRTOS-Plus-CLI/FreeRTOS_CLI.o
 .data._impure_ptr
                0x0000004c        0x4 c:/renesas/gcc/redhat/gnurx-elf/8.3.0.202002/rx-elf/rx-elf/bin/../lib/gcc/rx-elf/8.3.0.202002-GNURX/../../../../rx-elf/lib/no-fpu-libs\libc_nano.a(lib_a-impure.o)
                0x0000004c                _impure_ptr
 .data.impure_data
                0x00000050       0xf0 c:/renesas/gcc/redhat/gnurx-elf/8.3.0.202002/rx-elf/rx-elf/bin/../lib/gcc/rx-elf/8.3.0.202002-GNURX/../../../../rx-elf/lib/no-fpu-libs\libc_nano.a(lib_a-impure.o)
 *(D)
 *(D_1)
 *(D_2)
                0x00000140                _edata = .

.gcc_exc
 *(.gcc_exc)

.bss            0x00000140     0xb724 load address 0xfff8e7c0
                0x00000140                _bss = .
 *(.bss)
 *(.bss.**)
 .bss.s_is_opened
                0x00000140        0x1 ./src/smc_workaround/r_dtc_rx_patch/r_dtc_rx.o
 .bss.ch1_rx_buf
                0x00000141       0x50 ./src/smc_gen/r_sci_rx/src/r_sci_rx.o
 .bss.ch1_tx_buf
                0x00000191       0x50 ./src/smc_gen/r_sci_rx/src/r_sci_rx.o
 .bss.qcb_init.9636
                0x000001e1        0x1 ./src/smc_gen/r_byteq/src/r_byteq.o
 *fill*         0x000001e2        0x2 
 .bss.g_qcb     0x000001e4      0x180 ./src/smc_gen/r_byteq/src/r_byteq.o
 .bss.s_protect_counters
                0x00000364        0xa ./src/smc_gen/r_bsp/mcu/all/r_bsp_cpu.o
 *fill*         0x0000036e        0x2 
 .bss.g_bsp_vectors
                0x00000370       0x28 ./src/smc_gen/r_bsp/mcu/all/r_bsp_interrupts.o
 .bss.sLastBlockingProducerCount.2045
                0x00000398        0x6 ./src/FreeRTOS_Demo/Full_Demo/Standard_Demo_Tasks/BlockQ.o
 .bss.sLastBlockingConsumerCount.2044
                0x0000039e        0x6 ./src/FreeRTOS_Demo/Full_Demo/Standard_Demo_Tasks/BlockQ.o
 .bss.sBlockingProducerCount
                0x000003a4        0x6 ./src/FreeRTOS_Demo/Full_Demo/Standard_Demo_Tasks/BlockQ.o
 .bss.sBlockingConsumerCount
                0x000003aa        0x6 ./src/FreeRTOS_Demo/Full_Demo/Standard_Demo_Tasks/BlockQ.o
 .bss.ulPreviousISRCycles.2007
                0x000003b0        0x4 ./src/FreeRTOS_Demo/Full_Demo/Standard_Demo_Tasks/EventGroupsDemo.o
 .bss.ulPreviousWaitBitCycles.2005
                0x000003b4        0x4 ./src/FreeRTOS_Demo/Full_Demo/Standard_Demo_Tasks/EventGroupsDemo.o
 .bss.ulPreviousSetBitCycles.2006
                0x000003b8        0x4 ./src/FreeRTOS_Demo/Full_Demo/Standard_Demo_Tasks/EventGroupsDemo.o
 .bss.xISRTestError.1995
                0x000003bc        0x4 ./src/FreeRTOS_Demo/Full_Demo/Standard_Demo_Tasks/EventGroupsDemo.o
 .bss.xCallCount.1994
                0x000003c0        0x4 ./src/FreeRTOS_Demo/Full_Demo/Standard_Demo_Tasks/EventGroupsDemo.o
 .bss.xSyncTask2
                0x000003c4        0x4 ./src/FreeRTOS_Demo/Full_Demo/Standard_Demo_Tasks/EventGroupsDemo.o
 .bss.xSyncTask1
                0x000003c8        0x4 ./src/FreeRTOS_Demo/Full_Demo/Standard_Demo_Tasks/EventGroupsDemo.o
 .bss.xISREventGroup
                0x000003cc        0x4 ./src/FreeRTOS_Demo/Full_Demo/Standard_Demo_Tasks/EventGroupsDemo.o
 .bss.xEventGroup
                0x000003d0        0x4 ./src/FreeRTOS_Demo/Full_Demo/Standard_Demo_Tasks/EventGroupsDemo.o
 .bss.ulISRCycles
                0x000003d4        0x4 ./src/FreeRTOS_Demo/Full_Demo/Standard_Demo_Tasks/EventGroupsDemo.o
 .bss.ulTestSlaveCycles
                0x000003d8        0x4 ./src/FreeRTOS_Demo/Full_Demo/Standard_Demo_Tasks/EventGroupsDemo.o
 .bss.ulTestMasterCycles
                0x000003dc        0x4 ./src/FreeRTOS_Demo/Full_Demo/Standard_Demo_Tasks/EventGroupsDemo.o
 .bss.ulLastLoopCounter2.2078
                0x000003e0        0x4 ./src/FreeRTOS_Demo/Full_Demo/Standard_Demo_Tasks/GenQTest.o
 .bss.ulLastLoopCounter.2077
                0x000003e4        0x4 ./src/FreeRTOS_Demo/Full_Demo/Standard_Demo_Tasks/GenQTest.o
 .bss.xBlockWasAborted
                0x000003e8        0x4 ./src/FreeRTOS_Demo/Full_Demo/Standard_Demo_Tasks/GenQTest.o
 .bss.xMediumPriorityMutexTask
                0x000003ec        0x4 ./src/FreeRTOS_Demo/Full_Demo/Standard_Demo_Tasks/GenQTest.o
 .bss.xHighPriorityMutexTask
                0x000003f0        0x4 ./src/FreeRTOS_Demo/Full_Demo/Standard_Demo_Tasks/GenQTest.o
 .bss.ulGuardedVariable
                0x000003f4        0x4 ./src/FreeRTOS_Demo/Full_Demo/Standard_Demo_Tasks/GenQTest.o
 .bss.ulLoopCounter2
                0x000003f8        0x4 ./src/FreeRTOS_Demo/Full_Demo/Standard_Demo_Tasks/GenQTest.o
 .bss.ulLoopCounter
                0x000003fc        0x4 ./src/FreeRTOS_Demo/Full_Demo/Standard_Demo_Tasks/GenQTest.o
 .bss.xErrorDetected
                0x00000400        0x4 ./src/FreeRTOS_Demo/Full_Demo/Standard_Demo_Tasks/GenQTest.o
 .bss.uxLastLowPriorityLoops2.2136
                0x00000404        0x4 ./src/FreeRTOS_Demo/Full_Demo/Standard_Demo_Tasks/IntQueue.o
 .bss.uxLastLowPriorityLoops1.2135
                0x00000408        0x4 ./src/FreeRTOS_Demo/Full_Demo/Standard_Demo_Tasks/IntQueue.o
 .bss.uxLastHighPriorityLoops2.2134
                0x0000040c        0x4 ./src/FreeRTOS_Demo/Full_Demo/Standard_Demo_Tasks/IntQueue.o
 .bss.uxLastHighPriorityLoops1.2133
                0x00000410        0x4 ./src/FreeRTOS_Demo/Full_Demo/Standard_Demo_Tasks/IntQueue.o
 .bss.uxNextOperation.2124
                0x00000414        0x4 ./src/FreeRTOS_Demo/Full_Demo/Standard_Demo_Tasks/IntQueue.o
 .bss.uxNextOperation.2115
                0x00000418        0x4 ./src/FreeRTOS_Demo/Full_Demo/Standard_Demo_Tasks/IntQueue.o
 .bss.ucNormallyFullReceivedValues
                0x0000041c       0xc8 ./src/FreeRTOS_Demo/Full_Demo/Standard_Demo_Tasks/IntQueue.o
 .bss.ucNormallyEmptyReceivedValues
                0x000004e4       0xc8 ./src/FreeRTOS_Demo/Full_Demo/Standard_Demo_Tasks/IntQueue.o
 .bss.uxValueForNormallyFullQueue
                0x000005ac        0x4 ./src/FreeRTOS_Demo/Full_Demo/Standard_Demo_Tasks/IntQueue.o
 .bss.uxValueForNormallyEmptyQueue
                0x000005b0        0x4 ./src/FreeRTOS_Demo/Full_Demo/Standard_Demo_Tasks/IntQueue.o
 .bss.xWasSuspended
                0x000005b4        0x4 ./src/FreeRTOS_Demo/Full_Demo/Standard_Demo_Tasks/IntQueue.o
 .bss.xErrorLine
                0x000005b8        0x4 ./src/FreeRTOS_Demo/Full_Demo/Standard_Demo_Tasks/IntQueue.o
 .bss.uxLowPriorityLoops2
                0x000005bc        0x4 ./src/FreeRTOS_Demo/Full_Demo/Standard_Demo_Tasks/IntQueue.o
 .bss.uxLowPriorityLoops1
                0x000005c0        0x4 ./src/FreeRTOS_Demo/Full_Demo/Standard_Demo_Tasks/IntQueue.o
 .bss.uxHighPriorityLoops2
                0x000005c4        0x4 ./src/FreeRTOS_Demo/Full_Demo/Standard_Demo_Tasks/IntQueue.o
 .bss.uxHighPriorityLoops1
                0x000005c8        0x4 ./src/FreeRTOS_Demo/Full_Demo/Standard_Demo_Tasks/IntQueue.o
 .bss.xNormallyFullQueue
                0x000005cc        0x4 ./src/FreeRTOS_Demo/Full_Demo/Standard_Demo_Tasks/IntQueue.o
 .bss.xNormallyEmptyQueue
                0x000005d0        0x4 ./src/FreeRTOS_Demo/Full_Demo/Standard_Demo_Tasks/IntQueue.o
 .bss.ulLastCountingSemaphoreLoops.2061
                0x000005d4        0x4 ./src/FreeRTOS_Demo/Full_Demo/Standard_Demo_Tasks/IntSemTest.o
 .bss.ulLastMasterLoopCounter.2060
                0x000005d8        0x4 ./src/FreeRTOS_Demo/Full_Demo/Standard_Demo_Tasks/IntSemTest.o
 .bss.xLastGiveTime.2054
                0x000005dc        0x4 ./src/FreeRTOS_Demo/Full_Demo/Standard_Demo_Tasks/IntSemTest.o
 .bss.xOkToGiveCountingSemaphore
                0x000005e0        0x4 ./src/FreeRTOS_Demo/Full_Demo/Standard_Demo_Tasks/IntSemTest.o
 .bss.xOkToGiveMutex
                0x000005e4        0x4 ./src/FreeRTOS_Demo/Full_Demo/Standard_Demo_Tasks/IntSemTest.o
 .bss.xMasterSlaveMutex
                0x000005e8        0x4 ./src/FreeRTOS_Demo/Full_Demo/Standard_Demo_Tasks/IntSemTest.o
 .bss.xISRCountingSemaphore
                0x000005ec        0x4 ./src/FreeRTOS_Demo/Full_Demo/Standard_Demo_Tasks/IntSemTest.o
 .bss.xISRMutex
                0x000005f0        0x4 ./src/FreeRTOS_Demo/Full_Demo/Standard_Demo_Tasks/IntSemTest.o
 .bss.xSlaveHandle
                0x000005f4        0x4 ./src/FreeRTOS_Demo/Full_Demo/Standard_Demo_Tasks/IntSemTest.o
 .bss.ulCountingSemaphoreLoops
                0x000005f8        0x4 ./src/FreeRTOS_Demo/Full_Demo/Standard_Demo_Tasks/IntSemTest.o
 .bss.ulMasterLoops
                0x000005fc        0x4 ./src/FreeRTOS_Demo/Full_Demo/Standard_Demo_Tasks/IntSemTest.o
 .bss.xErrorDetected
                0x00000600        0x4 ./src/FreeRTOS_Demo/Full_Demo/Standard_Demo_Tasks/IntSemTest.o
 .bss.ulCallCount.1964
                0x00000604        0x4 ./src/FreeRTOS_Demo/Full_Demo/Standard_Demo_Tasks/QueueOverwrite.o
 .bss.xISRQueue
                0x00000608        0x4 ./src/FreeRTOS_Demo/Full_Demo/Standard_Demo_Tasks/QueueOverwrite.o
 .bss.ulLoopCounter
                0x0000060c        0x4 ./src/FreeRTOS_Demo/Full_Demo/Standard_Demo_Tasks/QueueOverwrite.o
 .bss.ulLastNotifyCycleCount.1954
                0x00000610        0x4 ./src/FreeRTOS_Demo/Full_Demo/Standard_Demo_Tasks/TaskNotify.o
 .bss.xAPIToUse.1942
                0x00000614        0x4 ./src/FreeRTOS_Demo/Full_Demo/Standard_Demo_Tasks/TaskNotify.o
 .bss.xCallCount.1941
                0x00000618        0x4 ./src/FreeRTOS_Demo/Full_Demo/Standard_Demo_Tasks/TaskNotify.o
 .bss.ulCallCount.1925
                0x0000061c        0x4 ./src/FreeRTOS_Demo/Full_Demo/Standard_Demo_Tasks/TaskNotify.o
 .bss.uxNextRand
                0x00000620        0x4 ./src/FreeRTOS_Demo/Full_Demo/Standard_Demo_Tasks/TaskNotify.o
 .bss.xTimer    0x00000624        0x4 ./src/FreeRTOS_Demo/Full_Demo/Standard_Demo_Tasks/TaskNotify.o
 .bss.ulTimerNotificationsSent
                0x00000628        0x4 ./src/FreeRTOS_Demo/Full_Demo/Standard_Demo_Tasks/TaskNotify.o
 .bss.ulTimerNotificationsReceived
                0x0000062c        0x4 ./src/FreeRTOS_Demo/Full_Demo/Standard_Demo_Tasks/TaskNotify.o
 .bss.xTaskToNotify
                0x00000630        0x4 ./src/FreeRTOS_Demo/Full_Demo/Standard_Demo_Tasks/TaskNotify.o
 .bss.ulNotifyCycleCount
                0x00000634        0x4 ./src/FreeRTOS_Demo/Full_Demo/Standard_Demo_Tasks/TaskNotify.o
 .bss.ulLastCourseCycleCount.2136
                0x00000638        0x4 ./src/FreeRTOS_Demo/Full_Demo/Standard_Demo_Tasks/TaskNotifyArray.o
 .bss.ulCallCount.2137
                0x0000063c        0x4 ./src/FreeRTOS_Demo/Full_Demo/Standard_Demo_Tasks/TaskNotifyArray.o
 .bss.ulLastFineCycleCount.2135
                0x00000640        0x4 ./src/FreeRTOS_Demo/Full_Demo/Standard_Demo_Tasks/TaskNotifyArray.o
 .bss.uxIndexToNotify.2126
                0x00000644        0x4 ./src/FreeRTOS_Demo/Full_Demo/Standard_Demo_Tasks/TaskNotifyArray.o
 .bss.xAPIToUse.2123
                0x00000648        0x4 ./src/FreeRTOS_Demo/Full_Demo/Standard_Demo_Tasks/TaskNotifyArray.o
 .bss.uxIndexToNotify.2037
                0x0000064c        0x4 ./src/FreeRTOS_Demo/Full_Demo/Standard_Demo_Tasks/TaskNotifyArray.o
 .bss.ulCallCount.2036
                0x00000650        0x4 ./src/FreeRTOS_Demo/Full_Demo/Standard_Demo_Tasks/TaskNotifyArray.o
 .bss.uxIndexToNotify.2041
                0x00000654        0x4 ./src/FreeRTOS_Demo/Full_Demo/Standard_Demo_Tasks/TaskNotifyArray.o
 .bss.xSendNotificationFromISR
                0x00000658        0x4 ./src/FreeRTOS_Demo/Full_Demo/Standard_Demo_Tasks/TaskNotifyArray.o
 .bss.uxNextRand
                0x0000065c        0x4 ./src/FreeRTOS_Demo/Full_Demo/Standard_Demo_Tasks/TaskNotifyArray.o
 .bss.xNotifyWhileSuspendedTimer
                0x00000660        0x4 ./src/FreeRTOS_Demo/Full_Demo/Standard_Demo_Tasks/TaskNotifyArray.o
 .bss.xIncrementingIndexTimer
                0x00000664        0x4 ./src/FreeRTOS_Demo/Full_Demo/Standard_Demo_Tasks/TaskNotifyArray.o
 .bss.xTaskToNotify
                0x00000668        0x4 ./src/FreeRTOS_Demo/Full_Demo/Standard_Demo_Tasks/TaskNotifyArray.o
 .bss.ulCourseCycleCounter
                0x0000066c        0x4 ./src/FreeRTOS_Demo/Full_Demo/Standard_Demo_Tasks/TaskNotifyArray.o
 .bss.ulFineCycleCount
                0x00000670        0x4 ./src/FreeRTOS_Demo/Full_Demo/Standard_Demo_Tasks/TaskNotifyArray.o
 .bss.ulLastLoopCounter.1995
                0x00000674        0x4 ./src/FreeRTOS_Demo/Full_Demo/Standard_Demo_Tasks/TimerDemo.o
 .bss.xIterationsWithoutCounterIncrement.1998
                0x00000678        0x4 ./src/FreeRTOS_Demo/Full_Demo/Standard_Demo_Tasks/TimerDemo.o
 .bss.xLastCycleFrequency.1999
                0x0000067c        0x4 ./src/FreeRTOS_Demo/Full_Demo/Standard_Demo_Tasks/TimerDemo.o
 .bss.uxCallCount.2066
                0x00000680        0x4 ./src/FreeRTOS_Demo/Full_Demo/Standard_Demo_Tasks/TimerDemo.o
 .bss.xBasePeriod
                0x00000684        0x4 ./src/FreeRTOS_Demo/Full_Demo/Standard_Demo_Tasks/TimerDemo.o
 .bss.ucISROneShotTimerCounter
                0x00000688        0x1 ./src/FreeRTOS_Demo/Full_Demo/Standard_Demo_Tasks/TimerDemo.o
 *fill*         0x00000689        0x3 
 .bss.xISROneShotTimer
                0x0000068c        0x4 ./src/FreeRTOS_Demo/Full_Demo/Standard_Demo_Tasks/TimerDemo.o
 .bss.ucISRAutoReloadTimerCounter
                0x00000690        0x1 ./src/FreeRTOS_Demo/Full_Demo/Standard_Demo_Tasks/TimerDemo.o
 *fill*         0x00000691        0x3 
 .bss.xISRAutoReloadTimer
                0x00000694        0x4 ./src/FreeRTOS_Demo/Full_Demo/Standard_Demo_Tasks/TimerDemo.o
 .bss.ucOneShotTimerCounter
                0x00000698        0x1 ./src/FreeRTOS_Demo/Full_Demo/Standard_Demo_Tasks/TimerDemo.o
 *fill*         0x00000699        0x3 
 .bss.xOneShotTimer
                0x0000069c        0x4 ./src/FreeRTOS_Demo/Full_Demo/Standard_Demo_Tasks/TimerDemo.o
 .bss.ucAutoReloadTimerCounters
                0x000006a0        0x6 ./src/FreeRTOS_Demo/Full_Demo/Standard_Demo_Tasks/TimerDemo.o
 *fill*         0x000006a6        0x2 
 .bss.xAutoReloadTimers
                0x000006a8       0x18 ./src/FreeRTOS_Demo/Full_Demo/Standard_Demo_Tasks/TimerDemo.o
 .bss.ulLoopCounter
                0x000006c0        0x4 ./src/FreeRTOS_Demo/Full_Demo/Standard_Demo_Tasks/TimerDemo.o
 .bss.xLastSecondaryCycleCount.2013
                0x000006c4        0x4 ./src/FreeRTOS_Demo/Full_Demo/Standard_Demo_Tasks/blocktim.o
 .bss.xLastPrimaryCycleCount.2012
                0x000006c8        0x4 ./src/FreeRTOS_Demo/Full_Demo/Standard_Demo_Tasks/blocktim.o
 .bss.xRunIndicator
                0x000006cc        0x4 ./src/FreeRTOS_Demo/Full_Demo/Standard_Demo_Tasks/blocktim.o
 .bss.xErrorOccurred
                0x000006d0        0x4 ./src/FreeRTOS_Demo/Full_Demo/Standard_Demo_Tasks/blocktim.o
 .bss.xSecondaryCycles
                0x000006d4        0x4 ./src/FreeRTOS_Demo/Full_Demo/Standard_Demo_Tasks/blocktim.o
 .bss.xPrimaryCycles
                0x000006d8        0x4 ./src/FreeRTOS_Demo/Full_Demo/Standard_Demo_Tasks/blocktim.o
 .bss.xSecondary
                0x000006dc        0x4 ./src/FreeRTOS_Demo/Full_Demo/Standard_Demo_Tasks/blocktim.o
 .bss.xTestQueue
                0x000006e0        0x4 ./src/FreeRTOS_Demo/Full_Demo/Standard_Demo_Tasks/blocktim.o
 .bss.uxLastCount1.1978
                0x000006e4        0x4 ./src/FreeRTOS_Demo/Full_Demo/Standard_Demo_Tasks/countsem.o
 .bss.uxLastCount0.1977
                0x000006e8        0x4 ./src/FreeRTOS_Demo/Full_Demo/Standard_Demo_Tasks/countsem.o
 .bss.xParameters
                0x000006ec       0x18 ./src/FreeRTOS_Demo/Full_Demo/Standard_Demo_Tasks/countsem.o
 .bss.xErrorDetected
                0x00000704        0x4 ./src/FreeRTOS_Demo/Full_Demo/Standard_Demo_Tasks/countsem.o
 .bss.uxTasksRunningAtStart
                0x00000708        0x4 ./src/FreeRTOS_Demo/Full_Demo/Standard_Demo_Tasks/death.o
 .bss.usCreationCount
                0x0000070c        0x2 ./src/FreeRTOS_Demo/Full_Demo/Standard_Demo_Tasks/death.o
 *fill*         0x0000070e        0x2 
 .bss.ulLastExpectedValue.2062
                0x00000710        0x4 ./src/FreeRTOS_Demo/Full_Demo/Standard_Demo_Tasks/dynamic.o
 .bss.usLastTaskCheck.2061
                0x00000714        0x2 ./src/FreeRTOS_Demo/Full_Demo/Standard_Demo_Tasks/dynamic.o
 *fill*         0x00000716        0x2 
 .bss.ulValueToSend.2048
                0x00000718        0x4 ./src/FreeRTOS_Demo/Full_Demo/Standard_Demo_Tasks/dynamic.o
 .bss.ulExpectedValue
                0x0000071c        0x4 ./src/FreeRTOS_Demo/Full_Demo/Standard_Demo_Tasks/dynamic.o
 .bss.xSuspendedQueueReceiveError
                0x00000720        0x4 ./src/FreeRTOS_Demo/Full_Demo/Standard_Demo_Tasks/dynamic.o
 .bss.xSuspendedQueueSendError
                0x00000724        0x4 ./src/FreeRTOS_Demo/Full_Demo/Standard_Demo_Tasks/dynamic.o
 .bss.usCheckVariable
                0x00000728        0x2 ./src/FreeRTOS_Demo/Full_Demo/Standard_Demo_Tasks/dynamic.o
 *fill*         0x0000072a        0x2 
 .bss.ulCounter
                0x0000072c        0x4 ./src/FreeRTOS_Demo/Full_Demo/Standard_Demo_Tasks/dynamic.o
 .bss.xLimitedIncrementHandle
                0x00000730        0x4 ./src/FreeRTOS_Demo/Full_Demo/Standard_Demo_Tasks/dynamic.o
 .bss.xContinuousIncrementHandle
                0x00000734        0x4 ./src/FreeRTOS_Demo/Full_Demo/Standard_Demo_Tasks/dynamic.o
 .bss.usTaskCheck
                0x00000738        0x8 ./src/FreeRTOS_Demo/Full_Demo/Standard_Demo_Tasks/flop.o
 .bss.uxLastPollingCycles.1978
                0x00000740        0x4 ./src/FreeRTOS_Demo/Full_Demo/Standard_Demo_Tasks/recmutex.o
 .bss.uxLastBlockingCycles.1977
                0x00000744        0x4 ./src/FreeRTOS_Demo/Full_Demo/Standard_Demo_Tasks/recmutex.o
 .bss.uxLastControllingCycles.1976
                0x00000748        0x4 ./src/FreeRTOS_Demo/Full_Demo/Standard_Demo_Tasks/recmutex.o
 .bss.xBlockingTaskHandle
                0x0000074c        0x4 ./src/FreeRTOS_Demo/Full_Demo/Standard_Demo_Tasks/recmutex.o
 .bss.xControllingTaskHandle
                0x00000750        0x4 ./src/FreeRTOS_Demo/Full_Demo/Standard_Demo_Tasks/recmutex.o
 .bss.uxPollingCycles
                0x00000754        0x4 ./src/FreeRTOS_Demo/Full_Demo/Standard_Demo_Tasks/recmutex.o
 .bss.uxBlockingCycles
                0x00000758        0x4 ./src/FreeRTOS_Demo/Full_Demo/Standard_Demo_Tasks/recmutex.o
 .bss.uxControllingCycles
                0x0000075c        0x4 ./src/FreeRTOS_Demo/Full_Demo/Standard_Demo_Tasks/recmutex.o
 .bss.xBlockingIsSuspended
                0x00000760        0x4 ./src/FreeRTOS_Demo/Full_Demo/Standard_Demo_Tasks/recmutex.o
 .bss.xControllingIsSuspended
                0x00000764        0x4 ./src/FreeRTOS_Demo/Full_Demo/Standard_Demo_Tasks/recmutex.o
 .bss.xErrorOccurred
                0x00000768        0x4 ./src/FreeRTOS_Demo/Full_Demo/Standard_Demo_Tasks/recmutex.o
 .bss.xMutex    0x0000076c        0x4 ./src/FreeRTOS_Demo/Full_Demo/Standard_Demo_Tasks/recmutex.o
 .bss.sLastCheckVariables.2034
                0x00000770        0x8 ./src/FreeRTOS_Demo/Full_Demo/Standard_Demo_Tasks/semtest.o
 .bss.sNextCheckVariable
                0x00000778        0x2 ./src/FreeRTOS_Demo/Full_Demo/Standard_Demo_Tasks/semtest.o
 .bss.sCheckVariables
                0x0000077a        0x8 ./src/FreeRTOS_Demo/Full_Demo/Standard_Demo_Tasks/semtest.o
 *fill*         0x00000782        0x2 
 .bss.pxCommand.1934
                0x00000784        0x4 ./src/FreeRTOS_Demo/Full_Demo/FreeRTOS-Plus-CLI/FreeRTOS_CLI.o
 .bss.pxCommand.1968
                0x00000788        0x4 ./src/FreeRTOS_Demo/Full_Demo/FreeRTOS-Plus-CLI/FreeRTOS_CLI.o
 .bss.cOutputBuffer
                0x0000078c      0xdac ./src/FreeRTOS_Demo/Full_Demo/FreeRTOS-Plus-CLI/FreeRTOS_CLI.o
 .bss.uxParameterNumber.2056
                0x00001538        0x4 ./src/FreeRTOS_Demo/Full_Demo/Sample-CLI-commands.o
 .bss.uxParameterNumber.2065
                0x0000153c        0x4 ./src/FreeRTOS_Demo/Full_Demo/Sample-CLI-commands.o
 .bss.cLastInputString.2150
                0x00001540       0x32 ./src/FreeRTOS_Demo/Full_Demo/UARTCommandConsole.o
 .bss.cInputString.2149
                0x00001572       0x32 ./src/FreeRTOS_Demo/Full_Demo/UARTCommandConsole.o
 .bss.xTxMutex  0x000015a4        0x4 ./src/FreeRTOS_Demo/Full_Demo/UARTCommandConsole.o
 .bss.ulRegTest2LoopCounter
                0x000015a8        0x4 ./src/FreeRTOS_Demo/Full_Demo/main_full.o
                0x000015a8                ulRegTest2LoopCounter
 .bss.ulRegTest1LoopCounter
                0x000015ac        0x4 ./src/FreeRTOS_Demo/Full_Demo/main_full.o
                0x000015ac                ulRegTest1LoopCounter
 .bss.xSendingTask
                0x000015b0        0x4 ./src/FreeRTOS_Demo/Full_Demo/serial.o
 .bss.xRxQueue  0x000015b4        0x4 ./src/FreeRTOS_Demo/Full_Demo/serial.o
 .bss.xBlockAllocatedBit
                0x000015b8        0x4 ./src/FreeRTOS/Source/portable/MemMang/heap_4.o
 .bss.xNumberOfSuccessfulFrees
                0x000015bc        0x4 ./src/FreeRTOS/Source/portable/MemMang/heap_4.o
 .bss.xNumberOfSuccessfulAllocations
                0x000015c0        0x4 ./src/FreeRTOS/Source/portable/MemMang/heap_4.o
 .bss.xMinimumEverFreeBytesRemaining
                0x000015c4        0x4 ./src/FreeRTOS/Source/portable/MemMang/heap_4.o
 .bss.xFreeBytesRemaining
                0x000015c8        0x4 ./src/FreeRTOS/Source/portable/MemMang/heap_4.o
 .bss.pxEnd     0x000015cc        0x4 ./src/FreeRTOS/Source/portable/MemMang/heap_4.o
 .bss.xStart    0x000015d0        0x8 ./src/FreeRTOS/Source/portable/MemMang/heap_4.o
 .bss.ucHeap    0x000015d8     0xa000 ./src/FreeRTOS/Source/portable/MemMang/heap_4.o
 .bss.uxSchedulerSuspended
                0x0000b5d8        0x4 ./src/FreeRTOS/Source/tasks.o
 .bss.xIdleTaskHandle
                0x0000b5dc        0x4 ./src/FreeRTOS/Source/tasks.o
 .bss.xNextTaskUnblockTime
                0x0000b5e0        0x4 ./src/FreeRTOS/Source/tasks.o
 .bss.uxTaskNumber
                0x0000b5e4        0x4 ./src/FreeRTOS/Source/tasks.o
 .bss.xNumOfOverflows
                0x0000b5e8        0x4 ./src/FreeRTOS/Source/tasks.o
 .bss.xYieldPending
                0x0000b5ec        0x4 ./src/FreeRTOS/Source/tasks.o
 .bss.xPendedTicks
                0x0000b5f0        0x4 ./src/FreeRTOS/Source/tasks.o
 .bss.xSchedulerRunning
                0x0000b5f4        0x4 ./src/FreeRTOS/Source/tasks.o
 .bss.uxTopReadyPriority
                0x0000b5f8        0x4 ./src/FreeRTOS/Source/tasks.o
 .bss.xTickCount
                0x0000b5fc        0x4 ./src/FreeRTOS/Source/tasks.o
 .bss.uxCurrentNumberOfTasks
                0x0000b600        0x4 ./src/FreeRTOS/Source/tasks.o
 .bss.xSuspendedTaskList
                0x0000b604       0x14 ./src/FreeRTOS/Source/tasks.o
 .bss.uxDeletedTasksWaitingCleanUp
                0x0000b618        0x4 ./src/FreeRTOS/Source/tasks.o
 .bss.xTasksWaitingTermination
                0x0000b61c       0x14 ./src/FreeRTOS/Source/tasks.o
 .bss.xPendingReadyList
                0x0000b630       0x14 ./src/FreeRTOS/Source/tasks.o
 .bss.pxOverflowDelayedTaskList
                0x0000b644        0x4 ./src/FreeRTOS/Source/tasks.o
 .bss.pxDelayedTaskList
                0x0000b648        0x4 ./src/FreeRTOS/Source/tasks.o
 .bss.xDelayedTaskList2
                0x0000b64c       0x14 ./src/FreeRTOS/Source/tasks.o
 .bss.xDelayedTaskList1
                0x0000b660       0x14 ./src/FreeRTOS/Source/tasks.o
 .bss.pxReadyTasksLists
                0x0000b674       0x8c ./src/FreeRTOS/Source/tasks.o
 .bss.pxCurrentTCB
                0x0000b700        0x4 ./src/FreeRTOS/Source/tasks.o
                0x0000b700                pxCurrentTCB
 .bss.xLastTime.2196
                0x0000b704        0x4 ./src/FreeRTOS/Source/timers.o
 .bss.xTimerTaskHandle
                0x0000b708        0x4 ./src/FreeRTOS/Source/timers.o
 .bss.xTimerQueue
                0x0000b70c        0x4 ./src/FreeRTOS/Source/timers.o
 .bss.pxOverflowTimerList
                0x0000b710        0x4 ./src/FreeRTOS/Source/timers.o
 .bss.pxCurrentTimerList
                0x0000b714        0x4 ./src/FreeRTOS/Source/timers.o
 .bss.xActiveTimerList2
                0x0000b718       0x14 ./src/FreeRTOS/Source/timers.o
 .bss.xActiveTimerList1
                0x0000b72c       0x14 ./src/FreeRTOS/Source/timers.o
 .bss.__malloc_free_list
                0x0000b740        0x4 c:/renesas/gcc/redhat/gnurx-elf/8.3.0.202002/rx-elf/rx-elf/bin/../lib/gcc/rx-elf/8.3.0.202002-GNURX/../../../../rx-elf/lib/no-fpu-libs\libc_nano.a(lib_a-nano-mallocr.o)
                0x0000b740                __malloc_free_list
 .bss.__malloc_sbrk_start
                0x0000b744        0x4 c:/renesas/gcc/redhat/gnurx-elf/8.3.0.202002/rx-elf/rx-elf/bin/../lib/gcc/rx-elf/8.3.0.202002-GNURX/../../../../rx-elf/lib/no-fpu-libs\libc_nano.a(lib_a-nano-mallocr.o)
                0x0000b744                __malloc_sbrk_start
 .bss.errno     0x0000b748        0x4 c:/renesas/gcc/redhat/gnurx-elf/8.3.0.202002/rx-elf/rx-elf/bin/../lib/gcc/rx-elf/8.3.0.202002-GNURX/../../../../rx-elf/lib/no-fpu-libs\libc_nano.a(lib_a-reent.o)
                0x0000b748                errno
 *(COMMON)
 COMMON         0x0000b74c        0x8 ./src/smc_workaround/r_dtc_rx_patch/r_dtc_rx.o
                0x0000b74c                gp_dtc_table_work
 COMMON         0x0000b754       0xe4 ./src/smc_gen/r_bsp/mcu/all/mcu_locks.o
                0x0000b754                g_bsp_Locks
 COMMON         0x0000b838       0x14 ./src/smc_gen/general/r_cg_hardware_setup.o
                0x0000b838                xSerialSciHandle
                0x0000b83c                xSerialTxDtcInfo
 COMMON         0x0000b84c       0x10 ./src/FreeRTOS_Demo/Full_Demo/Standard_Demo_Tasks/IntQueue.o
                0x0000b84c                xHighPriorityNormallyFullTask1
                0x0000b850                xHighPriorityNormallyEmptyTask2
                0x0000b854                xHighPriorityNormallyFullTask2
                0x0000b858                xHighPriorityNormallyEmptyTask1
 COMMON         0x0000b85c        0x4 ./src/FreeRTOS_Demo/Full_Demo/Standard_Demo_Tasks/death.o
                0x0000b85c                xCreatedTask
 COMMON         0x0000b860        0x4 ./src/FreeRTOS_Demo/Full_Demo/Standard_Demo_Tasks/dynamic.o
                0x0000b860                xSuspendedTestQueue
 *(B)
 *(B_1)
 *(B_2)
                0x0000b864                _ebss = .
                0x0000b864                _end = .

.r_bsp_NULL     0x0000b864      0x100 load address 0xfff99ee4
                0x0000b964                . = (. + 0x100)
 *fill*         0x0000b864      0x100 
                0x0000b964                _r_bsp_NULL_end = .

.r_bsp_istack   0x0000b964      0x400 load address 0xfff99fe4
 *(.r_bsp_istack)
 .r_bsp_istack  0x0000b964      0x400 ./src/smc_gen/r_bsp/mcu/all/resetprg.o

.istack         0x0000bd64        0x0
                0x0000bd64                _istack = .

.r_bsp_ustack
 *(.r_bsp_ustack)

.ustack         0x0000bd64        0x0
                0x0000bd64                _ustack = .
OUTPUT(RTOSDemo.elf elf32-rx-le)

.debug_frame    0x00000000     0x338c
 .debug_frame   0x00000000       0xd8 ./src/smc_workaround/r_dtc_rx_patch/r_dtc_rx.o
 .debug_frame   0x000000d8       0x54 ./src/smc_workaround/r_dtc_rx_patch/r_dtc_rx_target.o
 .debug_frame   0x0000012c       0x44 ./src/smc_workaround/FIT_patch.o
 .debug_frame   0x00000170       0x24 ./src/smc_workaround/u_sci_rx_ext.o
 .debug_frame   0x00000194      0x15c ./src/smc_gen/r_sci_rx/src/targets/rx130/r_sci_rx130.o
 .debug_frame   0x000002f0      0x1bc ./src/smc_gen/r_sci_rx/src/r_sci_rx.o
 .debug_frame   0x000004ac       0x24 ./src/smc_gen/r_pincfg/r_sci_rx_pinset.o
 .debug_frame   0x000004d0       0xc4 ./src/smc_gen/r_gpio_rx/src/r_gpio_rx.o
 .debug_frame   0x00000594       0x94 ./src/smc_gen/r_byteq/src/r_byteq.o
 .debug_frame   0x00000628       0x40 ./src/smc_gen/r_bsp/mcu/rx130/mcu_clocks.o
 .debug_frame   0x00000668       0x3c ./src/smc_gen/r_bsp/mcu/rx130/mcu_init.o
 .debug_frame   0x000006a4       0x24 ./src/smc_gen/r_bsp/mcu/rx130/mcu_interrupts.o
 .debug_frame   0x000006c8       0x34 ./src/smc_gen/r_bsp/mcu/all/lowlvl.o
 .debug_frame   0x000006fc       0x6c ./src/smc_gen/r_bsp/mcu/all/r_bsp_common.o
 .debug_frame   0x00000768       0xc4 ./src/smc_gen/r_bsp/mcu/all/r_bsp_cpu.o
 .debug_frame   0x0000082c      0x1a4 ./src/smc_gen/r_bsp/mcu/all/r_bsp_interrupts.o
 .debug_frame   0x000009d0       0x70 ./src/smc_gen/r_bsp/mcu/all/r_bsp_locking.o
 .debug_frame   0x00000a40      0x2a0 ./src/smc_gen/r_bsp/mcu/all/r_rx_intrinsic_functions.o
 .debug_frame   0x00000ce0       0x24 ./src/smc_gen/r_bsp/mcu/all/resetprg.o
 .debug_frame   0x00000d04       0x24 ./src/smc_gen/r_bsp/board/generic_rx130/hwsetup.o
 .debug_frame   0x00000d28       0x84 ./src/smc_gen/general/r_cg_hardware_setup.o
 .debug_frame   0x00000dac       0x24 ./src/smc_gen/general/r_smc_cgc.o
 .debug_frame   0x00000dd0       0x24 ./src/smc_gen/general/r_smc_cgc_user.o
 .debug_frame   0x00000df4      0x10c ./src/frtos_startup/freertos_start.o
 .debug_frame   0x00000f00       0xb8 ./src/FreeRTOS_Demo/Full_Demo/Standard_Demo_Tasks/BlockQ.o
 .debug_frame   0x00000fb8       0xec ./src/FreeRTOS_Demo/Full_Demo/Standard_Demo_Tasks/EventGroupsDemo.o
 .debug_frame   0x000010a4       0xdc ./src/FreeRTOS_Demo/Full_Demo/Standard_Demo_Tasks/GenQTest.o
 .debug_frame   0x00001180      0x178 ./src/FreeRTOS_Demo/Full_Demo/Standard_Demo_Tasks/IntQueue.o
 .debug_frame   0x000012f8       0xd8 ./src/FreeRTOS_Demo/Full_Demo/Standard_Demo_Tasks/IntSemTest.o
 .debug_frame   0x000013d0       0x98 ./src/FreeRTOS_Demo/Full_Demo/Standard_Demo_Tasks/QueueOverwrite.o
 .debug_frame   0x00001468       0xe4 ./src/FreeRTOS_Demo/Full_Demo/Standard_Demo_Tasks/TaskNotify.o
 .debug_frame   0x0000154c       0xfc ./src/FreeRTOS_Demo/Full_Demo/Standard_Demo_Tasks/TaskNotifyArray.o
 .debug_frame   0x00001648      0x104 ./src/FreeRTOS_Demo/Full_Demo/Standard_Demo_Tasks/TimerDemo.o
 .debug_frame   0x0000174c       0x98 ./src/FreeRTOS_Demo/Full_Demo/Standard_Demo_Tasks/blocktim.o
 .debug_frame   0x000017e4       0x90 ./src/FreeRTOS_Demo/Full_Demo/Standard_Demo_Tasks/countsem.o
 .debug_frame   0x00001874       0xa0 ./src/FreeRTOS_Demo/Full_Demo/Standard_Demo_Tasks/death.o
 .debug_frame   0x00001914       0xf8 ./src/FreeRTOS_Demo/Full_Demo/Standard_Demo_Tasks/dynamic.o
 .debug_frame   0x00001a0c      0x104 ./src/FreeRTOS_Demo/Full_Demo/Standard_Demo_Tasks/flop.o
 .debug_frame   0x00001b10       0xb4 ./src/FreeRTOS_Demo/Full_Demo/Standard_Demo_Tasks/recmutex.o
 .debug_frame   0x00001bc4       0x8c ./src/FreeRTOS_Demo/Full_Demo/Standard_Demo_Tasks/semtest.o
 .debug_frame   0x00001c50       0x9c ./src/FreeRTOS_Demo/Full_Demo/FreeRTOS-Plus-CLI/FreeRTOS_CLI.o
 .debug_frame   0x00001cec       0x7c ./src/FreeRTOS_Demo/Full_Demo/IntQueueTimer.o
 .debug_frame   0x00001d68       0xc0 ./src/FreeRTOS_Demo/Full_Demo/Sample-CLI-commands.o
 .debug_frame   0x00001e28       0x8c ./src/FreeRTOS_Demo/Full_Demo/UARTCommandConsole.o
 .debug_frame   0x00001eb4       0xcc ./src/FreeRTOS_Demo/Full_Demo/main_full.o
 .debug_frame   0x00001f80       0xa4 ./src/FreeRTOS_Demo/Full_Demo/serial.o
 .debug_frame   0x00002024       0xd0 ./src/FreeRTOS/Source/portable/MemMang/heap_4.o
 .debug_frame   0x000020f4       0xb0 ./src/FreeRTOS/Source/portable/GCC/RX100/port.o
 .debug_frame   0x000021a4      0x188 ./src/FreeRTOS/Source/event_groups.o
 .debug_frame   0x0000232c       0x64 ./src/FreeRTOS/Source/list.o
 .debug_frame   0x00002390      0x430 ./src/FreeRTOS/Source/queue.o
 .debug_frame   0x000027c0      0x274 ./src/FreeRTOS/Source/stream_buffer.o
 .debug_frame   0x00002a34      0x718 ./src/FreeRTOS/Source/tasks.o
 .debug_frame   0x0000314c      0x240 ./src/FreeRTOS/Source/timers.o

.debug_info     0x00000000    0x41028
 .debug_info    0x00000000     0x1bd7 ./src/smc_workaround/r_dtc_rx_patch/r_dtc_rx.o
 .debug_info    0x00001bd7     0x1737 ./src/smc_workaround/r_dtc_rx_patch/r_dtc_rx_target.o
 .debug_info    0x0000330e      0x1b1 ./src/smc_workaround/FIT_patch.o
 .debug_info    0x000034bf     0x13b1 ./src/smc_workaround/u_sci_rx_ext.o
 .debug_info    0x00004870     0x18e7 ./src/smc_gen/r_sci_rx/src/targets/rx130/r_sci_rx130.o
 .debug_info    0x00006157     0x3dc8 ./src/smc_gen/r_sci_rx/src/targets/rx130/r_sci_rx130_data.o
 .debug_info    0x00009f1f     0x2249 ./src/smc_gen/r_sci_rx/src/r_sci_rx.o
 .debug_info    0x0000c168     0x2a48 ./src/smc_gen/r_pincfg/r_sci_rx_pinset.o
 .debug_info    0x0000ebb0     0x1510 ./src/smc_gen/r_gpio_rx/src/r_gpio_rx.o
 .debug_info    0x000100c0      0x403 ./src/smc_gen/r_byteq/src/r_byteq.o
 .debug_info    0x000104c3     0x1e30 ./src/smc_gen/r_bsp/mcu/rx130/mcu_clocks.o
 .debug_info    0x000122f3     0x3f9c ./src/smc_gen/r_bsp/mcu/rx130/mcu_init.o
 .debug_info    0x0001628f     0x12fe ./src/smc_gen/r_bsp/mcu/rx130/mcu_interrupts.o
 .debug_info    0x0001758d       0xfc ./src/smc_gen/r_bsp/mcu/rx130/vecttbl.o
 .debug_info    0x00017689      0x197 ./src/smc_gen/r_bsp/mcu/all/lowlvl.o
 .debug_info    0x00017820      0x24e ./src/smc_gen/r_bsp/mcu/all/mcu_locks.o
 .debug_info    0x00017a6e      0x25e ./src/smc_gen/r_bsp/mcu/all/r_bsp_common.o
 .debug_info    0x00017ccc     0x35db ./src/smc_gen/r_bsp/mcu/all/r_bsp_cpu.o
 .debug_info    0x0001b2a7     0x16ac ./src/smc_gen/r_bsp/mcu/all/r_bsp_interrupts.o
 .debug_info    0x0001c953      0x3a3 ./src/smc_gen/r_bsp/mcu/all/r_bsp_locking.o
 .debug_info    0x0001ccf6      0x8ac ./src/smc_gen/r_bsp/mcu/all/r_rx_intrinsic_functions.o
 .debug_info    0x0001d5a2       0xb2 ./src/smc_gen/r_bsp/mcu/all/reset_program.o
 .debug_info    0x0001d654      0x40b ./src/smc_gen/r_bsp/mcu/all/resetprg.o
 .debug_info    0x0001da5f      0x16e ./src/smc_gen/r_bsp/board/generic_rx130/hwsetup.o
 .debug_info    0x0001dbcd     0x3ddc ./src/smc_gen/general/r_cg_hardware_setup.o
 .debug_info    0x000219a9      0x109 ./src/smc_gen/general/r_smc_cgc.o
 .debug_info    0x00021ab2       0xef ./src/smc_gen/general/r_smc_cgc_user.o
 .debug_info    0x00021ba1     0x3063 ./src/frtos_startup/freertos_start.o
 .debug_info    0x00024c04      0x5d1 ./src/FreeRTOS_Demo/Full_Demo/Standard_Demo_Tasks/BlockQ.o
 .debug_info    0x000251d5      0xf12 ./src/FreeRTOS_Demo/Full_Demo/Standard_Demo_Tasks/EventGroupsDemo.o
 .debug_info    0x000260e7      0xb51 ./src/FreeRTOS_Demo/Full_Demo/Standard_Demo_Tasks/GenQTest.o
 .debug_info    0x00026c38     0x1472 ./src/FreeRTOS_Demo/Full_Demo/Standard_Demo_Tasks/IntQueue.o
 .debug_info    0x000280aa      0x920 ./src/FreeRTOS_Demo/Full_Demo/Standard_Demo_Tasks/IntSemTest.o
 .debug_info    0x000289ca      0x47c ./src/FreeRTOS_Demo/Full_Demo/Standard_Demo_Tasks/QueueOverwrite.o
 .debug_info    0x00028e46     0x1160 ./src/FreeRTOS_Demo/Full_Demo/Standard_Demo_Tasks/TaskNotify.o
 .debug_info    0x00029fa6     0x1999 ./src/FreeRTOS_Demo/Full_Demo/Standard_Demo_Tasks/TaskNotifyArray.o
 .debug_info    0x0002b93f      0xde5 ./src/FreeRTOS_Demo/Full_Demo/Standard_Demo_Tasks/TimerDemo.o
 .debug_info    0x0002c724      0x709 ./src/FreeRTOS_Demo/Full_Demo/Standard_Demo_Tasks/blocktim.o
 .debug_info    0x0002ce2d      0x50f ./src/FreeRTOS_Demo/Full_Demo/Standard_Demo_Tasks/countsem.o
 .debug_info    0x0002d33c      0x3b9 ./src/FreeRTOS_Demo/Full_Demo/Standard_Demo_Tasks/death.o
 .debug_info    0x0002d6f5      0x79c ./src/FreeRTOS_Demo/Full_Demo/Standard_Demo_Tasks/dynamic.o
 .debug_info    0x0002de91      0x4d0 ./src/FreeRTOS_Demo/Full_Demo/Standard_Demo_Tasks/flop.o
 .debug_info    0x0002e361      0x55c ./src/FreeRTOS_Demo/Full_Demo/Standard_Demo_Tasks/recmutex.o
 .debug_info    0x0002e8bd      0x515 ./src/FreeRTOS_Demo/Full_Demo/Standard_Demo_Tasks/semtest.o
 .debug_info    0x0002edd2      0x554 ./src/FreeRTOS_Demo/Full_Demo/FreeRTOS-Plus-CLI/FreeRTOS_CLI.o
 .debug_info    0x0002f326     0x2976 ./src/FreeRTOS_Demo/Full_Demo/IntQueueTimer.o
 .debug_info    0x00031c9c      0x575 ./src/FreeRTOS_Demo/Full_Demo/Sample-CLI-commands.o
 .debug_info    0x00032211      0x504 ./src/FreeRTOS_Demo/Full_Demo/UARTCommandConsole.o
 .debug_info    0x00032715      0x946 ./src/FreeRTOS_Demo/Full_Demo/main_full.o
 .debug_info    0x0003305b     0x13c2 ./src/FreeRTOS_Demo/Full_Demo/serial.o
 .debug_info    0x0003441d      0x57b ./src/FreeRTOS/Source/portable/MemMang/heap_4.o
 .debug_info    0x00034998     0x274f ./src/FreeRTOS/Source/portable/GCC/RX100/port.o
 .debug_info    0x000370e7      0xcdf ./src/FreeRTOS/Source/event_groups.o
 .debug_info    0x00037dc6      0x2ac ./src/FreeRTOS/Source/list.o
 .debug_info    0x00038072     0x2702 ./src/FreeRTOS/Source/queue.o
 .debug_info    0x0003a774     0x1791 ./src/FreeRTOS/Source/stream_buffer.o
 .debug_info    0x0003bf05     0x3b2f ./src/FreeRTOS/Source/tasks.o
 .debug_info    0x0003fa34     0x15f4 ./src/FreeRTOS/Source/timers.o

.debug_abbrev   0x00000000     0x7d19
 .debug_abbrev  0x00000000      0x4b7 ./src/smc_workaround/r_dtc_rx_patch/r_dtc_rx.o
 .debug_abbrev  0x000004b7      0x250 ./src/smc_workaround/r_dtc_rx_patch/r_dtc_rx_target.o
 .debug_abbrev  0x00000707      0x12d ./src/smc_workaround/FIT_patch.o
 .debug_abbrev  0x00000834      0x238 ./src/smc_workaround/u_sci_rx_ext.o
 .debug_abbrev  0x00000a6c      0x40c ./src/smc_gen/r_sci_rx/src/targets/rx130/r_sci_rx130.o
 .debug_abbrev  0x00000e78      0x237 ./src/smc_gen/r_sci_rx/src/targets/rx130/r_sci_rx130_data.o
 .debug_abbrev  0x000010af      0x404 ./src/smc_gen/r_sci_rx/src/r_sci_rx.o
 .debug_abbrev  0x000014b3      0x1b3 ./src/smc_gen/r_pincfg/r_sci_rx_pinset.o
 .debug_abbrev  0x00001666      0x372 ./src/smc_gen/r_gpio_rx/src/r_gpio_rx.o
 .debug_abbrev  0x000019d8      0x1b1 ./src/smc_gen/r_byteq/src/r_byteq.o
 .debug_abbrev  0x00001b89      0x287 ./src/smc_gen/r_bsp/mcu/rx130/mcu_clocks.o
 .debug_abbrev  0x00001e10      0x144 ./src/smc_gen/r_bsp/mcu/rx130/mcu_init.o
 .debug_abbrev  0x00001f54      0x280 ./src/smc_gen/r_bsp/mcu/rx130/mcu_interrupts.o
 .debug_abbrev  0x000021d4       0xb3 ./src/smc_gen/r_bsp/mcu/rx130/vecttbl.o
 .debug_abbrev  0x00002287       0xfc ./src/smc_gen/r_bsp/mcu/all/lowlvl.o
 .debug_abbrev  0x00002383       0xc2 ./src/smc_gen/r_bsp/mcu/all/mcu_locks.o
 .debug_abbrev  0x00002445      0x1bd ./src/smc_gen/r_bsp/mcu/all/r_bsp_common.o
 .debug_abbrev  0x00002602      0x2c2 ./src/smc_gen/r_bsp/mcu/all/r_bsp_cpu.o
 .debug_abbrev  0x000028c4      0x43a ./src/smc_gen/r_bsp/mcu/all/r_bsp_interrupts.o
 .debug_abbrev  0x00002cfe      0x1a0 ./src/smc_gen/r_bsp/mcu/all/r_bsp_locking.o
 .debug_abbrev  0x00002e9e      0x21a ./src/smc_gen/r_bsp/mcu/all/r_rx_intrinsic_functions.o
 .debug_abbrev  0x000030b8       0x14 ./src/smc_gen/r_bsp/mcu/all/reset_program.o
 .debug_abbrev  0x000030cc      0x137 ./src/smc_gen/r_bsp/mcu/all/resetprg.o
 .debug_abbrev  0x00003203      0x118 ./src/smc_gen/r_bsp/board/generic_rx130/hwsetup.o
 .debug_abbrev  0x0000331b      0x31f ./src/smc_gen/general/r_cg_hardware_setup.o
 .debug_abbrev  0x0000363a       0xd8 ./src/smc_gen/general/r_smc_cgc.o
 .debug_abbrev  0x00003712       0xb5 ./src/smc_gen/general/r_smc_cgc_user.o
 .debug_abbrev  0x000037c7      0x39b ./src/frtos_startup/freertos_start.o
 .debug_abbrev  0x00003b62      0x1a9 ./src/FreeRTOS_Demo/Full_Demo/Standard_Demo_Tasks/BlockQ.o
 .debug_abbrev  0x00003d0b      0x268 ./src/FreeRTOS_Demo/Full_Demo/Standard_Demo_Tasks/EventGroupsDemo.o
 .debug_abbrev  0x00003f73      0x1dc ./src/FreeRTOS_Demo/Full_Demo/Standard_Demo_Tasks/GenQTest.o
 .debug_abbrev  0x0000414f      0x253 ./src/FreeRTOS_Demo/Full_Demo/Standard_Demo_Tasks/IntQueue.o
 .debug_abbrev  0x000043a2      0x21c ./src/FreeRTOS_Demo/Full_Demo/Standard_Demo_Tasks/IntSemTest.o
 .debug_abbrev  0x000045be      0x157 ./src/FreeRTOS_Demo/Full_Demo/Standard_Demo_Tasks/QueueOverwrite.o
 .debug_abbrev  0x00004715      0x243 ./src/FreeRTOS_Demo/Full_Demo/Standard_Demo_Tasks/TaskNotify.o
 .debug_abbrev  0x00004958      0x291 ./src/FreeRTOS_Demo/Full_Demo/Standard_Demo_Tasks/TaskNotifyArray.o
 .debug_abbrev  0x00004be9      0x2a6 ./src/FreeRTOS_Demo/Full_Demo/Standard_Demo_Tasks/TimerDemo.o
 .debug_abbrev  0x00004e8f      0x1e3 ./src/FreeRTOS_Demo/Full_Demo/Standard_Demo_Tasks/blocktim.o
 .debug_abbrev  0x00005072      0x1f9 ./src/FreeRTOS_Demo/Full_Demo/Standard_Demo_Tasks/countsem.o
 .debug_abbrev  0x0000526b      0x17e ./src/FreeRTOS_Demo/Full_Demo/Standard_Demo_Tasks/death.o
 .debug_abbrev  0x000053e9      0x1c0 ./src/FreeRTOS_Demo/Full_Demo/Standard_Demo_Tasks/dynamic.o
 .debug_abbrev  0x000055a9      0x1ba ./src/FreeRTOS_Demo/Full_Demo/Standard_Demo_Tasks/flop.o
 .debug_abbrev  0x00005763      0x19c ./src/FreeRTOS_Demo/Full_Demo/Standard_Demo_Tasks/recmutex.o
 .debug_abbrev  0x000058ff      0x181 ./src/FreeRTOS_Demo/Full_Demo/Standard_Demo_Tasks/semtest.o
 .debug_abbrev  0x00005a80      0x21c ./src/FreeRTOS_Demo/Full_Demo/FreeRTOS-Plus-CLI/FreeRTOS_CLI.o
 .debug_abbrev  0x00005c9c      0x1fd ./src/FreeRTOS_Demo/Full_Demo/IntQueueTimer.o
 .debug_abbrev  0x00005e99      0x1a0 ./src/FreeRTOS_Demo/Full_Demo/Sample-CLI-commands.o
 .debug_abbrev  0x00006039      0x146 ./src/FreeRTOS_Demo/Full_Demo/UARTCommandConsole.o
 .debug_abbrev  0x0000617f      0x229 ./src/FreeRTOS_Demo/Full_Demo/main_full.o
 .debug_abbrev  0x000063a8      0x34b ./src/FreeRTOS_Demo/Full_Demo/serial.o
 .debug_abbrev  0x000066f3      0x25f ./src/FreeRTOS/Source/portable/MemMang/heap_4.o
 .debug_abbrev  0x00006952      0x2e1 ./src/FreeRTOS/Source/portable/GCC/RX100/port.o
 .debug_abbrev  0x00006c33      0x26c ./src/FreeRTOS/Source/event_groups.o
 .debug_abbrev  0x00006e9f      0x111 ./src/FreeRTOS/Source/list.o
 .debug_abbrev  0x00006fb0      0x2ff ./src/FreeRTOS/Source/queue.o
 .debug_abbrev  0x000072af      0x2fb ./src/FreeRTOS/Source/stream_buffer.o
 .debug_abbrev  0x000075aa      0x439 ./src/FreeRTOS/Source/tasks.o
 .debug_abbrev  0x000079e3      0x336 ./src/FreeRTOS/Source/timers.o

.debug_loc      0x00000000    0x12435
 .debug_loc     0x00000000      0x875 ./src/smc_workaround/r_dtc_rx_patch/r_dtc_rx.o
 .debug_loc     0x00000875       0x63 ./src/smc_workaround/FIT_patch.o
 .debug_loc     0x000008d8      0x10c ./src/smc_workaround/u_sci_rx_ext.o
 .debug_loc     0x000009e4      0x7e3 ./src/smc_gen/r_sci_rx/src/targets/rx130/r_sci_rx130.o
 .debug_loc     0x000011c7      0xb55 ./src/smc_gen/r_sci_rx/src/r_sci_rx.o
 .debug_loc     0x00001d1c      0xdc6 ./src/smc_gen/r_gpio_rx/src/r_gpio_rx.o
 .debug_loc     0x00002ae2      0x28e ./src/smc_gen/r_byteq/src/r_byteq.o
 .debug_loc     0x00002d70      0x113 ./src/smc_gen/r_bsp/mcu/rx130/mcu_clocks.o
 .debug_loc     0x00002e83       0xd2 ./src/smc_gen/r_bsp/mcu/rx130/mcu_interrupts.o
 .debug_loc     0x00002f55       0xa0 ./src/smc_gen/r_bsp/mcu/all/r_bsp_common.o
 .debug_loc     0x00002ff5      0x2e4 ./src/smc_gen/r_bsp/mcu/all/r_bsp_cpu.o
 .debug_loc     0x000032d9      0x912 ./src/smc_gen/r_bsp/mcu/all/r_bsp_interrupts.o
 .debug_loc     0x00003beb      0x11d ./src/smc_gen/r_bsp/mcu/all/r_bsp_locking.o
 .debug_loc     0x00003d08      0x5c8 ./src/smc_gen/r_bsp/mcu/all/r_rx_intrinsic_functions.o
 .debug_loc     0x000042d0      0x1b4 ./src/frtos_startup/freertos_start.o
 .debug_loc     0x00004484      0x263 ./src/FreeRTOS_Demo/Full_Demo/Standard_Demo_Tasks/BlockQ.o
 .debug_loc     0x000046e7      0x3af ./src/FreeRTOS_Demo/Full_Demo/Standard_Demo_Tasks/EventGroupsDemo.o
 .debug_loc     0x00004a96      0x1a2 ./src/FreeRTOS_Demo/Full_Demo/Standard_Demo_Tasks/GenQTest.o
 .debug_loc     0x00004c38      0x7dd ./src/FreeRTOS_Demo/Full_Demo/Standard_Demo_Tasks/IntQueue.o
 .debug_loc     0x00005415       0xc1 ./src/FreeRTOS_Demo/Full_Demo/Standard_Demo_Tasks/IntSemTest.o
 .debug_loc     0x000054d6       0x88 ./src/FreeRTOS_Demo/Full_Demo/Standard_Demo_Tasks/QueueOverwrite.o
 .debug_loc     0x0000555e      0x382 ./src/FreeRTOS_Demo/Full_Demo/Standard_Demo_Tasks/TaskNotify.o
 .debug_loc     0x000058e0      0xc32 ./src/FreeRTOS_Demo/Full_Demo/Standard_Demo_Tasks/TaskNotifyArray.o
 .debug_loc     0x00006512      0x6ca ./src/FreeRTOS_Demo/Full_Demo/Standard_Demo_Tasks/TimerDemo.o
 .debug_loc     0x00006bdc      0x23c ./src/FreeRTOS_Demo/Full_Demo/Standard_Demo_Tasks/blocktim.o
 .debug_loc     0x00006e18      0x190 ./src/FreeRTOS_Demo/Full_Demo/Standard_Demo_Tasks/countsem.o
 .debug_loc     0x00006fa8       0xd1 ./src/FreeRTOS_Demo/Full_Demo/Standard_Demo_Tasks/death.o
 .debug_loc     0x00007079      0x1ae ./src/FreeRTOS_Demo/Full_Demo/Standard_Demo_Tasks/dynamic.o
 .debug_loc     0x00007227      0x47c ./src/FreeRTOS_Demo/Full_Demo/Standard_Demo_Tasks/flop.o
 .debug_loc     0x000076a3       0x8f ./src/FreeRTOS_Demo/Full_Demo/Standard_Demo_Tasks/recmutex.o
 .debug_loc     0x00007732      0x16d ./src/FreeRTOS_Demo/Full_Demo/Standard_Demo_Tasks/semtest.o
 .debug_loc     0x0000789f      0x426 ./src/FreeRTOS_Demo/Full_Demo/FreeRTOS-Plus-CLI/FreeRTOS_CLI.o
 .debug_loc     0x00007cc5      0x313 ./src/FreeRTOS_Demo/Full_Demo/Sample-CLI-commands.o
 .debug_loc     0x00007fd8      0x13a ./src/FreeRTOS_Demo/Full_Demo/UARTCommandConsole.o
 .debug_loc     0x00008112      0x135 ./src/FreeRTOS_Demo/Full_Demo/main_full.o
 .debug_loc     0x00008247      0x2f4 ./src/FreeRTOS_Demo/Full_Demo/serial.o
 .debug_loc     0x0000853b      0x57f ./src/FreeRTOS/Source/portable/MemMang/heap_4.o
 .debug_loc     0x00008aba       0x6d ./src/FreeRTOS/Source/portable/GCC/RX100/port.o
 .debug_loc     0x00008b27     0x1011 ./src/FreeRTOS/Source/event_groups.o
 .debug_loc     0x00009b38       0x58 ./src/FreeRTOS/Source/list.o
 .debug_loc     0x00009b90     0x24d6 ./src/FreeRTOS/Source/queue.o
 .debug_loc     0x0000c066     0x1f43 ./src/FreeRTOS/Source/stream_buffer.o
 .debug_loc     0x0000dfa9     0x3588 ./src/FreeRTOS/Source/tasks.o
 .debug_loc     0x00011531      0xf04 ./src/FreeRTOS/Source/timers.o

.debug_aranges  0x00000000     0x1278
 .debug_aranges
                0x00000000       0x48 ./src/smc_workaround/r_dtc_rx_patch/r_dtc_rx.o
 .debug_aranges
                0x00000048       0x30 ./src/smc_workaround/r_dtc_rx_patch/r_dtc_rx_target.o
 .debug_aranges
                0x00000078       0x30 ./src/smc_workaround/FIT_patch.o
 .debug_aranges
                0x000000a8       0x20 ./src/smc_workaround/u_sci_rx_ext.o
 .debug_aranges
                0x000000c8       0x70 ./src/smc_gen/r_sci_rx/src/targets/rx130/r_sci_rx130.o
 .debug_aranges
                0x00000138       0x18 ./src/smc_gen/r_sci_rx/src/targets/rx130/r_sci_rx130_data.o
 .debug_aranges
                0x00000150       0x68 ./src/smc_gen/r_sci_rx/src/r_sci_rx.o
 .debug_aranges
                0x000001b8       0x20 ./src/smc_gen/r_pincfg/r_sci_rx_pinset.o
 .debug_aranges
                0x000001d8       0x70 ./src/smc_gen/r_gpio_rx/src/r_gpio_rx.o
 .debug_aranges
                0x00000248       0x58 ./src/smc_gen/r_byteq/src/r_byteq.o
 .debug_aranges
                0x000002a0       0x28 ./src/smc_gen/r_bsp/mcu/rx130/mcu_clocks.o
 .debug_aranges
                0x000002c8       0x20 ./src/smc_gen/r_bsp/mcu/rx130/mcu_init.o
 .debug_aranges
                0x000002e8       0x20 ./src/smc_gen/r_bsp/mcu/rx130/mcu_interrupts.o
 .debug_aranges
                0x00000308       0x18 ./src/smc_gen/r_bsp/mcu/rx130/vecttbl.o
 .debug_aranges
                0x00000320       0x28 ./src/smc_gen/r_bsp/mcu/all/lowlvl.o
 .debug_aranges
                0x00000348       0x18 ./src/smc_gen/r_bsp/mcu/all/mcu_locks.o
 .debug_aranges
                0x00000360       0x38 ./src/smc_gen/r_bsp/mcu/all/r_bsp_common.o
 .debug_aranges
                0x00000398       0x60 ./src/smc_gen/r_bsp/mcu/all/r_bsp_cpu.o
 .debug_aranges
                0x000003f8       0x78 ./src/smc_gen/r_bsp/mcu/all/r_bsp_interrupts.o
 .debug_aranges
                0x00000470       0x38 ./src/smc_gen/r_bsp/mcu/all/r_bsp_locking.o
 .debug_aranges
                0x000004a8      0x118 ./src/smc_gen/r_bsp/mcu/all/r_rx_intrinsic_functions.o
 .debug_aranges
                0x000005c0       0x20 ./src/smc_gen/r_bsp/mcu/all/reset_program.o
 .debug_aranges
                0x000005e0       0x20 ./src/smc_gen/r_bsp/mcu/all/resetprg.o
 .debug_aranges
                0x00000600       0x20 ./src/smc_gen/r_bsp/board/generic_rx130/hwsetup.o
 .debug_aranges
                0x00000620       0x38 ./src/smc_gen/general/r_cg_hardware_setup.o
 .debug_aranges
                0x00000658       0x20 ./src/smc_gen/general/r_smc_cgc.o
 .debug_aranges
                0x00000678       0x20 ./src/smc_gen/general/r_smc_cgc_user.o
 .debug_aranges
                0x00000698       0x70 ./src/frtos_startup/freertos_start.o
 .debug_aranges
                0x00000708       0x38 ./src/FreeRTOS_Demo/Full_Demo/Standard_Demo_Tasks/BlockQ.o
 .debug_aranges
                0x00000740       0x48 ./src/FreeRTOS_Demo/Full_Demo/Standard_Demo_Tasks/EventGroupsDemo.o
 .debug_aranges
                0x00000788       0x48 ./src/FreeRTOS_Demo/Full_Demo/Standard_Demo_Tasks/GenQTest.o
 .debug_aranges
                0x000007d0       0x60 ./src/FreeRTOS_Demo/Full_Demo/Standard_Demo_Tasks/IntQueue.o
 .debug_aranges
                0x00000830       0x48 ./src/FreeRTOS_Demo/Full_Demo/Standard_Demo_Tasks/IntSemTest.o
 .debug_aranges
                0x00000878       0x38 ./src/FreeRTOS_Demo/Full_Demo/Standard_Demo_Tasks/QueueOverwrite.o
 .debug_aranges
                0x000008b0       0x50 ./src/FreeRTOS_Demo/Full_Demo/Standard_Demo_Tasks/TaskNotify.o
 .debug_aranges
                0x00000900       0x50 ./src/FreeRTOS_Demo/Full_Demo/Standard_Demo_Tasks/TaskNotifyArray.o
 .debug_aranges
                0x00000950       0x58 ./src/FreeRTOS_Demo/Full_Demo/Standard_Demo_Tasks/TimerDemo.o
 .debug_aranges
                0x000009a8       0x38 ./src/FreeRTOS_Demo/Full_Demo/Standard_Demo_Tasks/blocktim.o
 .debug_aranges
                0x000009e0       0x38 ./src/FreeRTOS_Demo/Full_Demo/Standard_Demo_Tasks/countsem.o
 .debug_aranges
                0x00000a18       0x38 ./src/FreeRTOS_Demo/Full_Demo/Standard_Demo_Tasks/death.o
 .debug_aranges
                0x00000a50       0x50 ./src/FreeRTOS_Demo/Full_Demo/Standard_Demo_Tasks/dynamic.o
 .debug_aranges
                0x00000aa0       0x48 ./src/FreeRTOS_Demo/Full_Demo/Standard_Demo_Tasks/flop.o
 .debug_aranges
                0x00000ae8       0x40 ./src/FreeRTOS_Demo/Full_Demo/Standard_Demo_Tasks/recmutex.o
 .debug_aranges
                0x00000b28       0x30 ./src/FreeRTOS_Demo/Full_Demo/Standard_Demo_Tasks/semtest.o
 .debug_aranges
                0x00000b58       0x40 ./src/FreeRTOS_Demo/Full_Demo/FreeRTOS-Plus-CLI/FreeRTOS_CLI.o
 .debug_aranges
                0x00000b98       0x30 ./src/FreeRTOS_Demo/Full_Demo/IntQueueTimer.o
 .debug_aranges
                0x00000bc8       0x40 ./src/FreeRTOS_Demo/Full_Demo/Sample-CLI-commands.o
 .debug_aranges
                0x00000c08       0x30 ./src/FreeRTOS_Demo/Full_Demo/UARTCommandConsole.o
 .debug_aranges
                0x00000c38       0x58 ./src/FreeRTOS_Demo/Full_Demo/main_full.o
 .debug_aranges
                0x00000c90       0x40 ./src/FreeRTOS_Demo/Full_Demo/serial.o
 .debug_aranges
                0x00000cd0       0x48 ./src/FreeRTOS/Source/portable/MemMang/heap_4.o
 .debug_aranges
                0x00000d18       0x58 ./src/FreeRTOS/Source/portable/GCC/RX100/port.o
 .debug_aranges
                0x00000d70       0x80 ./src/FreeRTOS/Source/event_groups.o
 .debug_aranges
                0x00000df0       0x40 ./src/FreeRTOS/Source/list.o
 .debug_aranges
                0x00000e30      0x118 ./src/FreeRTOS/Source/queue.o
 .debug_aranges
                0x00000f48       0xb0 ./src/FreeRTOS/Source/stream_buffer.o
 .debug_aranges
                0x00000ff8      0x1d8 ./src/FreeRTOS/Source/tasks.o
 .debug_aranges
                0x000011d0       0xa8 ./src/FreeRTOS/Source/timers.o

.debug_ranges   0x00000000     0x2900
 .debug_ranges  0x00000000       0xe8 ./src/smc_workaround/r_dtc_rx_patch/r_dtc_rx.o
 .debug_ranges  0x000000e8       0x20 ./src/smc_workaround/r_dtc_rx_patch/r_dtc_rx_target.o
 .debug_ranges  0x00000108       0x20 ./src/smc_workaround/FIT_patch.o
 .debug_ranges  0x00000128       0x10 ./src/smc_workaround/u_sci_rx_ext.o
 .debug_ranges  0x00000138       0x78 ./src/smc_gen/r_sci_rx/src/targets/rx130/r_sci_rx130.o
 .debug_ranges  0x000001b0      0x120 ./src/smc_gen/r_sci_rx/src/r_sci_rx.o
 .debug_ranges  0x000002d0       0x10 ./src/smc_gen/r_pincfg/r_sci_rx_pinset.o
 .debug_ranges  0x000002e0      0x1c8 ./src/smc_gen/r_gpio_rx/src/r_gpio_rx.o
 .debug_ranges  0x000004a8       0x48 ./src/smc_gen/r_byteq/src/r_byteq.o
 .debug_ranges  0x000004f0       0x50 ./src/smc_gen/r_bsp/mcu/rx130/mcu_clocks.o
 .debug_ranges  0x00000540       0x10 ./src/smc_gen/r_bsp/mcu/rx130/mcu_init.o
 .debug_ranges  0x00000550       0x10 ./src/smc_gen/r_bsp/mcu/rx130/mcu_interrupts.o
 .debug_ranges  0x00000560       0x18 ./src/smc_gen/r_bsp/mcu/all/lowlvl.o
 .debug_ranges  0x00000578       0x40 ./src/smc_gen/r_bsp/mcu/all/r_bsp_common.o
 .debug_ranges  0x000005b8       0x50 ./src/smc_gen/r_bsp/mcu/all/r_bsp_cpu.o
 .debug_ranges  0x00000608      0x110 ./src/smc_gen/r_bsp/mcu/all/r_bsp_interrupts.o
 .debug_ranges  0x00000718       0x40 ./src/smc_gen/r_bsp/mcu/all/r_bsp_locking.o
 .debug_ranges  0x00000758      0x108 ./src/smc_gen/r_bsp/mcu/all/r_rx_intrinsic_functions.o
 .debug_ranges  0x00000860       0x10 ./src/smc_gen/r_bsp/mcu/all/resetprg.o
 .debug_ranges  0x00000870       0x10 ./src/smc_gen/r_bsp/board/generic_rx130/hwsetup.o
 .debug_ranges  0x00000880       0x58 ./src/smc_gen/general/r_cg_hardware_setup.o
 .debug_ranges  0x000008d8       0x10 ./src/smc_gen/general/r_smc_cgc.o
 .debug_ranges  0x000008e8       0x10 ./src/smc_gen/general/r_smc_cgc_user.o
 .debug_ranges  0x000008f8       0xd0 ./src/frtos_startup/freertos_start.o
 .debug_ranges  0x000009c8       0x28 ./src/FreeRTOS_Demo/Full_Demo/Standard_Demo_Tasks/BlockQ.o
 .debug_ranges  0x000009f0       0xa8 ./src/FreeRTOS_Demo/Full_Demo/Standard_Demo_Tasks/EventGroupsDemo.o
 .debug_ranges  0x00000a98       0x70 ./src/FreeRTOS_Demo/Full_Demo/Standard_Demo_Tasks/GenQTest.o
 .debug_ranges  0x00000b08       0xc0 ./src/FreeRTOS_Demo/Full_Demo/Standard_Demo_Tasks/IntQueue.o
 .debug_ranges  0x00000bc8       0x50 ./src/FreeRTOS_Demo/Full_Demo/Standard_Demo_Tasks/IntSemTest.o
 .debug_ranges  0x00000c18       0x28 ./src/FreeRTOS_Demo/Full_Demo/Standard_Demo_Tasks/QueueOverwrite.o
 .debug_ranges  0x00000c40       0xb0 ./src/FreeRTOS_Demo/Full_Demo/Standard_Demo_Tasks/TaskNotify.o
 .debug_ranges  0x00000cf0       0xf8 ./src/FreeRTOS_Demo/Full_Demo/Standard_Demo_Tasks/TaskNotifyArray.o
 .debug_ranges  0x00000de8      0x150 ./src/FreeRTOS_Demo/Full_Demo/Standard_Demo_Tasks/TimerDemo.o
 .debug_ranges  0x00000f38       0x40 ./src/FreeRTOS_Demo/Full_Demo/Standard_Demo_Tasks/blocktim.o
 .debug_ranges  0x00000f78       0x48 ./src/FreeRTOS_Demo/Full_Demo/Standard_Demo_Tasks/countsem.o
 .debug_ranges  0x00000fc0       0x28 ./src/FreeRTOS_Demo/Full_Demo/Standard_Demo_Tasks/death.o
 .debug_ranges  0x00000fe8       0x40 ./src/FreeRTOS_Demo/Full_Demo/Standard_Demo_Tasks/dynamic.o
 .debug_ranges  0x00001028       0x38 ./src/FreeRTOS_Demo/Full_Demo/Standard_Demo_Tasks/flop.o
 .debug_ranges  0x00001060       0x30 ./src/FreeRTOS_Demo/Full_Demo/Standard_Demo_Tasks/recmutex.o
 .debug_ranges  0x00001090       0x20 ./src/FreeRTOS_Demo/Full_Demo/Standard_Demo_Tasks/semtest.o
 .debug_ranges  0x000010b0       0x48 ./src/FreeRTOS_Demo/Full_Demo/FreeRTOS-Plus-CLI/FreeRTOS_CLI.o
 .debug_ranges  0x000010f8       0x20 ./src/FreeRTOS_Demo/Full_Demo/IntQueueTimer.o
 .debug_ranges  0x00001118       0x30 ./src/FreeRTOS_Demo/Full_Demo/Sample-CLI-commands.o
 .debug_ranges  0x00001148       0x20 ./src/FreeRTOS_Demo/Full_Demo/UARTCommandConsole.o
 .debug_ranges  0x00001168       0x48 ./src/FreeRTOS_Demo/Full_Demo/main_full.o
 .debug_ranges  0x000011b0       0x98 ./src/FreeRTOS_Demo/Full_Demo/serial.o
 .debug_ranges  0x00001248       0x98 ./src/FreeRTOS/Source/portable/MemMang/heap_4.o
 .debug_ranges  0x000012e0       0x60 ./src/FreeRTOS/Source/portable/GCC/RX100/port.o
 .debug_ranges  0x00001340       0xf0 ./src/FreeRTOS/Source/event_groups.o
 .debug_ranges  0x00001430       0x30 ./src/FreeRTOS/Source/list.o
 .debug_ranges  0x00001460      0x590 ./src/FreeRTOS/Source/queue.o
 .debug_ranges  0x000019f0      0x2b0 ./src/FreeRTOS/Source/stream_buffer.o
 .debug_ranges  0x00001ca0      0xa20 ./src/FreeRTOS/Source/tasks.o
 .debug_ranges  0x000026c0      0x240 ./src/FreeRTOS/Source/timers.o

.debug_line     0x00000000    0x19c91
 .debug_line    0x00000000      0xb74 ./src/smc_workaround/r_dtc_rx_patch/r_dtc_rx.o
 .debug_line    0x00000b74      0x366 ./src/smc_workaround/r_dtc_rx_patch/r_dtc_rx_target.o
 .debug_line    0x00000eda      0x230 ./src/smc_workaround/FIT_patch.o
 .debug_line    0x0000110a      0x42f ./src/smc_workaround/u_sci_rx_ext.o
 .debug_line    0x00001539      0xab7 ./src/smc_gen/r_sci_rx/src/targets/rx130/r_sci_rx130.o
 .debug_line    0x00001ff0      0x311 ./src/smc_gen/r_sci_rx/src/targets/rx130/r_sci_rx130_data.o
 .debug_line    0x00002301      0xbd3 ./src/smc_gen/r_sci_rx/src/r_sci_rx.o
 .debug_line    0x00002ed4      0x278 ./src/smc_gen/r_pincfg/r_sci_rx_pinset.o
 .debug_line    0x0000314c      0x90e ./src/smc_gen/r_gpio_rx/src/r_gpio_rx.o
 .debug_line    0x00003a5a      0x4d5 ./src/smc_gen/r_byteq/src/r_byteq.o
 .debug_line    0x00003f2f      0x439 ./src/smc_gen/r_bsp/mcu/rx130/mcu_clocks.o
 .debug_line    0x00004368      0x2d4 ./src/smc_gen/r_bsp/mcu/rx130/mcu_init.o
 .debug_line    0x0000463c      0x2ea ./src/smc_gen/r_bsp/mcu/rx130/mcu_interrupts.o
 .debug_line    0x00004926      0x19b ./src/smc_gen/r_bsp/mcu/rx130/vecttbl.o
 .debug_line    0x00004ac1      0x1ff ./src/smc_gen/r_bsp/mcu/all/lowlvl.o
 .debug_line    0x00004cc0      0x19b ./src/smc_gen/r_bsp/mcu/all/mcu_locks.o
 .debug_line    0x00004e5b      0x32e ./src/smc_gen/r_bsp/mcu/all/r_bsp_common.o
 .debug_line    0x00005189      0x620 ./src/smc_gen/r_bsp/mcu/all/r_bsp_cpu.o
 .debug_line    0x000057a9      0x740 ./src/smc_gen/r_bsp/mcu/all/r_bsp_interrupts.o
 .debug_line    0x00005ee9      0x280 ./src/smc_gen/r_bsp/mcu/all/r_bsp_locking.o
 .debug_line    0x00006169      0x5d7 ./src/smc_gen/r_bsp/mcu/all/r_rx_intrinsic_functions.o
 .debug_line    0x00006740       0x70 ./src/smc_gen/r_bsp/mcu/all/reset_program.o
 .debug_line    0x000067b0      0x322 ./src/smc_gen/r_bsp/mcu/all/resetprg.o
 .debug_line    0x00006ad2      0x254 ./src/smc_gen/r_bsp/board/generic_rx130/hwsetup.o
 .debug_line    0x00006d26      0x669 ./src/smc_gen/general/r_cg_hardware_setup.o
 .debug_line    0x0000738f      0x1b8 ./src/smc_gen/general/r_smc_cgc.o
 .debug_line    0x00007547      0x1ac ./src/smc_gen/general/r_smc_cgc_user.o
 .debug_line    0x000076f3      0x76a ./src/frtos_startup/freertos_start.o
 .debug_line    0x00007e5d      0x407 ./src/FreeRTOS_Demo/Full_Demo/Standard_Demo_Tasks/BlockQ.o
 .debug_line    0x00008264      0x92e ./src/FreeRTOS_Demo/Full_Demo/Standard_Demo_Tasks/EventGroupsDemo.o
 .debug_line    0x00008b92      0x8dd ./src/FreeRTOS_Demo/Full_Demo/Standard_Demo_Tasks/GenQTest.o
 .debug_line    0x0000946f      0xd2e ./src/FreeRTOS_Demo/Full_Demo/Standard_Demo_Tasks/IntQueue.o
 .debug_line    0x0000a19d      0x6de ./src/FreeRTOS_Demo/Full_Demo/Standard_Demo_Tasks/IntSemTest.o
 .debug_line    0x0000a87b      0x3b3 ./src/FreeRTOS_Demo/Full_Demo/Standard_Demo_Tasks/QueueOverwrite.o
 .debug_line    0x0000ac2e      0x7c4 ./src/FreeRTOS_Demo/Full_Demo/Standard_Demo_Tasks/TaskNotify.o
 .debug_line    0x0000b3f2      0xcd6 ./src/FreeRTOS_Demo/Full_Demo/Standard_Demo_Tasks/TaskNotifyArray.o
 .debug_line    0x0000c0c8      0xcfb ./src/FreeRTOS_Demo/Full_Demo/Standard_Demo_Tasks/TimerDemo.o
 .debug_line    0x0000cdc3      0x67f ./src/FreeRTOS_Demo/Full_Demo/Standard_Demo_Tasks/blocktim.o
 .debug_line    0x0000d442      0x4b0 ./src/FreeRTOS_Demo/Full_Demo/Standard_Demo_Tasks/countsem.o
 .debug_line    0x0000d8f2      0x2ca ./src/FreeRTOS_Demo/Full_Demo/Standard_Demo_Tasks/death.o
 .debug_line    0x0000dbbc      0x4ff ./src/FreeRTOS_Demo/Full_Demo/Standard_Demo_Tasks/dynamic.o
 .debug_line    0x0000e0bb      0x6ec ./src/FreeRTOS_Demo/Full_Demo/Standard_Demo_Tasks/flop.o
 .debug_line    0x0000e7a7      0x4ee ./src/FreeRTOS_Demo/Full_Demo/Standard_Demo_Tasks/recmutex.o
 .debug_line    0x0000ec95      0x3c9 ./src/FreeRTOS_Demo/Full_Demo/Standard_Demo_Tasks/semtest.o
 .debug_line    0x0000f05e      0x4df ./src/FreeRTOS_Demo/Full_Demo/FreeRTOS-Plus-CLI/FreeRTOS_CLI.o
 .debug_line    0x0000f53d      0x41d ./src/FreeRTOS_Demo/Full_Demo/IntQueueTimer.o
 .debug_line    0x0000f95a      0x467 ./src/FreeRTOS_Demo/Full_Demo/Sample-CLI-commands.o
 .debug_line    0x0000fdc1      0x476 ./src/FreeRTOS_Demo/Full_Demo/UARTCommandConsole.o
 .debug_line    0x00010237      0x794 ./src/FreeRTOS_Demo/Full_Demo/main_full.o
 .debug_line    0x000109cb      0x84c ./src/FreeRTOS_Demo/Full_Demo/serial.o
 .debug_line    0x00011217      0x6bc ./src/FreeRTOS/Source/portable/MemMang/heap_4.o
 .debug_line    0x000118d3      0x503 ./src/FreeRTOS/Source/portable/GCC/RX100/port.o
 .debug_line    0x00011dd6      0x8e5 ./src/FreeRTOS/Source/event_groups.o
 .debug_line    0x000126bb      0x33d ./src/FreeRTOS/Source/list.o
 .debug_line    0x000129f8     0x1d3e ./src/FreeRTOS/Source/queue.o
 .debug_line    0x00014736     0x12a9 ./src/FreeRTOS/Source/stream_buffer.o
 .debug_line    0x000159df     0x365f ./src/FreeRTOS/Source/tasks.o
 .debug_line    0x0001903e      0xc53 ./src/FreeRTOS/Source/timers.o

.debug_str      0x00000000     0xadc8
 .debug_str     0x00000000     0x1457 ./src/smc_workaround/r_dtc_rx_patch/r_dtc_rx.o
                               0x151c (size before relaxing)
 .debug_str     0x00001457      0x69a ./src/smc_workaround/r_dtc_rx_patch/r_dtc_rx_target.o
                                0xd0a (size before relaxing)
 .debug_str     0x00001af1       0x4a ./src/smc_workaround/FIT_patch.o
                                0x21f (size before relaxing)
 .debug_str     0x00001b3b      0x757 ./src/smc_workaround/u_sci_rx_ext.o
                                0x95d (size before relaxing)
 .debug_str     0x00002292      0x20e ./src/smc_gen/r_sci_rx/src/targets/rx130/r_sci_rx130.o
                                0xb43 (size before relaxing)
 .debug_str     0x000024a0     0x14c6 ./src/smc_gen/r_sci_rx/src/targets/rx130/r_sci_rx130_data.o
                               0x213b (size before relaxing)
 .debug_str     0x00003966      0x417 ./src/smc_gen/r_sci_rx/src/r_sci_rx.o
                               0x1190 (size before relaxing)
 .debug_str     0x00003d7d      0x2c6 ./src/smc_gen/r_pincfg/r_sci_rx_pinset.o
                                0x551 (size before relaxing)
 .debug_str     0x00004043      0xae3 ./src/smc_gen/r_gpio_rx/src/r_gpio_rx.o
                                0xcf2 (size before relaxing)
 .debug_str     0x00004b26       0x81 ./src/smc_gen/r_byteq/src/r_byteq.o
                                0x39e (size before relaxing)
 .debug_str     0x00004ba7      0x22b ./src/smc_gen/r_bsp/mcu/rx130/mcu_clocks.o
                                0x827 (size before relaxing)
 .debug_str     0x00004dd2       0x96 ./src/smc_gen/r_bsp/mcu/rx130/mcu_init.o
                                0x28e (size before relaxing)
 .debug_str     0x00004e68      0x17f ./src/smc_gen/r_bsp/mcu/rx130/mcu_interrupts.o
                               0x13cd (size before relaxing)
 .debug_str     0x00004fe7       0x37 ./src/smc_gen/r_bsp/mcu/rx130/vecttbl.o
                                0x1ed (size before relaxing)
 .debug_str     0x0000501e       0x53 ./src/smc_gen/r_bsp/mcu/all/lowlvl.o
                                0x222 (size before relaxing)
 .debug_str     0x00005071       0x29 ./src/smc_gen/r_bsp/mcu/all/mcu_locks.o
                                0x50b (size before relaxing)
 .debug_str     0x0000509a       0xbf ./src/smc_gen/r_bsp/mcu/all/r_bsp_common.o
                                0x2e0 (size before relaxing)
 .debug_str     0x00005159      0x136 ./src/smc_gen/r_bsp/mcu/all/r_bsp_cpu.o
                                0xf42 (size before relaxing)
 .debug_str     0x0000528f      0x182 ./src/smc_gen/r_bsp/mcu/all/r_bsp_interrupts.o
                                0x85f (size before relaxing)
 .debug_str     0x00005411       0x79 ./src/smc_gen/r_bsp/mcu/all/r_bsp_locking.o
                                0x589 (size before relaxing)
 .debug_str     0x0000548a      0x2d8 ./src/smc_gen/r_bsp/mcu/all/r_rx_intrinsic_functions.o
                                0x4dd (size before relaxing)
 .debug_str     0x00005762       0x94 ./src/smc_gen/r_bsp/mcu/all/resetprg.o
                                0x7a9 (size before relaxing)
 .debug_str     0x000057f6       0x86 ./src/smc_gen/r_bsp/board/generic_rx130/hwsetup.o
                                0x266 (size before relaxing)
 .debug_str     0x0000587c      0x18b ./src/smc_gen/general/r_cg_hardware_setup.o
                               0x158f (size before relaxing)
 .debug_str     0x00005a07       0x39 ./src/smc_gen/general/r_smc_cgc.o
                                0x1fc (size before relaxing)
 .debug_str     0x00005a40       0x28 ./src/smc_gen/general/r_smc_cgc_user.o
                                0x1f4 (size before relaxing)
 .debug_str     0x00005a68      0x1ec ./src/frtos_startup/freertos_start.o
                               0x1e79 (size before relaxing)
 .debug_str     0x00005c54      0x2af ./src/FreeRTOS_Demo/Full_Demo/Standard_Demo_Tasks/BlockQ.o
                                0x498 (size before relaxing)
 .debug_str     0x00005f03      0x41c ./src/FreeRTOS_Demo/Full_Demo/Standard_Demo_Tasks/EventGroupsDemo.o
                                0x628 (size before relaxing)
 .debug_str     0x0000631f      0x279 ./src/FreeRTOS_Demo/Full_Demo/Standard_Demo_Tasks/GenQTest.o
                                0x550 (size before relaxing)
 .debug_str     0x00006598      0x4bd ./src/FreeRTOS_Demo/Full_Demo/Standard_Demo_Tasks/IntQueue.o
                                0x7b8 (size before relaxing)
 .debug_str     0x00006a55      0x2b3 ./src/FreeRTOS_Demo/Full_Demo/Standard_Demo_Tasks/IntSemTest.o
                                0x5ea (size before relaxing)
 .debug_str     0x00006d08      0x14d ./src/FreeRTOS_Demo/Full_Demo/Standard_Demo_Tasks/QueueOverwrite.o
                                0x403 (size before relaxing)
 .debug_str     0x00006e55      0x408 ./src/FreeRTOS_Demo/Full_Demo/Standard_Demo_Tasks/TaskNotify.o
                                0x706 (size before relaxing)
 .debug_str     0x0000725d      0x2aa ./src/FreeRTOS_Demo/Full_Demo/Standard_Demo_Tasks/TaskNotifyArray.o
                                0x82b (size before relaxing)
 .debug_str     0x00007507      0x490 ./src/FreeRTOS_Demo/Full_Demo/Standard_Demo_Tasks/TimerDemo.o
                                0x76e (size before relaxing)
 .debug_str     0x00007997      0x1e2 ./src/FreeRTOS_Demo/Full_Demo/Standard_Demo_Tasks/blocktim.o
                                0x487 (size before relaxing)
 .debug_str     0x00007b79      0x158 ./src/FreeRTOS_Demo/Full_Demo/Standard_Demo_Tasks/countsem.o
                                0x3e9 (size before relaxing)
 .debug_str     0x00007cd1      0x130 ./src/FreeRTOS_Demo/Full_Demo/Standard_Demo_Tasks/death.o
                                0x365 (size before relaxing)
 .debug_str     0x00007e01      0x228 ./src/FreeRTOS_Demo/Full_Demo/Standard_Demo_Tasks/dynamic.o
                                0x563 (size before relaxing)
 .debug_str     0x00008029      0x123 ./src/FreeRTOS_Demo/Full_Demo/Standard_Demo_Tasks/flop.o
                                0x31e (size before relaxing)
 .debug_str     0x0000814c      0x1e9 ./src/FreeRTOS_Demo/Full_Demo/Standard_Demo_Tasks/recmutex.o
                                0x4c1 (size before relaxing)
 .debug_str     0x00008335      0x15e ./src/FreeRTOS_Demo/Full_Demo/Standard_Demo_Tasks/semtest.o
                                0x445 (size before relaxing)
 .debug_str     0x00008493      0x317 ./src/FreeRTOS_Demo/Full_Demo/FreeRTOS-Plus-CLI/FreeRTOS_CLI.o
                                0x50e (size before relaxing)
 .debug_str     0x000087aa       0xa5 ./src/FreeRTOS_Demo/Full_Demo/IntQueueTimer.o
                               0x1cf4 (size before relaxing)
 .debug_str     0x0000884f      0x1a0 ./src/FreeRTOS_Demo/Full_Demo/Sample-CLI-commands.o
                                0x481 (size before relaxing)
 .debug_str     0x000089ef      0x183 ./src/FreeRTOS_Demo/Full_Demo/UARTCommandConsole.o
                                0x43e (size before relaxing)
 .debug_str     0x00008b72      0x16b ./src/FreeRTOS_Demo/Full_Demo/main_full.o
                                0x8c3 (size before relaxing)
 .debug_str     0x00008cdd       0xdb ./src/FreeRTOS_Demo/Full_Demo/serial.o
                               0x1266 (size before relaxing)
 .debug_str     0x00008db8      0x2a1 ./src/FreeRTOS/Source/portable/MemMang/heap_4.o
                                0x519 (size before relaxing)
 .debug_str     0x00009059      0x14c ./src/FreeRTOS/Source/portable/GCC/RX100/port.o
                               0x1dc1 (size before relaxing)
 .debug_str     0x000091a5      0x349 ./src/FreeRTOS/Source/event_groups.o
                                0x6dc (size before relaxing)
 .debug_str     0x000094ee       0xa2 ./src/FreeRTOS/Source/list.o
                                0x304 (size before relaxing)
 .debug_str     0x00009590      0x5e6 ./src/FreeRTOS/Source/queue.o
                                0xb6b (size before relaxing)
 .debug_str     0x00009b76      0x4e9 ./src/FreeRTOS/Source/stream_buffer.o
                                0x8d1 (size before relaxing)
 .debug_str     0x0000a05f      0x905 ./src/FreeRTOS/Source/tasks.o
                               0x1242 (size before relaxing)
 .debug_str     0x0000a964      0x464 ./src/FreeRTOS/Source/timers.o
                                0x9a2 (size before relaxing)

.comment        0x00000000       0x6c
 .comment       0x00000000       0x36 ./src/smc_workaround/r_dtc_rx_patch/r_dtc_rx.o
                                 0x37 (size before relaxing)
 .comment       0x00000000       0x37 ./src/smc_workaround/r_dtc_rx_patch/r_dtc_rx_target.o
 .comment       0x00000000       0x37 ./src/smc_workaround/FIT_patch.o
 .comment       0x00000000       0x37 ./src/smc_workaround/u_sci_rx_ext.o
 .comment       0x00000000       0x37 ./src/smc_gen/r_sci_rx/src/targets/rx130/r_sci_rx130.o
 .comment       0x00000000       0x37 ./src/smc_gen/r_sci_rx/src/targets/rx130/r_sci_rx130_data.o
 .comment       0x00000000       0x37 ./src/smc_gen/r_sci_rx/src/r_sci_rx.o
 .comment       0x00000000       0x37 ./src/smc_gen/r_pincfg/r_sci_rx_pinset.o
 .comment       0x00000000       0x37 ./src/smc_gen/r_gpio_rx/src/r_gpio_rx.o
 .comment       0x00000000       0x37 ./src/smc_gen/r_byteq/src/r_byteq.o
 .comment       0x00000000       0x37 ./src/smc_gen/r_bsp/mcu/rx130/mcu_clocks.o
 .comment       0x00000000       0x37 ./src/smc_gen/r_bsp/mcu/rx130/mcu_init.o
 .comment       0x00000000       0x37 ./src/smc_gen/r_bsp/mcu/rx130/mcu_interrupts.o
 .comment       0x00000000       0x37 ./src/smc_gen/r_bsp/mcu/rx130/vecttbl.o
 .comment       0x00000000       0x37 ./src/smc_gen/r_bsp/mcu/all/lowlvl.o
 .comment       0x00000000       0x37 ./src/smc_gen/r_bsp/mcu/all/mcu_locks.o
 .comment       0x00000000       0x37 ./src/smc_gen/r_bsp/mcu/all/r_bsp_common.o
 .comment       0x00000000       0x37 ./src/smc_gen/r_bsp/mcu/all/r_bsp_cpu.o
 .comment       0x00000000       0x37 ./src/smc_gen/r_bsp/mcu/all/r_bsp_interrupts.o
 .comment       0x00000000       0x37 ./src/smc_gen/r_bsp/mcu/all/r_bsp_locking.o
 .comment       0x00000000       0x37 ./src/smc_gen/r_bsp/mcu/all/r_rx_intrinsic_functions.o
 .comment       0x00000000       0x37 ./src/smc_gen/r_bsp/mcu/all/resetprg.o
 .comment       0x00000000       0x37 ./src/smc_gen/r_bsp/board/generic_rx130/hwsetup.o
 .comment       0x00000000       0x37 ./src/smc_gen/general/r_cg_hardware_setup.o
 .comment       0x00000000       0x37 ./src/smc_gen/general/r_smc_cgc.o
 .comment       0x00000000       0x37 ./src/smc_gen/general/r_smc_cgc_user.o
 .comment       0x00000000       0x37 ./src/frtos_startup/freertos_start.o
 .comment       0x00000000       0x37 ./src/FreeRTOS_Demo/Full_Demo/Standard_Demo_Tasks/BlockQ.o
 .comment       0x00000000       0x37 ./src/FreeRTOS_Demo/Full_Demo/Standard_Demo_Tasks/EventGroupsDemo.o
 .comment       0x00000000       0x37 ./src/FreeRTOS_Demo/Full_Demo/Standard_Demo_Tasks/GenQTest.o
 .comment       0x00000000       0x37 ./src/FreeRTOS_Demo/Full_Demo/Standard_Demo_Tasks/IntQueue.o
 .comment       0x00000000       0x37 ./src/FreeRTOS_Demo/Full_Demo/Standard_Demo_Tasks/IntSemTest.o
 .comment       0x00000000       0x37 ./src/FreeRTOS_Demo/Full_Demo/Standard_Demo_Tasks/QueueOverwrite.o
 .comment       0x00000000       0x37 ./src/FreeRTOS_Demo/Full_Demo/Standard_Demo_Tasks/TaskNotify.o
 .comment       0x00000000       0x37 ./src/FreeRTOS_Demo/Full_Demo/Standard_Demo_Tasks/TaskNotifyArray.o
 .comment       0x00000000       0x37 ./src/FreeRTOS_Demo/Full_Demo/Standard_Demo_Tasks/TimerDemo.o
 .comment       0x00000000       0x37 ./src/FreeRTOS_Demo/Full_Demo/Standard_Demo_Tasks/blocktim.o
 .comment       0x00000000       0x37 ./src/FreeRTOS_Demo/Full_Demo/Standard_Demo_Tasks/countsem.o
 .comment       0x00000000       0x37 ./src/FreeRTOS_Demo/Full_Demo/Standard_Demo_Tasks/death.o
 .comment       0x00000000       0x37 ./src/FreeRTOS_Demo/Full_Demo/Standard_Demo_Tasks/dynamic.o
 .comment       0x00000000       0x37 ./src/FreeRTOS_Demo/Full_Demo/Standard_Demo_Tasks/flop.o
 .comment       0x00000000       0x37 ./src/FreeRTOS_Demo/Full_Demo/Standard_Demo_Tasks/recmutex.o
 .comment       0x00000000       0x37 ./src/FreeRTOS_Demo/Full_Demo/Standard_Demo_Tasks/semtest.o
 .comment       0x00000000       0x37 ./src/FreeRTOS_Demo/Full_Demo/FreeRTOS-Plus-CLI/FreeRTOS_CLI.o
 .comment       0x00000000       0x37 ./src/FreeRTOS_Demo/Full_Demo/IntQueueTimer.o
 .comment       0x00000000       0x37 ./src/FreeRTOS_Demo/Full_Demo/Sample-CLI-commands.o
 .comment       0x00000000       0x37 ./src/FreeRTOS_Demo/Full_Demo/UARTCommandConsole.o
 .comment       0x00000000       0x37 ./src/FreeRTOS_Demo/Full_Demo/main_full.o
 .comment       0x00000000       0x37 ./src/FreeRTOS_Demo/Full_Demo/serial.o
 .comment       0x00000000       0x37 ./src/FreeRTOS/Source/portable/MemMang/heap_4.o
 .comment       0x00000000       0x37 ./src/FreeRTOS/Source/portable/GCC/RX100/port.o
 .comment       0x00000000       0x37 ./src/FreeRTOS/Source/event_groups.o
 .comment       0x00000000       0x37 ./src/FreeRTOS/Source/list.o
 .comment       0x00000000       0x37 ./src/FreeRTOS/Source/queue.o
 .comment       0x00000000       0x37 ./src/FreeRTOS/Source/stream_buffer.o
 .comment       0x00000000       0x37 ./src/FreeRTOS/Source/tasks.o
 .comment       0x00000000       0x37 ./src/FreeRTOS/Source/timers.o
 .comment       0x00000036       0x36 c:/renesas/gcc/redhat/gnurx-elf/8.3.0.202002/rx-elf/rx-elf/bin/../lib/gcc/rx-elf/8.3.0.202002-GNURX/../../../../rx-elf/lib/no-fpu-libs\libc_nano.a(lib_a-sprintf.o)
                                 0x37 (size before relaxing)
 .comment       0x00000000       0x37 c:/renesas/gcc/redhat/gnurx-elf/8.3.0.202002/rx-elf/rx-elf/bin/../lib/gcc/rx-elf/8.3.0.202002-GNURX/../../../../rx-elf/lib/no-fpu-libs\libc_nano.a(lib_a-impure.o)
 .comment       0x00000000       0x37 c:/renesas/gcc/redhat/gnurx-elf/8.3.0.202002/rx-elf/rx-elf/bin/../lib/gcc/rx-elf/8.3.0.202002-GNURX/../../../../rx-elf/lib/no-fpu-libs\libc_nano.a(lib_a-nano-svfprintf.o)
 .comment       0x00000000       0x37 c:/renesas/gcc/redhat/gnurx-elf/8.3.0.202002/rx-elf/rx-elf/bin/../lib/gcc/rx-elf/8.3.0.202002-GNURX/../../../../rx-elf/lib/no-fpu-libs\libc_nano.a(lib_a-nano-vfprintf_i.o)
 .comment       0x00000000       0x37 c:/renesas/gcc/redhat/gnurx-elf/8.3.0.202002/rx-elf/rx-elf/bin/../lib/gcc/rx-elf/8.3.0.202002-GNURX/../../../../rx-elf/lib/no-fpu-libs\libc_nano.a(lib_a-nano-freer.o)
 .comment       0x00000000       0x37 c:/renesas/gcc/redhat/gnurx-elf/8.3.0.202002/rx-elf/rx-elf/bin/../lib/gcc/rx-elf/8.3.0.202002-GNURX/../../../../rx-elf/lib/no-fpu-libs\libc_nano.a(lib_a-nano-mallocr.o)
 .comment       0x00000000       0x37 c:/renesas/gcc/redhat/gnurx-elf/8.3.0.202002/rx-elf/rx-elf/bin/../lib/gcc/rx-elf/8.3.0.202002-GNURX/../../../../rx-elf/lib/no-fpu-libs\libc_nano.a(lib_a-nano-reallocr.o)
 .comment       0x00000000       0x37 c:/renesas/gcc/redhat/gnurx-elf/8.3.0.202002/rx-elf/rx-elf/bin/../lib/gcc/rx-elf/8.3.0.202002-GNURX/../../../../rx-elf/lib/no-fpu-libs\libc_nano.a(lib_a-sbrkr.o)
 .comment       0x00000000       0x37 c:/renesas/gcc/redhat/gnurx-elf/8.3.0.202002/rx-elf/rx-elf/bin/../lib/gcc/rx-elf/8.3.0.202002-GNURX/../../../../rx-elf/lib/no-fpu-libs\libc_nano.a(lib_a-mlock.o)
 .comment       0x00000000       0x37 c:/renesas/gcc/redhat/gnurx-elf/8.3.0.202002/rx-elf/rx-elf/bin/../lib/gcc/rx-elf/8.3.0.202002-GNURX/../../../../rx-elf/lib/no-fpu-libs\libc_nano.a(lib_a-nano-msizer.o)
 .comment       0x00000000       0x37 c:/renesas/gcc/redhat/gnurx-elf/8.3.0.202002/rx-elf/rx-elf/bin/../lib/gcc/rx-elf/8.3.0.202002-GNURX/../../../../rx-elf/lib/no-fpu-libs\libc_nano.a(lib_a-reent.o)
 .comment       0x00000000       0x37 c:/renesas/gcc/redhat/gnurx-elf/8.3.0.202002/rx-elf/rx-elf/bin/../lib/gcc/rx-elf/8.3.0.202002-GNURX/no-fpu-libs\libgcc.a(_fixunssfsi.o)
 .comment       0x00000000       0x37 c:/renesas/gcc/redhat/gnurx-elf/8.3.0.202002/rx-elf/rx-elf/bin/../lib/gcc/rx-elf/8.3.0.202002-GNURX/no-fpu-libs\libgcc.a(_udivdi3.o)
 .comment       0x00000000       0x37 c:/renesas/gcc/redhat/gnurx-elf/8.3.0.202002/rx-elf/rx-elf/bin/../lib/gcc/rx-elf/8.3.0.202002-GNURX/no-fpu-libs\libgcc.a(_addsub_sf.o)
 .comment       0x00000000       0x37 c:/renesas/gcc/redhat/gnurx-elf/8.3.0.202002/rx-elf/rx-elf/bin/../lib/gcc/rx-elf/8.3.0.202002-GNURX/no-fpu-libs\libgcc.a(_mul_sf.o)
 .comment       0x00000000       0x37 c:/renesas/gcc/redhat/gnurx-elf/8.3.0.202002/rx-elf/rx-elf/bin/../lib/gcc/rx-elf/8.3.0.202002-GNURX/no-fpu-libs\libgcc.a(_div_sf.o)
 .comment       0x00000000       0x37 c:/renesas/gcc/redhat/gnurx-elf/8.3.0.202002/rx-elf/rx-elf/bin/../lib/gcc/rx-elf/8.3.0.202002-GNURX/no-fpu-libs\libgcc.a(_gt_sf.o)
 .comment       0x00000000       0x37 c:/renesas/gcc/redhat/gnurx-elf/8.3.0.202002/rx-elf/rx-elf/bin/../lib/gcc/rx-elf/8.3.0.202002-GNURX/no-fpu-libs\libgcc.a(_ge_sf.o)
 .comment       0x00000000       0x37 c:/renesas/gcc/redhat/gnurx-elf/8.3.0.202002/rx-elf/rx-elf/bin/../lib/gcc/rx-elf/8.3.0.202002-GNURX/no-fpu-libs\libgcc.a(_lt_sf.o)
 .comment       0x00000000       0x37 c:/renesas/gcc/redhat/gnurx-elf/8.3.0.202002/rx-elf/rx-elf/bin/../lib/gcc/rx-elf/8.3.0.202002-GNURX/no-fpu-libs\libgcc.a(_le_sf.o)
 .comment       0x00000000       0x37 c:/renesas/gcc/redhat/gnurx-elf/8.3.0.202002/rx-elf/rx-elf/bin/../lib/gcc/rx-elf/8.3.0.202002-GNURX/no-fpu-libs\libgcc.a(_sf_to_si.o)
 .comment       0x00000000       0x37 c:/renesas/gcc/redhat/gnurx-elf/8.3.0.202002/rx-elf/rx-elf/bin/../lib/gcc/rx-elf/8.3.0.202002-GNURX/no-fpu-libs\libgcc.a(_thenan_sf.o)
 .comment       0x00000000       0x37 c:/renesas/gcc/redhat/gnurx-elf/8.3.0.202002/rx-elf/rx-elf/bin/../lib/gcc/rx-elf/8.3.0.202002-GNURX/no-fpu-libs\libgcc.a(_usi_to_sf.o)
 .comment       0x00000000       0x37 c:/renesas/gcc/redhat/gnurx-elf/8.3.0.202002/rx-elf/rx-elf/bin/../lib/gcc/rx-elf/8.3.0.202002-GNURX/no-fpu-libs\libgcc.a(_clz.o)
 .comment       0x00000000       0x37 c:/renesas/gcc/redhat/gnurx-elf/8.3.0.202002/rx-elf/rx-elf/bin/../lib/gcc/rx-elf/8.3.0.202002-GNURX/no-fpu-libs\libgcc.a(_clzsi2.o)
 .comment       0x00000000       0x37 c:/renesas/gcc/redhat/gnurx-elf/8.3.0.202002/rx-elf/rx-elf/bin/../lib/gcc/rx-elf/8.3.0.202002-GNURX/no-fpu-libs\libgcc.a(_pack_sf.o)
 .comment       0x00000000       0x37 c:/renesas/gcc/redhat/gnurx-elf/8.3.0.202002/rx-elf/rx-elf/bin/../lib/gcc/rx-elf/8.3.0.202002-GNURX/no-fpu-libs\libgcc.a(_unpack_sf.o)
 .comment       0x00000000       0x37 c:/renesas/gcc/redhat/gnurx-elf/8.3.0.202002/rx-elf/rx-elf/bin/../lib/gcc/rx-elf/8.3.0.202002-GNURX/no-fpu-libs\libgcc.a(_fpcmp_parts_sf.o)
