Archive member included because of file (symbol)

c:/renesas/gcc/redhat/gnurx-elf/8.3.0.202004/rx-elf/rx-elf/bin/../lib/gcc/rx-elf/8.3.0.202004-GNURX/../../../../rx-elf/lib/64-bit-double\libc_nano.a(lib_a-sprintf.o)
                              ./src/FreeRTOS_Demo/Full_Demo/Sample-CLI-commands.o (sprintf)
c:/renesas/gcc/redhat/gnurx-elf/8.3.0.202004/rx-elf/rx-elf/bin/../lib/gcc/rx-elf/8.3.0.202004-GNURX/../../../../rx-elf/lib/64-bit-double\libc_nano.a(lib_a-strlen.o)
                              ./src/FreeRTOS_Demo/Full_Demo/FreeRTOS-Plus-CLI/FreeRTOS_CLI.o (strlen)
c:/renesas/gcc/redhat/gnurx-elf/8.3.0.202004/rx-elf/rx-elf/bin/../lib/gcc/rx-elf/8.3.0.202004-GNURX/../../../../rx-elf/lib/64-bit-double\libc_nano.a(lib_a-strncat.o)
                              ./src/FreeRTOS_Demo/Full_Demo/Sample-CLI-commands.o (strncat)
c:/renesas/gcc/redhat/gnurx-elf/8.3.0.202004/rx-elf/rx-elf/bin/../lib/gcc/rx-elf/8.3.0.202004-GNURX/../../../../rx-elf/lib/64-bit-double\libc_nano.a(lib_a-strncpy.o)
                              ./src/FreeRTOS_Demo/Full_Demo/FreeRTOS-Plus-CLI/FreeRTOS_CLI.o (strncpy)
c:/renesas/gcc/redhat/gnurx-elf/8.3.0.202004/rx-elf/rx-elf/bin/../lib/gcc/rx-elf/8.3.0.202004-GNURX/../../../../rx-elf/lib/64-bit-double\libc_nano.a(lib_a-impure.o)
                              c:/renesas/gcc/redhat/gnurx-elf/8.3.0.202004/rx-elf/rx-elf/bin/../lib/gcc/rx-elf/8.3.0.202004-GNURX/../../../../rx-elf/lib/64-bit-double\libc_nano.a(lib_a-sprintf.o) (_impure_ptr)
c:/renesas/gcc/redhat/gnurx-elf/8.3.0.202004/rx-elf/rx-elf/bin/../lib/gcc/rx-elf/8.3.0.202004-GNURX/../../../../rx-elf/lib/64-bit-double\libc_nano.a(lib_a-nano-svfprintf.o)
                              c:/renesas/gcc/redhat/gnurx-elf/8.3.0.202004/rx-elf/rx-elf/bin/../lib/gcc/rx-elf/8.3.0.202004-GNURX/../../../../rx-elf/lib/64-bit-double\libc_nano.a(lib_a-sprintf.o) (_svfprintf_r)
c:/renesas/gcc/redhat/gnurx-elf/8.3.0.202004/rx-elf/rx-elf/bin/../lib/gcc/rx-elf/8.3.0.202004-GNURX/../../../../rx-elf/lib/64-bit-double\libc_nano.a(lib_a-nano-vfprintf_i.o)
                              c:/renesas/gcc/redhat/gnurx-elf/8.3.0.202004/rx-elf/rx-elf/bin/../lib/gcc/rx-elf/8.3.0.202004-GNURX/../../../../rx-elf/lib/64-bit-double\libc_nano.a(lib_a-nano-svfprintf.o) (_printf_i)
c:/renesas/gcc/redhat/gnurx-elf/8.3.0.202004/rx-elf/rx-elf/bin/../lib/gcc/rx-elf/8.3.0.202004-GNURX/../../../../rx-elf/lib/64-bit-double\libc_nano.a(lib_a-memchr.o)
                              c:/renesas/gcc/redhat/gnurx-elf/8.3.0.202004/rx-elf/rx-elf/bin/../lib/gcc/rx-elf/8.3.0.202004-GNURX/../../../../rx-elf/lib/64-bit-double\libc_nano.a(lib_a-nano-svfprintf.o) (memchr)
c:/renesas/gcc/redhat/gnurx-elf/8.3.0.202004/rx-elf/rx-elf/bin/../lib/gcc/rx-elf/8.3.0.202004-GNURX/../../../../rx-elf/lib/64-bit-double\libc_nano.a(lib_a-memcpy.o)
                              c:/renesas/gcc/redhat/gnurx-elf/8.3.0.202004/rx-elf/rx-elf/bin/../lib/gcc/rx-elf/8.3.0.202004-GNURX/../../../../rx-elf/lib/64-bit-double\libc_nano.a(lib_a-nano-svfprintf.o) (memcpy)
c:/renesas/gcc/redhat/gnurx-elf/8.3.0.202004/rx-elf/rx-elf/bin/../lib/gcc/rx-elf/8.3.0.202004-GNURX/../../../../rx-elf/lib/64-bit-double\libc_nano.a(lib_a-memmove.o)
                              c:/renesas/gcc/redhat/gnurx-elf/8.3.0.202004/rx-elf/rx-elf/bin/../lib/gcc/rx-elf/8.3.0.202004-GNURX/../../../../rx-elf/lib/64-bit-double\libc_nano.a(lib_a-nano-svfprintf.o) (memmove)
c:/renesas/gcc/redhat/gnurx-elf/8.3.0.202004/rx-elf/rx-elf/bin/../lib/gcc/rx-elf/8.3.0.202004-GNURX/../../../../rx-elf/lib/64-bit-double\libc_nano.a(lib_a-nano-freer.o)
                              c:/renesas/gcc/redhat/gnurx-elf/8.3.0.202004/rx-elf/rx-elf/bin/../lib/gcc/rx-elf/8.3.0.202004-GNURX/../../../../rx-elf/lib/64-bit-double\libc_nano.a(lib_a-nano-svfprintf.o) (_free_r)
c:/renesas/gcc/redhat/gnurx-elf/8.3.0.202004/rx-elf/rx-elf/bin/../lib/gcc/rx-elf/8.3.0.202004-GNURX/../../../../rx-elf/lib/64-bit-double\libc_nano.a(lib_a-nano-mallocr.o)
                              c:/renesas/gcc/redhat/gnurx-elf/8.3.0.202004/rx-elf/rx-elf/bin/../lib/gcc/rx-elf/8.3.0.202004-GNURX/../../../../rx-elf/lib/64-bit-double\libc_nano.a(lib_a-nano-svfprintf.o) (_malloc_r)
c:/renesas/gcc/redhat/gnurx-elf/8.3.0.202004/rx-elf/rx-elf/bin/../lib/gcc/rx-elf/8.3.0.202004-GNURX/../../../../rx-elf/lib/64-bit-double\libc_nano.a(lib_a-nano-reallocr.o)
                              c:/renesas/gcc/redhat/gnurx-elf/8.3.0.202004/rx-elf/rx-elf/bin/../lib/gcc/rx-elf/8.3.0.202004-GNURX/../../../../rx-elf/lib/64-bit-double\libc_nano.a(lib_a-nano-svfprintf.o) (_realloc_r)
c:/renesas/gcc/redhat/gnurx-elf/8.3.0.202004/rx-elf/rx-elf/bin/../lib/gcc/rx-elf/8.3.0.202004-GNURX/../../../../rx-elf/lib/64-bit-double\libc_nano.a(lib_a-sbrkr.o)
                              c:/renesas/gcc/redhat/gnurx-elf/8.3.0.202004/rx-elf/rx-elf/bin/../lib/gcc/rx-elf/8.3.0.202004-GNURX/../../../../rx-elf/lib/64-bit-double\libc_nano.a(lib_a-nano-mallocr.o) (_sbrk_r)
c:/renesas/gcc/redhat/gnurx-elf/8.3.0.202004/rx-elf/rx-elf/bin/../lib/gcc/rx-elf/8.3.0.202004-GNURX/../../../../rx-elf/lib/64-bit-double\libc_nano.a(lib_a-mlock.o)
                              c:/renesas/gcc/redhat/gnurx-elf/8.3.0.202004/rx-elf/rx-elf/bin/../lib/gcc/rx-elf/8.3.0.202004-GNURX/../../../../rx-elf/lib/64-bit-double\libc_nano.a(lib_a-nano-freer.o) (__malloc_lock)
c:/renesas/gcc/redhat/gnurx-elf/8.3.0.202004/rx-elf/rx-elf/bin/../lib/gcc/rx-elf/8.3.0.202004-GNURX/../../../../rx-elf/lib/64-bit-double\libc_nano.a(lib_a-nano-msizer.o)
                              c:/renesas/gcc/redhat/gnurx-elf/8.3.0.202004/rx-elf/rx-elf/bin/../lib/gcc/rx-elf/8.3.0.202004-GNURX/../../../../rx-elf/lib/64-bit-double\libc_nano.a(lib_a-nano-reallocr.o) (_malloc_usable_size_r)
c:/renesas/gcc/redhat/gnurx-elf/8.3.0.202004/rx-elf/rx-elf/bin/../lib/gcc/rx-elf/8.3.0.202004-GNURX/../../../../rx-elf/lib/64-bit-double\libc_nano.a(lib_a-reent.o)
                              c:/renesas/gcc/redhat/gnurx-elf/8.3.0.202004/rx-elf/rx-elf/bin/../lib/gcc/rx-elf/8.3.0.202004-GNURX/../../../../rx-elf/lib/64-bit-double\libc_nano.a(lib_a-sbrkr.o) (errno)
c:/renesas/gcc/redhat/gnurx-elf/8.3.0.202004/rx-elf/rx-elf/bin/../lib/gcc/rx-elf/8.3.0.202004-GNURX/64-bit-double\libgcc.a(_udivdi3.o)
                              ./src/smc_gen/r_bsp/mcu/all/r_bsp_common.o (__udivdi3)
c:/renesas/gcc/redhat/gnurx-elf/8.3.0.202004/rx-elf/rx-elf/bin/../lib/gcc/rx-elf/8.3.0.202004-GNURX/64-bit-double\libgcc.a(_clz.o)
                              c:/renesas/gcc/redhat/gnurx-elf/8.3.0.202004/rx-elf/rx-elf/bin/../lib/gcc/rx-elf/8.3.0.202004-GNURX/64-bit-double\libgcc.a(_udivdi3.o) (__clz_tab)

Allocating common symbols
Common symbol       size              file

xHighPriorityNormallyFullTask1
                    0x4               ./src/FreeRTOS_Demo/Full_Demo/Standard_Demo_Tasks/IntQueue.o
g_bsp_Locks         0x210             ./src/smc_gen/r_bsp/mcu/all/mcu_locks.o
xCreatedTask        0x4               ./src/FreeRTOS_Demo/Full_Demo/Standard_Demo_Tasks/death.o
xHighPriorityNormallyEmptyTask2
                    0x4               ./src/FreeRTOS_Demo/Full_Demo/Standard_Demo_Tasks/IntQueue.o
xHighPriorityNormallyFullTask2
                    0x4               ./src/FreeRTOS_Demo/Full_Demo/Standard_Demo_Tasks/IntQueue.o
xSuspendedTestQueue
                    0x4               ./src/FreeRTOS_Demo/Full_Demo/Standard_Demo_Tasks/dynamic.o
xHighPriorityNormallyEmptyTask1
                    0x4               ./src/FreeRTOS_Demo/Full_Demo/Standard_Demo_Tasks/IntQueue.o

Discarded input sections

 P              0x00000000        0x0 ./src/smc_integration/RenesasSimDebug/sim_debug_mode_hook.o
 D_1            0x00000000        0x0 ./src/smc_integration/RenesasSimDebug/sim_debug_mode_hook.o
 B_1            0x00000000        0x0 ./src/smc_integration/RenesasSimDebug/sim_debug_mode_hook.o
 P              0x00000000        0x0 ./src/smc_integration/FIT_patch.o
 D_1            0x00000000        0x0 ./src/smc_integration/FIT_patch.o
 B_1            0x00000000        0x0 ./src/smc_integration/FIT_patch.o
 .text.malloc   0x00000000        0x4 ./src/smc_integration/FIT_patch.o
 .text.free     0x00000000        0x4 ./src/smc_integration/FIT_patch.o
 P              0x00000000        0x0 ./src/smc_integration/IDE_helper.o
 D_1            0x00000000        0x0 ./src/smc_integration/IDE_helper.o
 B_1            0x00000000        0x0 ./src/smc_integration/IDE_helper.o
 P              0x00000000        0x0 ./src/smc_integration/u_bsp_lowlvl_ext.o
 D_1            0x00000000        0x0 ./src/smc_integration/u_bsp_lowlvl_ext.o
 B_1            0x00000000        0x0 ./src/smc_integration/u_bsp_lowlvl_ext.o
 P              0x00000000        0x0 ./src/smc_gen/r_gpio_rx/src/targets/rx72n/r_gpio_rx72n.o
 D_1            0x00000000        0x0 ./src/smc_gen/r_gpio_rx/src/targets/rx72n/r_gpio_rx72n.o
 B_1            0x00000000        0x0 ./src/smc_gen/r_gpio_rx/src/targets/rx72n/r_gpio_rx72n.o
 .rodata.g_gpio_dscr2_support
                0x00000000       0x18 ./src/smc_gen/r_gpio_rx/src/targets/rx72n/r_gpio_rx72n.o
 .rodata.g_gpio_dscr_support
                0x00000000       0x18 ./src/smc_gen/r_gpio_rx/src/targets/rx72n/r_gpio_rx72n.o
 .rodata.g_gpio_pull_up_support
                0x00000000       0x18 ./src/smc_gen/r_gpio_rx/src/targets/rx72n/r_gpio_rx72n.o
 .rodata.g_gpio_open_drain_p_support
                0x00000000       0x18 ./src/smc_gen/r_gpio_rx/src/targets/rx72n/r_gpio_rx72n.o
 .rodata.g_gpio_open_drain_n_support
                0x00000000       0x18 ./src/smc_gen/r_gpio_rx/src/targets/rx72n/r_gpio_rx72n.o
 .debug_info    0x00000000      0xa31 ./src/smc_gen/r_gpio_rx/src/targets/rx72n/r_gpio_rx72n.o
 .debug_abbrev  0x00000000      0x1c9 ./src/smc_gen/r_gpio_rx/src/targets/rx72n/r_gpio_rx72n.o
 .debug_aranges
                0x00000000       0x18 ./src/smc_gen/r_gpio_rx/src/targets/rx72n/r_gpio_rx72n.o
 .debug_line    0x00000000      0x34d ./src/smc_gen/r_gpio_rx/src/targets/rx72n/r_gpio_rx72n.o
 .debug_str     0x00000000      0x6be ./src/smc_gen/r_gpio_rx/src/targets/rx72n/r_gpio_rx72n.o
 .comment       0x00000000       0x37 ./src/smc_gen/r_gpio_rx/src/targets/rx72n/r_gpio_rx72n.o
 P              0x00000000        0x0 ./src/smc_gen/r_gpio_rx/src/r_gpio_rx.o
 D_1            0x00000000        0x0 ./src/smc_gen/r_gpio_rx/src/r_gpio_rx.o
 B_1            0x00000000        0x0 ./src/smc_gen/r_gpio_rx/src/r_gpio_rx.o
 .text.R_GPIO_PortWrite
                0x00000000        0xc ./src/smc_gen/r_gpio_rx/src/r_gpio_rx.o
 .text.R_GPIO_PortRead
                0x00000000        0xc ./src/smc_gen/r_gpio_rx/src/r_gpio_rx.o
 .text.R_GPIO_PortDirectionSet
                0x00000000       0x1a ./src/smc_gen/r_gpio_rx/src/r_gpio_rx.o
 .text.R_GPIO_PinRead
                0x00000000       0x16 ./src/smc_gen/r_gpio_rx/src/r_gpio_rx.o
 .text.R_GPIO_PinControl
                0x00000000      0x260 ./src/smc_gen/r_gpio_rx/src/r_gpio_rx.o
 .text.R_GPIO_GetVersion
                0x00000000        0x6 ./src/smc_gen/r_gpio_rx/src/r_gpio_rx.o
 .text.gpio_port_addr_get
                0x00000000        0x7 ./src/smc_gen/r_gpio_rx/src/r_gpio_rx.o
 .text.gpio_pin_function_check
                0x00000000        0xd ./src/smc_gen/r_gpio_rx/src/r_gpio_rx.o
 .text.gpio_set_output_type
                0x00000000       0x40 ./src/smc_gen/r_gpio_rx/src/r_gpio_rx.o
 P              0x00000000        0x0 ./src/smc_gen/r_bsp/mcu/rx72n/mcu_clocks.o
 D_1            0x00000000        0x0 ./src/smc_gen/r_bsp/mcu/rx72n/mcu_clocks.o
 B_1            0x00000000        0x0 ./src/smc_gen/r_bsp/mcu/rx72n/mcu_clocks.o
 P              0x00000000        0x0 ./src/smc_gen/r_bsp/mcu/rx72n/mcu_init.o
 D_1            0x00000000        0x0 ./src/smc_gen/r_bsp/mcu/rx72n/mcu_init.o
 B_1            0x00000000        0x0 ./src/smc_gen/r_bsp/mcu/rx72n/mcu_init.o
 P              0x00000000        0x0 ./src/smc_gen/r_bsp/mcu/rx72n/mcu_interrupts.o
 D_1            0x00000000        0x0 ./src/smc_gen/r_bsp/mcu/rx72n/mcu_interrupts.o
 B_1            0x00000000        0x0 ./src/smc_gen/r_bsp/mcu/rx72n/mcu_interrupts.o
 P              0x00000000        0x0 ./src/smc_gen/r_bsp/mcu/rx72n/mcu_mapped_interrupts.o
 D_1            0x00000000        0x0 ./src/smc_gen/r_bsp/mcu/rx72n/mcu_mapped_interrupts.o
 B_1            0x00000000        0x0 ./src/smc_gen/r_bsp/mcu/rx72n/mcu_mapped_interrupts.o
 P              0x00000000        0x0 ./src/smc_gen/r_bsp/mcu/rx72n/vecttbl.o
 D_1            0x00000000        0x0 ./src/smc_gen/r_bsp/mcu/rx72n/vecttbl.o
 B_1            0x00000000        0x0 ./src/smc_gen/r_bsp/mcu/rx72n/vecttbl.o
 P              0x00000000        0x0 ./src/smc_gen/r_bsp/mcu/all/dbsct.o
 D_1            0x00000000        0x0 ./src/smc_gen/r_bsp/mcu/all/dbsct.o
 B_1            0x00000000        0x0 ./src/smc_gen/r_bsp/mcu/all/dbsct.o
 .debug_line    0x00000000        0x0 ./src/smc_gen/r_bsp/mcu/all/dbsct.o
 .debug_str     0x00000000      0x136 ./src/smc_gen/r_bsp/mcu/all/dbsct.o
 .comment       0x00000000       0x37 ./src/smc_gen/r_bsp/mcu/all/dbsct.o
 P              0x00000000        0x0 ./src/smc_gen/r_bsp/mcu/all/lowlvl.o
 D_1            0x00000000        0x0 ./src/smc_gen/r_bsp/mcu/all/lowlvl.o
 B_1            0x00000000        0x0 ./src/smc_gen/r_bsp/mcu/all/lowlvl.o
 P              0x00000000        0x0 ./src/smc_gen/r_bsp/mcu/all/lowsrc.o
 D_1            0x00000000        0x0 ./src/smc_gen/r_bsp/mcu/all/lowsrc.o
 B_1            0x00000000        0x0 ./src/smc_gen/r_bsp/mcu/all/lowsrc.o
 .text.write    0x00000000       0x20 ./src/smc_gen/r_bsp/mcu/all/lowsrc.o
 .text.read     0x00000000        0xf ./src/smc_gen/r_bsp/mcu/all/lowsrc.o
 .text._write   0x00000000       0x20 ./src/smc_gen/r_bsp/mcu/all/lowsrc.o
 .text._read    0x00000000        0xf ./src/smc_gen/r_bsp/mcu/all/lowsrc.o
 .text.close    0x00000000        0x1 ./src/smc_gen/r_bsp/mcu/all/lowsrc.o
 .text.fstat    0x00000000        0x1 ./src/smc_gen/r_bsp/mcu/all/lowsrc.o
 .text.isatty   0x00000000        0x1 ./src/smc_gen/r_bsp/mcu/all/lowsrc.o
 .text.lseek    0x00000000        0x1 ./src/smc_gen/r_bsp/mcu/all/lowsrc.o
 .debug_frame   0x00000000       0xd4 ./src/smc_gen/r_bsp/mcu/all/lowsrc.o
 .debug_info    0x00000000      0xb0c ./src/smc_gen/r_bsp/mcu/all/lowsrc.o
 .debug_abbrev  0x00000000      0x284 ./src/smc_gen/r_bsp/mcu/all/lowsrc.o
 .debug_loc     0x00000000       0xf0 ./src/smc_gen/r_bsp/mcu/all/lowsrc.o
 .debug_aranges
                0x00000000       0x30 ./src/smc_gen/r_bsp/mcu/all/lowsrc.o
 .debug_ranges  0x00000000       0x20 ./src/smc_gen/r_bsp/mcu/all/lowsrc.o
 .debug_line    0x00000000      0x2c2 ./src/smc_gen/r_bsp/mcu/all/lowsrc.o
 .debug_str     0x00000000      0x614 ./src/smc_gen/r_bsp/mcu/all/lowsrc.o
 .comment       0x00000000       0x37 ./src/smc_gen/r_bsp/mcu/all/lowsrc.o
 P              0x00000000        0x0 ./src/smc_gen/r_bsp/mcu/all/mcu_locks.o
 D_1            0x00000000        0x0 ./src/smc_gen/r_bsp/mcu/all/mcu_locks.o
 B_1            0x00000000        0x0 ./src/smc_gen/r_bsp/mcu/all/mcu_locks.o
 P              0x00000000        0x0 ./src/smc_gen/r_bsp/mcu/all/r_bsp_common.o
 D_1            0x00000000        0x0 ./src/smc_gen/r_bsp/mcu/all/r_bsp_common.o
 B_1            0x00000000        0x0 ./src/smc_gen/r_bsp/mcu/all/r_bsp_common.o
 .text.R_BSP_GetVersion
                0x00000000        0x6 ./src/smc_gen/r_bsp/mcu/all/r_bsp_common.o
 .text.R_BSP_GetIClkFreqHz
                0x00000000        0x4 ./src/smc_gen/r_bsp/mcu/all/r_bsp_common.o
 P              0x00000000        0x0 ./src/smc_gen/r_bsp/mcu/all/r_bsp_cpu.o
 D_1            0x00000000        0x0 ./src/smc_gen/r_bsp/mcu/all/r_bsp_cpu.o
 B_1            0x00000000        0x0 ./src/smc_gen/r_bsp/mcu/all/r_bsp_cpu.o
 .text.R_BSP_InterruptsDisable
                0x00000000        0x9 ./src/smc_gen/r_bsp/mcu/all/r_bsp_cpu.o
 .text.R_BSP_InterruptsEnable
                0x00000000        0x9 ./src/smc_gen/r_bsp/mcu/all/r_bsp_cpu.o
 .text.R_BSP_RegisterProtectEnable
                0x00000000       0x88 ./src/smc_gen/r_bsp/mcu/all/r_bsp_cpu.o
 .text.R_BSP_RegisterProtectDisable
                0x00000000       0x78 ./src/smc_gen/r_bsp/mcu/all/r_bsp_cpu.o
 .text.R_BSP_SoftwareReset
                0x00000000       0x13 ./src/smc_gen/r_bsp/mcu/all/r_bsp_cpu.o
 .rodata.s_prcr_masks
                0x00000000        0x6 ./src/smc_gen/r_bsp/mcu/all/r_bsp_cpu.o
 P              0x00000000        0x0 ./src/smc_gen/r_bsp/mcu/all/r_bsp_interrupts.o
 D_1            0x00000000        0x0 ./src/smc_gen/r_bsp/mcu/all/r_bsp_interrupts.o
 B_1            0x00000000        0x0 ./src/smc_gen/r_bsp/mcu/all/r_bsp_interrupts.o
 .text.R_BSP_InterruptRead
                0x00000000       0x19 ./src/smc_gen/r_bsp/mcu/all/r_bsp_interrupts.o
 P              0x00000000        0x0 ./src/smc_gen/r_bsp/mcu/all/r_bsp_locking.o
 D_1            0x00000000        0x0 ./src/smc_gen/r_bsp/mcu/all/r_bsp_locking.o
 B_1            0x00000000        0x0 ./src/smc_gen/r_bsp/mcu/all/r_bsp_locking.o
 .text.R_BSP_SoftwareLock
                0x00000000       0x1f ./src/smc_gen/r_bsp/mcu/all/r_bsp_locking.o
 .text.R_BSP_SoftwareUnlock
                0x00000000        0x6 ./src/smc_gen/r_bsp/mcu/all/r_bsp_locking.o
 .text.R_BSP_HardwareUnlock
                0x00000000       0x12 ./src/smc_gen/r_bsp/mcu/all/r_bsp_locking.o
 P              0x00000000        0x0 ./src/smc_gen/r_bsp/mcu/all/r_bsp_mcu_startup.o
 D_1            0x00000000        0x0 ./src/smc_gen/r_bsp/mcu/all/r_bsp_mcu_startup.o
 B_1            0x00000000        0x0 ./src/smc_gen/r_bsp/mcu/all/r_bsp_mcu_startup.o
 .debug_info    0x00000000      0x9a5 ./src/smc_gen/r_bsp/mcu/all/r_bsp_mcu_startup.o
 .debug_abbrev  0x00000000      0x1b6 ./src/smc_gen/r_bsp/mcu/all/r_bsp_mcu_startup.o
 .debug_aranges
                0x00000000       0x18 ./src/smc_gen/r_bsp/mcu/all/r_bsp_mcu_startup.o
 .debug_line    0x00000000      0x310 ./src/smc_gen/r_bsp/mcu/all/r_bsp_mcu_startup.o
 .debug_str     0x00000000      0x62b ./src/smc_gen/r_bsp/mcu/all/r_bsp_mcu_startup.o
 .comment       0x00000000       0x37 ./src/smc_gen/r_bsp/mcu/all/r_bsp_mcu_startup.o
 P              0x00000000        0x0 ./src/smc_gen/r_bsp/mcu/all/r_bsp_software_interrupt.o
 D_1            0x00000000        0x0 ./src/smc_gen/r_bsp/mcu/all/r_bsp_software_interrupt.o
 B_1            0x00000000        0x0 ./src/smc_gen/r_bsp/mcu/all/r_bsp_software_interrupt.o
 .debug_info    0x00000000      0x9a5 ./src/smc_gen/r_bsp/mcu/all/r_bsp_software_interrupt.o
 .debug_abbrev  0x00000000      0x1b6 ./src/smc_gen/r_bsp/mcu/all/r_bsp_software_interrupt.o
 .debug_aranges
                0x00000000       0x18 ./src/smc_gen/r_bsp/mcu/all/r_bsp_software_interrupt.o
 .debug_line    0x00000000      0x310 ./src/smc_gen/r_bsp/mcu/all/r_bsp_software_interrupt.o
 .debug_str     0x00000000      0x632 ./src/smc_gen/r_bsp/mcu/all/r_bsp_software_interrupt.o
 .comment       0x00000000       0x37 ./src/smc_gen/r_bsp/mcu/all/r_bsp_software_interrupt.o
 P              0x00000000        0x0 ./src/smc_gen/r_bsp/mcu/all/r_rx_intrinsic_functions.o
 D_1            0x00000000        0x0 ./src/smc_gen/r_bsp/mcu/all/r_rx_intrinsic_functions.o
 B_1            0x00000000        0x0 ./src/smc_gen/r_bsp/mcu/all/r_rx_intrinsic_functions.o
 .text.bsp_get_bpsw
                0x00000000        0xa ./src/smc_gen/r_bsp/mcu/all/r_rx_intrinsic_functions.o
 .text.bsp_get_bpc
                0x00000000        0xa ./src/smc_gen/r_bsp/mcu/all/r_rx_intrinsic_functions.o
 .text.bsp_get_extb
                0x00000000        0xa ./src/smc_gen/r_bsp/mcu/all/r_rx_intrinsic_functions.o
 .text.bsp_move_from_acc_hi_long
                0x00000000        0xa ./src/smc_gen/r_bsp/mcu/all/r_rx_intrinsic_functions.o
 .text.bsp_move_from_acc_mi_long
                0x00000000        0xa ./src/smc_gen/r_bsp/mcu/all/r_rx_intrinsic_functions.o
 .text.bsp_get_dpsw
                0x00000000        0xb ./src/smc_gen/r_bsp/mcu/all/r_rx_intrinsic_functions.o
 .text.bsp_get_decnt
                0x00000000        0xb ./src/smc_gen/r_bsp/mcu/all/r_rx_intrinsic_functions.o
 .text.bsp_get_depc
                0x00000000        0xb ./src/smc_gen/r_bsp/mcu/all/r_rx_intrinsic_functions.o
 .text.R_BSP_Max
                0x00000000        0x4 ./src/smc_gen/r_bsp/mcu/all/r_rx_intrinsic_functions.o
 .text.R_BSP_Min
                0x00000000        0x4 ./src/smc_gen/r_bsp/mcu/all/r_rx_intrinsic_functions.o
 .text.R_BSP_MulAndAccOperation_B
                0x00000000       0x30 ./src/smc_gen/r_bsp/mcu/all/r_rx_intrinsic_functions.o
 .text.R_BSP_MulAndAccOperation_W
                0x00000000       0x30 ./src/smc_gen/r_bsp/mcu/all/r_rx_intrinsic_functions.o
 .text.R_BSP_MulAndAccOperation_L
                0x00000000       0x30 ./src/smc_gen/r_bsp/mcu/all/r_rx_intrinsic_functions.o
 .text.R_BSP_RotateLeftWithCarry
                0x00000000        0x3 ./src/smc_gen/r_bsp/mcu/all/r_rx_intrinsic_functions.o
 .text.R_BSP_RotateRightWithCarry
                0x00000000        0x3 ./src/smc_gen/r_bsp/mcu/all/r_rx_intrinsic_functions.o
 .text.R_BSP_RotateLeft
                0x00000000        0x4 ./src/smc_gen/r_bsp/mcu/all/r_rx_intrinsic_functions.o
 .text.R_BSP_RotateRight
                0x00000000        0x4 ./src/smc_gen/r_bsp/mcu/all/r_rx_intrinsic_functions.o
 .text.R_BSP_SignedMultiplication
                0x00000000        0x8 ./src/smc_gen/r_bsp/mcu/all/r_rx_intrinsic_functions.o
 .text.R_BSP_UnsignedMultiplication
                0x00000000        0x8 ./src/smc_gen/r_bsp/mcu/all/r_rx_intrinsic_functions.o
 .text.R_BSP_ChangeToUserMode
                0x00000000       0x20 ./src/smc_gen/r_bsp/mcu/all/r_rx_intrinsic_functions.o
 .text.R_BSP_SetACC
                0x00000000        0x7 ./src/smc_gen/r_bsp/mcu/all/r_rx_intrinsic_functions.o
 .text.R_BSP_GetACC
                0x00000000        0x9 ./src/smc_gen/r_bsp/mcu/all/r_rx_intrinsic_functions.o
 .text.R_BSP_MulAndAccOperation_2byte
                0x00000000       0x50 ./src/smc_gen/r_bsp/mcu/all/r_rx_intrinsic_functions.o
 .text.R_BSP_MulAndAccOperation_FixedPoint1
                0x00000000       0x50 ./src/smc_gen/r_bsp/mcu/all/r_rx_intrinsic_functions.o
 .text.R_BSP_MulAndAccOperation_FixedPoint2
                0x00000000       0x50 ./src/smc_gen/r_bsp/mcu/all/r_rx_intrinsic_functions.o
 .text.R_BSP_SetBPSW
                0x00000000        0x4 ./src/smc_gen/r_bsp/mcu/all/r_rx_intrinsic_functions.o
 .text.R_BSP_GetBPSW
                0x00000000        0xc ./src/smc_gen/r_bsp/mcu/all/r_rx_intrinsic_functions.o
 .text.R_BSP_SetBPC
                0x00000000        0x4 ./src/smc_gen/r_bsp/mcu/all/r_rx_intrinsic_functions.o
 .text.R_BSP_GetBPC
                0x00000000        0xc ./src/smc_gen/r_bsp/mcu/all/r_rx_intrinsic_functions.o
 .text.R_BSP_SetEXTB
                0x00000000        0x4 ./src/smc_gen/r_bsp/mcu/all/r_rx_intrinsic_functions.o
 .text.R_BSP_GetEXTB
                0x00000000        0xc ./src/smc_gen/r_bsp/mcu/all/r_rx_intrinsic_functions.o
 .text.R_BSP_MoveToAccHiLong
                0x00000000        0x4 ./src/smc_gen/r_bsp/mcu/all/r_rx_intrinsic_functions.o
 .text.R_BSP_MoveToAccLoLong
                0x00000000        0x4 ./src/smc_gen/r_bsp/mcu/all/r_rx_intrinsic_functions.o
 .text.R_BSP_MoveFromAccHiLong
                0x00000000        0xc ./src/smc_gen/r_bsp/mcu/all/r_rx_intrinsic_functions.o
 .text.R_BSP_MoveFromAccMiLong
                0x00000000        0xc ./src/smc_gen/r_bsp/mcu/all/r_rx_intrinsic_functions.o
 .text.R_BSP_BitReverse
                0x00000000        0x4 ./src/smc_gen/r_bsp/mcu/all/r_rx_intrinsic_functions.o
 .text.R_BSP_GetDPSW
                0x00000000        0xc ./src/smc_gen/r_bsp/mcu/all/r_rx_intrinsic_functions.o
 .text.R_BSP_SetDECNT
                0x00000000        0x5 ./src/smc_gen/r_bsp/mcu/all/r_rx_intrinsic_functions.o
 .text.R_BSP_GetDECNT
                0x00000000        0xc ./src/smc_gen/r_bsp/mcu/all/r_rx_intrinsic_functions.o
 .text.R_BSP_GetDEPC
                0x00000000        0xc ./src/smc_gen/r_bsp/mcu/all/r_rx_intrinsic_functions.o
 P              0x00000000        0x0 ./src/smc_gen/r_bsp/mcu/all/reset_program.o
 D_1            0x00000000        0x0 ./src/smc_gen/r_bsp/mcu/all/reset_program.o
 B_1            0x00000000        0x0 ./src/smc_gen/r_bsp/mcu/all/reset_program.o
 P              0x00000000        0x0 ./src/smc_gen/r_bsp/mcu/all/resetprg.o
 D_1            0x00000000        0x0 ./src/smc_gen/r_bsp/mcu/all/resetprg.o
 B_1            0x00000000        0x0 ./src/smc_gen/r_bsp/mcu/all/resetprg.o
 P              0x00000000        0x0 ./src/smc_gen/r_bsp/mcu/all/sbrk.o
 D_1            0x00000000        0x0 ./src/smc_gen/r_bsp/mcu/all/sbrk.o
 B_1            0x00000000        0x0 ./src/smc_gen/r_bsp/mcu/all/sbrk.o
 .debug_info    0x00000000      0x924 ./src/smc_gen/r_bsp/mcu/all/sbrk.o
 .debug_abbrev  0x00000000      0x1b1 ./src/smc_gen/r_bsp/mcu/all/sbrk.o
 .debug_aranges
                0x00000000       0x18 ./src/smc_gen/r_bsp/mcu/all/sbrk.o
 .debug_line    0x00000000      0x206 ./src/smc_gen/r_bsp/mcu/all/sbrk.o
 .debug_str     0x00000000      0x5d1 ./src/smc_gen/r_bsp/mcu/all/sbrk.o
 .comment       0x00000000       0x37 ./src/smc_gen/r_bsp/mcu/all/sbrk.o
 P              0x00000000        0x0 ./src/smc_gen/r_bsp/board/generic_rx72n/hwsetup.o
 D_1            0x00000000        0x0 ./src/smc_gen/r_bsp/board/generic_rx72n/hwsetup.o
 B_1            0x00000000        0x0 ./src/smc_gen/r_bsp/board/generic_rx72n/hwsetup.o
 P              0x00000000        0x0 ./src/smc_gen/general/r_cg_hardware_setup.o
 D_1            0x00000000        0x0 ./src/smc_gen/general/r_cg_hardware_setup.o
 B_1            0x00000000        0x0 ./src/smc_gen/general/r_cg_hardware_setup.o
 .text.R_CG_Config_Create
                0x00000000       0x45 ./src/smc_gen/general/r_cg_hardware_setup.o
 .text.R_FIT_Board_Support_Settings
                0x00000000       0x20 ./src/smc_gen/general/r_cg_hardware_setup.o
 P              0x00000000        0x0 ./src/smc_gen/general/r_smc_cgc.o
 D_1            0x00000000        0x0 ./src/smc_gen/general/r_smc_cgc.o
 B_1            0x00000000        0x0 ./src/smc_gen/general/r_smc_cgc.o
 P              0x00000000        0x0 ./src/smc_gen/general/r_smc_cgc_user.o
 D_1            0x00000000        0x0 ./src/smc_gen/general/r_smc_cgc_user.o
 B_1            0x00000000        0x0 ./src/smc_gen/general/r_smc_cgc_user.o
 P              0x00000000        0x0 ./src/smc_gen/general/r_smc_interrupt.o
 D_1            0x00000000        0x0 ./src/smc_gen/general/r_smc_interrupt.o
 B_1            0x00000000        0x0 ./src/smc_gen/general/r_smc_interrupt.o
 .text.R_Interrupt_Create
                0x00000000        0x1 ./src/smc_gen/general/r_smc_interrupt.o
 .debug_frame   0x00000000       0x24 ./src/smc_gen/general/r_smc_interrupt.o
 .debug_info    0x00000000      0x9bf ./src/smc_gen/general/r_smc_interrupt.o
 .debug_abbrev  0x00000000      0x1d4 ./src/smc_gen/general/r_smc_interrupt.o
 .debug_aranges
                0x00000000       0x20 ./src/smc_gen/general/r_smc_interrupt.o
 .debug_ranges  0x00000000       0x10 ./src/smc_gen/general/r_smc_interrupt.o
 .debug_line    0x00000000      0x34e ./src/smc_gen/general/r_smc_interrupt.o
 .debug_str     0x00000000      0x636 ./src/smc_gen/general/r_smc_interrupt.o
 .comment       0x00000000       0x37 ./src/smc_gen/general/r_smc_interrupt.o
 P              0x00000000        0x0 ./src/frtos_startup/freertos_object_init.o
 D_1            0x00000000        0x0 ./src/frtos_startup/freertos_object_init.o
 B_1            0x00000000        0x0 ./src/frtos_startup/freertos_object_init.o
 .text.Kernel_Object_init
                0x00000000        0x1 ./src/frtos_startup/freertos_object_init.o
 .text.Object_init_manual
                0x00000000        0x1 ./src/frtos_startup/freertos_object_init.o
 .debug_frame   0x00000000       0x34 ./src/frtos_startup/freertos_object_init.o
 .debug_info    0x00000000       0x8c ./src/frtos_startup/freertos_object_init.o
 .debug_abbrev  0x00000000       0x5e ./src/frtos_startup/freertos_object_init.o
 .debug_aranges
                0x00000000       0x20 ./src/frtos_startup/freertos_object_init.o
 .debug_ranges  0x00000000       0x10 ./src/frtos_startup/freertos_object_init.o
 .debug_line    0x00000000       0x60 ./src/frtos_startup/freertos_object_init.o
 .debug_str     0x00000000      0x1e7 ./src/frtos_startup/freertos_object_init.o
 .comment       0x00000000       0x37 ./src/frtos_startup/freertos_object_init.o
 P              0x00000000        0x0 ./src/frtos_startup/freertos_start.o
 D_1            0x00000000        0x0 ./src/frtos_startup/freertos_start.o
 B_1            0x00000000        0x0 ./src/frtos_startup/freertos_start.o
 .text.demo_main
                0x00000000       0x50 ./src/frtos_startup/freertos_start.o
 P              0x00000000        0x0 ./src/FreeRTOS_Demo/Full_Demo/Standard_Demo_Tasks/BlockQ.o
 D_1            0x00000000        0x0 ./src/FreeRTOS_Demo/Full_Demo/Standard_Demo_Tasks/BlockQ.o
 B_1            0x00000000        0x0 ./src/FreeRTOS_Demo/Full_Demo/Standard_Demo_Tasks/BlockQ.o
 P              0x00000000        0x0 ./src/FreeRTOS_Demo/Full_Demo/Standard_Demo_Tasks/EventGroupsDemo.o
 D_1            0x00000000        0x0 ./src/FreeRTOS_Demo/Full_Demo/Standard_Demo_Tasks/EventGroupsDemo.o
 B_1            0x00000000        0x0 ./src/FreeRTOS_Demo/Full_Demo/Standard_Demo_Tasks/EventGroupsDemo.o
 P              0x00000000        0x0 ./src/FreeRTOS_Demo/Full_Demo/Standard_Demo_Tasks/GenQTest.o
 D_1            0x00000000        0x0 ./src/FreeRTOS_Demo/Full_Demo/Standard_Demo_Tasks/GenQTest.o
 B_1            0x00000000        0x0 ./src/FreeRTOS_Demo/Full_Demo/Standard_Demo_Tasks/GenQTest.o
 P              0x00000000        0x0 ./src/FreeRTOS_Demo/Full_Demo/Standard_Demo_Tasks/IntQueue.o
 D_1            0x00000000        0x0 ./src/FreeRTOS_Demo/Full_Demo/Standard_Demo_Tasks/IntQueue.o
 B_1            0x00000000        0x0 ./src/FreeRTOS_Demo/Full_Demo/Standard_Demo_Tasks/IntQueue.o
 .text.prv2ndHigherPriorityNormallyFullTask
                0x00000000       0xb8 ./src/FreeRTOS_Demo/Full_Demo/Standard_Demo_Tasks/IntQueue.o
 .text.prv1stHigherPriorityNormallyFullTask
                0x00000000      0x1a0 ./src/FreeRTOS_Demo/Full_Demo/Standard_Demo_Tasks/IntQueue.o
 .text.prvLowerPriorityNormallyFullTask
                0x00000000       0xb0 ./src/FreeRTOS_Demo/Full_Demo/Standard_Demo_Tasks/IntQueue.o
 .text.prvLowerPriorityNormallyEmptyTask
                0x00000000       0xc0 ./src/FreeRTOS_Demo/Full_Demo/Standard_Demo_Tasks/IntQueue.o
 .text.prvHigherPriorityNormallyEmptyTask
                0x00000000      0x198 ./src/FreeRTOS_Demo/Full_Demo/Standard_Demo_Tasks/IntQueue.o
 .rodata.vStartInterruptQueueTasks.str1.1
                0x00000000       0x24 ./src/FreeRTOS_Demo/Full_Demo/Standard_Demo_Tasks/IntQueue.o
 .text.vStartInterruptQueueTasks
                0x00000000       0xda ./src/FreeRTOS_Demo/Full_Demo/Standard_Demo_Tasks/IntQueue.o
 .text.xAreIntQueueTasksStillRunning
                0x00000000       0xa0 ./src/FreeRTOS_Demo/Full_Demo/Standard_Demo_Tasks/IntQueue.o
 .bss.uxLastLowPriorityLoops2.2577
                0x00000000        0x4 ./src/FreeRTOS_Demo/Full_Demo/Standard_Demo_Tasks/IntQueue.o
 .bss.uxLastLowPriorityLoops1.2576
                0x00000000        0x4 ./src/FreeRTOS_Demo/Full_Demo/Standard_Demo_Tasks/IntQueue.o
 .bss.uxLastHighPriorityLoops2.2575
                0x00000000        0x4 ./src/FreeRTOS_Demo/Full_Demo/Standard_Demo_Tasks/IntQueue.o
 .bss.uxLastHighPriorityLoops1.2574
                0x00000000        0x4 ./src/FreeRTOS_Demo/Full_Demo/Standard_Demo_Tasks/IntQueue.o
 .bss.xWasSuspended
                0x00000000        0x4 ./src/FreeRTOS_Demo/Full_Demo/Standard_Demo_Tasks/IntQueue.o
 .bss.uxLowPriorityLoops2
                0x00000000        0x4 ./src/FreeRTOS_Demo/Full_Demo/Standard_Demo_Tasks/IntQueue.o
 .bss.uxLowPriorityLoops1
                0x00000000        0x4 ./src/FreeRTOS_Demo/Full_Demo/Standard_Demo_Tasks/IntQueue.o
 .bss.uxHighPriorityLoops2
                0x00000000        0x4 ./src/FreeRTOS_Demo/Full_Demo/Standard_Demo_Tasks/IntQueue.o
 .bss.uxHighPriorityLoops1
                0x00000000        0x4 ./src/FreeRTOS_Demo/Full_Demo/Standard_Demo_Tasks/IntQueue.o
 COMMON         0x00000000       0x10 ./src/FreeRTOS_Demo/Full_Demo/Standard_Demo_Tasks/IntQueue.o
 P              0x00000000        0x0 ./src/FreeRTOS_Demo/Full_Demo/Standard_Demo_Tasks/IntSemTest.o
 D_1            0x00000000        0x0 ./src/FreeRTOS_Demo/Full_Demo/Standard_Demo_Tasks/IntSemTest.o
 B_1            0x00000000        0x0 ./src/FreeRTOS_Demo/Full_Demo/Standard_Demo_Tasks/IntSemTest.o
 .rodata.xInterruptGivePeriod
                0x00000000        0x4 ./src/FreeRTOS_Demo/Full_Demo/Standard_Demo_Tasks/IntSemTest.o
 P              0x00000000        0x0 ./src/FreeRTOS_Demo/Full_Demo/Standard_Demo_Tasks/QueueOverwrite.o
 D_1            0x00000000        0x0 ./src/FreeRTOS_Demo/Full_Demo/Standard_Demo_Tasks/QueueOverwrite.o
 B_1            0x00000000        0x0 ./src/FreeRTOS_Demo/Full_Demo/Standard_Demo_Tasks/QueueOverwrite.o
 P              0x00000000        0x0 ./src/FreeRTOS_Demo/Full_Demo/Standard_Demo_Tasks/TaskNotify.o
 D_1            0x00000000        0x0 ./src/FreeRTOS_Demo/Full_Demo/Standard_Demo_Tasks/TaskNotify.o
 B_1            0x00000000        0x0 ./src/FreeRTOS_Demo/Full_Demo/Standard_Demo_Tasks/TaskNotify.o
 P              0x00000000        0x0 ./src/FreeRTOS_Demo/Full_Demo/Standard_Demo_Tasks/TaskNotifyArray.o
 D_1            0x00000000        0x0 ./src/FreeRTOS_Demo/Full_Demo/Standard_Demo_Tasks/TaskNotifyArray.o
 B_1            0x00000000        0x0 ./src/FreeRTOS_Demo/Full_Demo/Standard_Demo_Tasks/TaskNotifyArray.o
 P              0x00000000        0x0 ./src/FreeRTOS_Demo/Full_Demo/Standard_Demo_Tasks/TimerDemo.o
 D_1            0x00000000        0x0 ./src/FreeRTOS_Demo/Full_Demo/Standard_Demo_Tasks/TimerDemo.o
 B_1            0x00000000        0x0 ./src/FreeRTOS_Demo/Full_Demo/Standard_Demo_Tasks/TimerDemo.o
 .text.vTimerDemoIncludeBacklogTests
                0x00000000        0x9 ./src/FreeRTOS_Demo/Full_Demo/Standard_Demo_Tasks/TimerDemo.o
 P              0x00000000        0x0 ./src/FreeRTOS_Demo/Full_Demo/Standard_Demo_Tasks/blocktim.o
 D_1            0x00000000        0x0 ./src/FreeRTOS_Demo/Full_Demo/Standard_Demo_Tasks/blocktim.o
 B_1            0x00000000        0x0 ./src/FreeRTOS_Demo/Full_Demo/Standard_Demo_Tasks/blocktim.o
 P              0x00000000        0x0 ./src/FreeRTOS_Demo/Full_Demo/Standard_Demo_Tasks/countsem.o
 D_1            0x00000000        0x0 ./src/FreeRTOS_Demo/Full_Demo/Standard_Demo_Tasks/countsem.o
 B_1            0x00000000        0x0 ./src/FreeRTOS_Demo/Full_Demo/Standard_Demo_Tasks/countsem.o
 P              0x00000000        0x0 ./src/FreeRTOS_Demo/Full_Demo/Standard_Demo_Tasks/death.o
 D_1            0x00000000        0x0 ./src/FreeRTOS_Demo/Full_Demo/Standard_Demo_Tasks/death.o
 B_1            0x00000000        0x0 ./src/FreeRTOS_Demo/Full_Demo/Standard_Demo_Tasks/death.o
 P              0x00000000        0x0 ./src/FreeRTOS_Demo/Full_Demo/Standard_Demo_Tasks/dynamic.o
 D_1            0x00000000        0x0 ./src/FreeRTOS_Demo/Full_Demo/Standard_Demo_Tasks/dynamic.o
 B_1            0x00000000        0x0 ./src/FreeRTOS_Demo/Full_Demo/Standard_Demo_Tasks/dynamic.o
 P              0x00000000        0x0 ./src/FreeRTOS_Demo/Full_Demo/Standard_Demo_Tasks/flop.o
 D_1            0x00000000        0x0 ./src/FreeRTOS_Demo/Full_Demo/Standard_Demo_Tasks/flop.o
 B_1            0x00000000        0x0 ./src/FreeRTOS_Demo/Full_Demo/Standard_Demo_Tasks/flop.o
 P              0x00000000        0x0 ./src/FreeRTOS_Demo/Full_Demo/Standard_Demo_Tasks/recmutex.o
 D_1            0x00000000        0x0 ./src/FreeRTOS_Demo/Full_Demo/Standard_Demo_Tasks/recmutex.o
 B_1            0x00000000        0x0 ./src/FreeRTOS_Demo/Full_Demo/Standard_Demo_Tasks/recmutex.o
 P              0x00000000        0x0 ./src/FreeRTOS_Demo/Full_Demo/Standard_Demo_Tasks/semtest.o
 D_1            0x00000000        0x0 ./src/FreeRTOS_Demo/Full_Demo/Standard_Demo_Tasks/semtest.o
 B_1            0x00000000        0x0 ./src/FreeRTOS_Demo/Full_Demo/Standard_Demo_Tasks/semtest.o
 P              0x00000000        0x0 ./src/FreeRTOS_Demo/Full_Demo/FreeRTOS-Plus-CLI/FreeRTOS_CLI.o
 D_1            0x00000000        0x0 ./src/FreeRTOS_Demo/Full_Demo/FreeRTOS-Plus-CLI/FreeRTOS_CLI.o
 B_1            0x00000000        0x0 ./src/FreeRTOS_Demo/Full_Demo/FreeRTOS-Plus-CLI/FreeRTOS_CLI.o
 P              0x00000000        0x0 ./src/FreeRTOS_Demo/Full_Demo/IntQueueTimer.o
 D_1            0x00000000        0x0 ./src/FreeRTOS_Demo/Full_Demo/IntQueueTimer.o
 B_1            0x00000000        0x0 ./src/FreeRTOS_Demo/Full_Demo/IntQueueTimer.o
 .text.vInitialiseTimerForIntQueueTest
                0x00000000       0xd0 ./src/FreeRTOS_Demo/Full_Demo/IntQueueTimer.o
 P              0x00000000        0x0 ./src/FreeRTOS_Demo/Full_Demo/Sample-CLI-commands.o
 D_1            0x00000000        0x0 ./src/FreeRTOS_Demo/Full_Demo/Sample-CLI-commands.o
 B_1            0x00000000        0x0 ./src/FreeRTOS_Demo/Full_Demo/Sample-CLI-commands.o
 P              0x00000000        0x0 ./src/FreeRTOS_Demo/Full_Demo/UARTCommandConsole.o
 D_1            0x00000000        0x0 ./src/FreeRTOS_Demo/Full_Demo/UARTCommandConsole.o
 B_1            0x00000000        0x0 ./src/FreeRTOS_Demo/Full_Demo/UARTCommandConsole.o
 .text.vOutputString
                0x00000000       0x3e ./src/FreeRTOS_Demo/Full_Demo/UARTCommandConsole.o
 P              0x00000000        0x0 ./src/FreeRTOS_Demo/Full_Demo/main_full.o
 D_1            0x00000000        0x0 ./src/FreeRTOS_Demo/Full_Demo/main_full.o
 B_1            0x00000000        0x0 ./src/FreeRTOS_Demo/Full_Demo/main_full.o
 P              0x00000000        0x0 ./src/FreeRTOS_Demo/Full_Demo/serial.o
 D_1            0x00000000        0x0 ./src/FreeRTOS_Demo/Full_Demo/serial.o
 B_1            0x00000000        0x0 ./src/FreeRTOS_Demo/Full_Demo/serial.o
 P              0x00000000        0x0 ./src/FreeRTOS_Demo/Blinky_Demo/main_blinky.o
 D_1            0x00000000        0x0 ./src/FreeRTOS_Demo/Blinky_Demo/main_blinky.o
 B_1            0x00000000        0x0 ./src/FreeRTOS_Demo/Blinky_Demo/main_blinky.o
 .text.prvQueueSendTask
                0x00000000       0x58 ./src/FreeRTOS_Demo/Blinky_Demo/main_blinky.o
 .rodata.prvQueueReceiveTask.str1.1
                0x00000000       0x24 ./src/FreeRTOS_Demo/Blinky_Demo/main_blinky.o
 .text.prvQueueReceiveTask
                0x00000000       0x58 ./src/FreeRTOS_Demo/Blinky_Demo/main_blinky.o
 .rodata.main_blinky.str1.1
                0x00000000        0x6 ./src/FreeRTOS_Demo/Blinky_Demo/main_blinky.o
 .text.main_blinky
                0x00000000       0x58 ./src/FreeRTOS_Demo/Blinky_Demo/main_blinky.o
 .bss.xQueue    0x00000000        0x4 ./src/FreeRTOS_Demo/Blinky_Demo/main_blinky.o
 .debug_frame   0x00000000       0x80 ./src/FreeRTOS_Demo/Blinky_Demo/main_blinky.o
 .debug_info    0x00000000      0xcf2 ./src/FreeRTOS_Demo/Blinky_Demo/main_blinky.o
 .debug_abbrev  0x00000000      0x2b1 ./src/FreeRTOS_Demo/Blinky_Demo/main_blinky.o
 .debug_loc     0x00000000       0x60 ./src/FreeRTOS_Demo/Blinky_Demo/main_blinky.o
 .debug_aranges
                0x00000000       0x30 ./src/FreeRTOS_Demo/Blinky_Demo/main_blinky.o
 .debug_ranges  0x00000000       0x20 ./src/FreeRTOS_Demo/Blinky_Demo/main_blinky.o
 .debug_line    0x00000000      0x5a8 ./src/FreeRTOS_Demo/Blinky_Demo/main_blinky.o
 .debug_str     0x00000000      0x7bd ./src/FreeRTOS_Demo/Blinky_Demo/main_blinky.o
 .comment       0x00000000       0x37 ./src/FreeRTOS_Demo/Blinky_Demo/main_blinky.o
 P              0x00000000        0x0 ./src/FreeRTOS/Source/portable/MemMang/heap_4.o
 D_1            0x00000000        0x0 ./src/FreeRTOS/Source/portable/MemMang/heap_4.o
 B_1            0x00000000        0x0 ./src/FreeRTOS/Source/portable/MemMang/heap_4.o
 .text.vPortInitialiseBlocks
                0x00000000        0x1 ./src/FreeRTOS/Source/portable/MemMang/heap_4.o
 .text.vPortGetHeapStats
                0x00000000       0x80 ./src/FreeRTOS/Source/portable/MemMang/heap_4.o
 P              0x00000000        0x0 ./src/FreeRTOS/Source/portable/GCC/RX_RenesasSim/port.o
 D_1            0x00000000        0x0 ./src/FreeRTOS/Source/portable/GCC/RX_RenesasSim/port.o
 B_1            0x00000000        0x0 ./src/FreeRTOS/Source/portable/GCC/RX_RenesasSim/port.o
 .text.vPortEndScheduler
                0x00000000       0x10 ./src/FreeRTOS/Source/portable/GCC/RX_RenesasSim/port.o
 P              0x00000000        0x0 ./src/FreeRTOS/Source/event_groups.o
 D_1            0x00000000        0x0 ./src/FreeRTOS/Source/event_groups.o
 B_1            0x00000000        0x0 ./src/FreeRTOS/Source/event_groups.o
 .text.uxEventGroupGetNumber
                0x00000000        0x9 ./src/FreeRTOS/Source/event_groups.o
 .text.vEventGroupSetNumber
                0x00000000        0x3 ./src/FreeRTOS/Source/event_groups.o
 P              0x00000000        0x0 ./src/FreeRTOS/Source/list.o
 D_1            0x00000000        0x0 ./src/FreeRTOS/Source/list.o
 B_1            0x00000000        0x0 ./src/FreeRTOS/Source/list.o
 P              0x00000000        0x0 ./src/FreeRTOS/Source/queue.o
 D_1            0x00000000        0x0 ./src/FreeRTOS/Source/queue.o
 B_1            0x00000000        0x0 ./src/FreeRTOS/Source/queue.o
 .text.vQueueDelete
                0x00000000       0x17 ./src/FreeRTOS/Source/queue.o
 .text.uxQueueGetQueueNumber
                0x00000000        0x3 ./src/FreeRTOS/Source/queue.o
 .text.vQueueSetQueueNumber
                0x00000000        0x3 ./src/FreeRTOS/Source/queue.o
 .text.ucQueueGetQueueType
                0x00000000        0x4 ./src/FreeRTOS/Source/queue.o
 .text.xQueueCreateSet
                0x00000000       0x80 ./src/FreeRTOS/Source/queue.o
 .text.xQueueAddToSet
                0x00000000       0x30 ./src/FreeRTOS/Source/queue.o
 .text.xQueueRemoveFromSet
                0x00000000       0x28 ./src/FreeRTOS/Source/queue.o
 .text.xQueueSelectFromSet
                0x00000000       0x11 ./src/FreeRTOS/Source/queue.o
 P              0x00000000        0x0 ./src/FreeRTOS/Source/stream_buffer.o
 D_1            0x00000000        0x0 ./src/FreeRTOS/Source/stream_buffer.o
 B_1            0x00000000        0x0 ./src/FreeRTOS/Source/stream_buffer.o
 .text.xStreamBufferGenericCreate
                0x00000000       0x70 ./src/FreeRTOS/Source/stream_buffer.o
 .text.vStreamBufferDelete
                0x00000000       0x33 ./src/FreeRTOS/Source/stream_buffer.o
 .text.xStreamBufferReset
                0x00000000       0x60 ./src/FreeRTOS/Source/stream_buffer.o
 .text.xStreamBufferSetTriggerLevel
                0x00000000       0x30 ./src/FreeRTOS/Source/stream_buffer.o
 .text.xStreamBufferSpacesAvailable
                0x00000000       0x50 ./src/FreeRTOS/Source/stream_buffer.o
 .text.xStreamBufferBytesAvailable
                0x00000000       0x38 ./src/FreeRTOS/Source/stream_buffer.o
 .text.xStreamBufferSend
                0x00000000      0x230 ./src/FreeRTOS/Source/stream_buffer.o
 .text.xStreamBufferReceive
                0x00000000      0x1c0 ./src/FreeRTOS/Source/stream_buffer.o
 .text.xStreamBufferNextMessageLengthBytes
                0x00000000       0x88 ./src/FreeRTOS/Source/stream_buffer.o
 .text.xStreamBufferIsEmpty
                0x00000000       0x23 ./src/FreeRTOS/Source/stream_buffer.o
 .text.xStreamBufferIsFull
                0x00000000       0x68 ./src/FreeRTOS/Source/stream_buffer.o
 .text.uxStreamBufferGetStreamBufferNumber
                0x00000000        0x3 ./src/FreeRTOS/Source/stream_buffer.o
 .text.vStreamBufferSetStreamBufferNumber
                0x00000000        0x3 ./src/FreeRTOS/Source/stream_buffer.o
 .text.ucStreamBufferGetStreamBufferType
                0x00000000        0x5 ./src/FreeRTOS/Source/stream_buffer.o
 P              0x00000000        0x0 ./src/FreeRTOS/Source/tasks.o
 D_1            0x00000000        0x0 ./src/FreeRTOS/Source/tasks.o
 B_1            0x00000000        0x0 ./src/FreeRTOS/Source/tasks.o
 .text.vTaskEndScheduler
                0x00000000       0x20 ./src/FreeRTOS/Source/tasks.o
 .text.pcTaskGetName
                0x00000000       0x28 ./src/FreeRTOS/Source/tasks.o
 .text.vTaskSetTimeOutState
                0x00000000       0x80 ./src/FreeRTOS/Source/tasks.o
 .text.uxTaskGetTaskNumber
                0x00000000        0x9 ./src/FreeRTOS/Source/tasks.o
 .text.vTaskSetTaskNumber
                0x00000000        0x6 ./src/FreeRTOS/Source/tasks.o
 .text.vTaskGetInfo
                0x00000000       0xb0 ./src/FreeRTOS/Source/tasks.o
 .text.uxTaskGetStackHighWaterMark
                0x00000000       0x38 ./src/FreeRTOS/Source/tasks.o
 P              0x00000000        0x0 ./src/FreeRTOS/Source/timers.o
 D_1            0x00000000        0x0 ./src/FreeRTOS/Source/timers.o
 B_1            0x00000000        0x0 ./src/FreeRTOS/Source/timers.o
 .text.xTimerGetTimerDaemonTaskHandle
                0x00000000       0x19 ./src/FreeRTOS/Source/timers.o
 .text.xTimerGetPeriod
                0x00000000       0x14 ./src/FreeRTOS/Source/timers.o
 .text.xTimerGetExpiryTime
                0x00000000       0x14 ./src/FreeRTOS/Source/timers.o
 .text.xTimerPendFunctionCall
                0x00000000       0x40 ./src/FreeRTOS/Source/timers.o
 .text.uxTimerGetTimerNumber
                0x00000000        0x3 ./src/FreeRTOS/Source/timers.o
 .text.vTimerSetTimerNumber
                0x00000000        0x3 ./src/FreeRTOS/Source/timers.o
 P              0x00000000        0x0 c:/renesas/gcc/redhat/gnurx-elf/8.3.0.202004/rx-elf/rx-elf/bin/../lib/gcc/rx-elf/8.3.0.202004-GNURX/../../../../rx-elf/lib/64-bit-double\libc_nano.a(lib_a-sprintf.o)
 D_1            0x00000000        0x0 c:/renesas/gcc/redhat/gnurx-elf/8.3.0.202004/rx-elf/rx-elf/bin/../lib/gcc/rx-elf/8.3.0.202004-GNURX/../../../../rx-elf/lib/64-bit-double\libc_nano.a(lib_a-sprintf.o)
 B_1            0x00000000        0x0 c:/renesas/gcc/redhat/gnurx-elf/8.3.0.202004/rx-elf/rx-elf/bin/../lib/gcc/rx-elf/8.3.0.202004-GNURX/../../../../rx-elf/lib/64-bit-double\libc_nano.a(lib_a-sprintf.o)
 .text._sprintf_r
                0x00000000       0x30 c:/renesas/gcc/redhat/gnurx-elf/8.3.0.202004/rx-elf/rx-elf/bin/../lib/gcc/rx-elf/8.3.0.202004-GNURX/../../../../rx-elf/lib/64-bit-double\libc_nano.a(lib_a-sprintf.o)
 P              0x00000000        0x0 c:/renesas/gcc/redhat/gnurx-elf/8.3.0.202004/rx-elf/rx-elf/bin/../lib/gcc/rx-elf/8.3.0.202004-GNURX/../../../../rx-elf/lib/64-bit-double\libc_nano.a(lib_a-strlen.o)
 D_1            0x00000000        0x0 c:/renesas/gcc/redhat/gnurx-elf/8.3.0.202004/rx-elf/rx-elf/bin/../lib/gcc/rx-elf/8.3.0.202004-GNURX/../../../../rx-elf/lib/64-bit-double\libc_nano.a(lib_a-strlen.o)
 B_1            0x00000000        0x0 c:/renesas/gcc/redhat/gnurx-elf/8.3.0.202004/rx-elf/rx-elf/bin/../lib/gcc/rx-elf/8.3.0.202004-GNURX/../../../../rx-elf/lib/64-bit-double\libc_nano.a(lib_a-strlen.o)
 P              0x00000000        0x0 c:/renesas/gcc/redhat/gnurx-elf/8.3.0.202004/rx-elf/rx-elf/bin/../lib/gcc/rx-elf/8.3.0.202004-GNURX/../../../../rx-elf/lib/64-bit-double\libc_nano.a(lib_a-strncat.o)
 D_1            0x00000000        0x0 c:/renesas/gcc/redhat/gnurx-elf/8.3.0.202004/rx-elf/rx-elf/bin/../lib/gcc/rx-elf/8.3.0.202004-GNURX/../../../../rx-elf/lib/64-bit-double\libc_nano.a(lib_a-strncat.o)
 B_1            0x00000000        0x0 c:/renesas/gcc/redhat/gnurx-elf/8.3.0.202004/rx-elf/rx-elf/bin/../lib/gcc/rx-elf/8.3.0.202004-GNURX/../../../../rx-elf/lib/64-bit-double\libc_nano.a(lib_a-strncat.o)
 P              0x00000000        0x0 c:/renesas/gcc/redhat/gnurx-elf/8.3.0.202004/rx-elf/rx-elf/bin/../lib/gcc/rx-elf/8.3.0.202004-GNURX/../../../../rx-elf/lib/64-bit-double\libc_nano.a(lib_a-strncpy.o)
 D_1            0x00000000        0x0 c:/renesas/gcc/redhat/gnurx-elf/8.3.0.202004/rx-elf/rx-elf/bin/../lib/gcc/rx-elf/8.3.0.202004-GNURX/../../../../rx-elf/lib/64-bit-double\libc_nano.a(lib_a-strncpy.o)
 B_1            0x00000000        0x0 c:/renesas/gcc/redhat/gnurx-elf/8.3.0.202004/rx-elf/rx-elf/bin/../lib/gcc/rx-elf/8.3.0.202004-GNURX/../../../../rx-elf/lib/64-bit-double\libc_nano.a(lib_a-strncpy.o)
 P              0x00000000        0x0 c:/renesas/gcc/redhat/gnurx-elf/8.3.0.202004/rx-elf/rx-elf/bin/../lib/gcc/rx-elf/8.3.0.202004-GNURX/../../../../rx-elf/lib/64-bit-double\libc_nano.a(lib_a-impure.o)
 D_1            0x00000000        0x0 c:/renesas/gcc/redhat/gnurx-elf/8.3.0.202004/rx-elf/rx-elf/bin/../lib/gcc/rx-elf/8.3.0.202004-GNURX/../../../../rx-elf/lib/64-bit-double\libc_nano.a(lib_a-impure.o)
 B_1            0x00000000        0x0 c:/renesas/gcc/redhat/gnurx-elf/8.3.0.202004/rx-elf/rx-elf/bin/../lib/gcc/rx-elf/8.3.0.202004-GNURX/../../../../rx-elf/lib/64-bit-double\libc_nano.a(lib_a-impure.o)
 .rodata._global_impure_ptr
                0x00000000        0x4 c:/renesas/gcc/redhat/gnurx-elf/8.3.0.202004/rx-elf/rx-elf/bin/../lib/gcc/rx-elf/8.3.0.202004-GNURX/../../../../rx-elf/lib/64-bit-double\libc_nano.a(lib_a-impure.o)
 P              0x00000000        0x0 c:/renesas/gcc/redhat/gnurx-elf/8.3.0.202004/rx-elf/rx-elf/bin/../lib/gcc/rx-elf/8.3.0.202004-GNURX/../../../../rx-elf/lib/64-bit-double\libc_nano.a(lib_a-nano-svfprintf.o)
 D_1            0x00000000        0x0 c:/renesas/gcc/redhat/gnurx-elf/8.3.0.202004/rx-elf/rx-elf/bin/../lib/gcc/rx-elf/8.3.0.202004-GNURX/../../../../rx-elf/lib/64-bit-double\libc_nano.a(lib_a-nano-svfprintf.o)
 B_1            0x00000000        0x0 c:/renesas/gcc/redhat/gnurx-elf/8.3.0.202004/rx-elf/rx-elf/bin/../lib/gcc/rx-elf/8.3.0.202004-GNURX/../../../../rx-elf/lib/64-bit-double\libc_nano.a(lib_a-nano-svfprintf.o)
 .text.__ssprint_r
                0x00000000       0xf1 c:/renesas/gcc/redhat/gnurx-elf/8.3.0.202004/rx-elf/rx-elf/bin/../lib/gcc/rx-elf/8.3.0.202004-GNURX/../../../../rx-elf/lib/64-bit-double\libc_nano.a(lib_a-nano-svfprintf.o)
 P              0x00000000        0x0 c:/renesas/gcc/redhat/gnurx-elf/8.3.0.202004/rx-elf/rx-elf/bin/../lib/gcc/rx-elf/8.3.0.202004-GNURX/../../../../rx-elf/lib/64-bit-double\libc_nano.a(lib_a-nano-vfprintf_i.o)
 D_1            0x00000000        0x0 c:/renesas/gcc/redhat/gnurx-elf/8.3.0.202004/rx-elf/rx-elf/bin/../lib/gcc/rx-elf/8.3.0.202004-GNURX/../../../../rx-elf/lib/64-bit-double\libc_nano.a(lib_a-nano-vfprintf_i.o)
 B_1            0x00000000        0x0 c:/renesas/gcc/redhat/gnurx-elf/8.3.0.202004/rx-elf/rx-elf/bin/../lib/gcc/rx-elf/8.3.0.202004-GNURX/../../../../rx-elf/lib/64-bit-double\libc_nano.a(lib_a-nano-vfprintf_i.o)
 P              0x00000000        0x0 c:/renesas/gcc/redhat/gnurx-elf/8.3.0.202004/rx-elf/rx-elf/bin/../lib/gcc/rx-elf/8.3.0.202004-GNURX/../../../../rx-elf/lib/64-bit-double\libc_nano.a(lib_a-memchr.o)
 D_1            0x00000000        0x0 c:/renesas/gcc/redhat/gnurx-elf/8.3.0.202004/rx-elf/rx-elf/bin/../lib/gcc/rx-elf/8.3.0.202004-GNURX/../../../../rx-elf/lib/64-bit-double\libc_nano.a(lib_a-memchr.o)
 B_1            0x00000000        0x0 c:/renesas/gcc/redhat/gnurx-elf/8.3.0.202004/rx-elf/rx-elf/bin/../lib/gcc/rx-elf/8.3.0.202004-GNURX/../../../../rx-elf/lib/64-bit-double\libc_nano.a(lib_a-memchr.o)
 P              0x00000000        0x0 c:/renesas/gcc/redhat/gnurx-elf/8.3.0.202004/rx-elf/rx-elf/bin/../lib/gcc/rx-elf/8.3.0.202004-GNURX/../../../../rx-elf/lib/64-bit-double\libc_nano.a(lib_a-memcpy.o)
 D_1            0x00000000        0x0 c:/renesas/gcc/redhat/gnurx-elf/8.3.0.202004/rx-elf/rx-elf/bin/../lib/gcc/rx-elf/8.3.0.202004-GNURX/../../../../rx-elf/lib/64-bit-double\libc_nano.a(lib_a-memcpy.o)
 B_1            0x00000000        0x0 c:/renesas/gcc/redhat/gnurx-elf/8.3.0.202004/rx-elf/rx-elf/bin/../lib/gcc/rx-elf/8.3.0.202004-GNURX/../../../../rx-elf/lib/64-bit-double\libc_nano.a(lib_a-memcpy.o)
 P              0x00000000        0x0 c:/renesas/gcc/redhat/gnurx-elf/8.3.0.202004/rx-elf/rx-elf/bin/../lib/gcc/rx-elf/8.3.0.202004-GNURX/../../../../rx-elf/lib/64-bit-double\libc_nano.a(lib_a-memmove.o)
 D_1            0x00000000        0x0 c:/renesas/gcc/redhat/gnurx-elf/8.3.0.202004/rx-elf/rx-elf/bin/../lib/gcc/rx-elf/8.3.0.202004-GNURX/../../../../rx-elf/lib/64-bit-double\libc_nano.a(lib_a-memmove.o)
 B_1            0x00000000        0x0 c:/renesas/gcc/redhat/gnurx-elf/8.3.0.202004/rx-elf/rx-elf/bin/../lib/gcc/rx-elf/8.3.0.202004-GNURX/../../../../rx-elf/lib/64-bit-double\libc_nano.a(lib_a-memmove.o)
 P              0x00000000        0x0 c:/renesas/gcc/redhat/gnurx-elf/8.3.0.202004/rx-elf/rx-elf/bin/../lib/gcc/rx-elf/8.3.0.202004-GNURX/../../../../rx-elf/lib/64-bit-double\libc_nano.a(lib_a-nano-freer.o)
 D_1            0x00000000        0x0 c:/renesas/gcc/redhat/gnurx-elf/8.3.0.202004/rx-elf/rx-elf/bin/../lib/gcc/rx-elf/8.3.0.202004-GNURX/../../../../rx-elf/lib/64-bit-double\libc_nano.a(lib_a-nano-freer.o)
 B_1            0x00000000        0x0 c:/renesas/gcc/redhat/gnurx-elf/8.3.0.202004/rx-elf/rx-elf/bin/../lib/gcc/rx-elf/8.3.0.202004-GNURX/../../../../rx-elf/lib/64-bit-double\libc_nano.a(lib_a-nano-freer.o)
 P              0x00000000        0x0 c:/renesas/gcc/redhat/gnurx-elf/8.3.0.202004/rx-elf/rx-elf/bin/../lib/gcc/rx-elf/8.3.0.202004-GNURX/../../../../rx-elf/lib/64-bit-double\libc_nano.a(lib_a-nano-mallocr.o)
 D_1            0x00000000        0x0 c:/renesas/gcc/redhat/gnurx-elf/8.3.0.202004/rx-elf/rx-elf/bin/../lib/gcc/rx-elf/8.3.0.202004-GNURX/../../../../rx-elf/lib/64-bit-double\libc_nano.a(lib_a-nano-mallocr.o)
 B_1            0x00000000        0x0 c:/renesas/gcc/redhat/gnurx-elf/8.3.0.202004/rx-elf/rx-elf/bin/../lib/gcc/rx-elf/8.3.0.202004-GNURX/../../../../rx-elf/lib/64-bit-double\libc_nano.a(lib_a-nano-mallocr.o)
 P              0x00000000        0x0 c:/renesas/gcc/redhat/gnurx-elf/8.3.0.202004/rx-elf/rx-elf/bin/../lib/gcc/rx-elf/8.3.0.202004-GNURX/../../../../rx-elf/lib/64-bit-double\libc_nano.a(lib_a-nano-reallocr.o)
 D_1            0x00000000        0x0 c:/renesas/gcc/redhat/gnurx-elf/8.3.0.202004/rx-elf/rx-elf/bin/../lib/gcc/rx-elf/8.3.0.202004-GNURX/../../../../rx-elf/lib/64-bit-double\libc_nano.a(lib_a-nano-reallocr.o)
 B_1            0x00000000        0x0 c:/renesas/gcc/redhat/gnurx-elf/8.3.0.202004/rx-elf/rx-elf/bin/../lib/gcc/rx-elf/8.3.0.202004-GNURX/../../../../rx-elf/lib/64-bit-double\libc_nano.a(lib_a-nano-reallocr.o)
 P              0x00000000        0x0 c:/renesas/gcc/redhat/gnurx-elf/8.3.0.202004/rx-elf/rx-elf/bin/../lib/gcc/rx-elf/8.3.0.202004-GNURX/../../../../rx-elf/lib/64-bit-double\libc_nano.a(lib_a-sbrkr.o)
 D_1            0x00000000        0x0 c:/renesas/gcc/redhat/gnurx-elf/8.3.0.202004/rx-elf/rx-elf/bin/../lib/gcc/rx-elf/8.3.0.202004-GNURX/../../../../rx-elf/lib/64-bit-double\libc_nano.a(lib_a-sbrkr.o)
 B_1            0x00000000        0x0 c:/renesas/gcc/redhat/gnurx-elf/8.3.0.202004/rx-elf/rx-elf/bin/../lib/gcc/rx-elf/8.3.0.202004-GNURX/../../../../rx-elf/lib/64-bit-double\libc_nano.a(lib_a-sbrkr.o)
 P              0x00000000        0x0 c:/renesas/gcc/redhat/gnurx-elf/8.3.0.202004/rx-elf/rx-elf/bin/../lib/gcc/rx-elf/8.3.0.202004-GNURX/../../../../rx-elf/lib/64-bit-double\libc_nano.a(lib_a-mlock.o)
 D_1            0x00000000        0x0 c:/renesas/gcc/redhat/gnurx-elf/8.3.0.202004/rx-elf/rx-elf/bin/../lib/gcc/rx-elf/8.3.0.202004-GNURX/../../../../rx-elf/lib/64-bit-double\libc_nano.a(lib_a-mlock.o)
 B_1            0x00000000        0x0 c:/renesas/gcc/redhat/gnurx-elf/8.3.0.202004/rx-elf/rx-elf/bin/../lib/gcc/rx-elf/8.3.0.202004-GNURX/../../../../rx-elf/lib/64-bit-double\libc_nano.a(lib_a-mlock.o)
 P              0x00000000        0x0 c:/renesas/gcc/redhat/gnurx-elf/8.3.0.202004/rx-elf/rx-elf/bin/../lib/gcc/rx-elf/8.3.0.202004-GNURX/../../../../rx-elf/lib/64-bit-double\libc_nano.a(lib_a-nano-msizer.o)
 D_1            0x00000000        0x0 c:/renesas/gcc/redhat/gnurx-elf/8.3.0.202004/rx-elf/rx-elf/bin/../lib/gcc/rx-elf/8.3.0.202004-GNURX/../../../../rx-elf/lib/64-bit-double\libc_nano.a(lib_a-nano-msizer.o)
 B_1            0x00000000        0x0 c:/renesas/gcc/redhat/gnurx-elf/8.3.0.202004/rx-elf/rx-elf/bin/../lib/gcc/rx-elf/8.3.0.202004-GNURX/../../../../rx-elf/lib/64-bit-double\libc_nano.a(lib_a-nano-msizer.o)
 P              0x00000000        0x0 c:/renesas/gcc/redhat/gnurx-elf/8.3.0.202004/rx-elf/rx-elf/bin/../lib/gcc/rx-elf/8.3.0.202004-GNURX/../../../../rx-elf/lib/64-bit-double\libc_nano.a(lib_a-reent.o)
 D_1            0x00000000        0x0 c:/renesas/gcc/redhat/gnurx-elf/8.3.0.202004/rx-elf/rx-elf/bin/../lib/gcc/rx-elf/8.3.0.202004-GNURX/../../../../rx-elf/lib/64-bit-double\libc_nano.a(lib_a-reent.o)
 B_1            0x00000000        0x0 c:/renesas/gcc/redhat/gnurx-elf/8.3.0.202004/rx-elf/rx-elf/bin/../lib/gcc/rx-elf/8.3.0.202004-GNURX/../../../../rx-elf/lib/64-bit-double\libc_nano.a(lib_a-reent.o)
 .text.cleanup_glue
                0x00000000       0x19 c:/renesas/gcc/redhat/gnurx-elf/8.3.0.202004/rx-elf/rx-elf/bin/../lib/gcc/rx-elf/8.3.0.202004-GNURX/../../../../rx-elf/lib/64-bit-double\libc_nano.a(lib_a-reent.o)
 .text._reclaim_reent
                0x00000000       0xe7 c:/renesas/gcc/redhat/gnurx-elf/8.3.0.202004/rx-elf/rx-elf/bin/../lib/gcc/rx-elf/8.3.0.202004-GNURX/../../../../rx-elf/lib/64-bit-double\libc_nano.a(lib_a-reent.o)
 D_1            0x00000000        0x0 c:/renesas/gcc/redhat/gnurx-elf/8.3.0.202004/rx-elf/rx-elf/bin/../lib/gcc/rx-elf/8.3.0.202004-GNURX/64-bit-double\libgcc.a(_udivdi3.o)
 B_1            0x00000000        0x0 c:/renesas/gcc/redhat/gnurx-elf/8.3.0.202004/rx-elf/rx-elf/bin/../lib/gcc/rx-elf/8.3.0.202004-GNURX/64-bit-double\libgcc.a(_udivdi3.o)
 P              0x00000000        0x0 c:/renesas/gcc/redhat/gnurx-elf/8.3.0.202004/rx-elf/rx-elf/bin/../lib/gcc/rx-elf/8.3.0.202004-GNURX/64-bit-double\libgcc.a(_clz.o)
 D_1            0x00000000        0x0 c:/renesas/gcc/redhat/gnurx-elf/8.3.0.202004/rx-elf/rx-elf/bin/../lib/gcc/rx-elf/8.3.0.202004-GNURX/64-bit-double\libgcc.a(_clz.o)
 B_1            0x00000000        0x0 c:/renesas/gcc/redhat/gnurx-elf/8.3.0.202004/rx-elf/rx-elf/bin/../lib/gcc/rx-elf/8.3.0.202004-GNURX/64-bit-double\libgcc.a(_clz.o)

Memory Configuration

Name             Origin             Length             Attributes
RAM              0x00000004         0x0007fffc
RAM2             0x00800000         0x00080000
ROM              0xffc00000         0x00400000
OFS              0xfe7f5d00         0x00000080
*default*        0x00000000         0xffffffff

Linker script and memory map

LOAD ./src/smc_integration/RenesasSimDebug/sim_debug_mode_hook.o
LOAD ./src/smc_integration/FIT_patch.o
LOAD ./src/smc_integration/IDE_helper.o
LOAD ./src/smc_integration/u_bsp_lowlvl_ext.o
LOAD ./src/smc_gen/r_gpio_rx/src/targets/rx72n/r_gpio_rx72n.o
LOAD ./src/smc_gen/r_gpio_rx/src/r_gpio_rx.o
LOAD ./src/smc_gen/r_bsp/mcu/rx72n/mcu_clocks.o
LOAD ./src/smc_gen/r_bsp/mcu/rx72n/mcu_init.o
LOAD ./src/smc_gen/r_bsp/mcu/rx72n/mcu_interrupts.o
LOAD ./src/smc_gen/r_bsp/mcu/rx72n/mcu_mapped_interrupts.o
LOAD ./src/smc_gen/r_bsp/mcu/rx72n/vecttbl.o
LOAD ./src/smc_gen/r_bsp/mcu/all/dbsct.o
LOAD ./src/smc_gen/r_bsp/mcu/all/lowlvl.o
LOAD ./src/smc_gen/r_bsp/mcu/all/lowsrc.o
LOAD ./src/smc_gen/r_bsp/mcu/all/mcu_locks.o
LOAD ./src/smc_gen/r_bsp/mcu/all/r_bsp_common.o
LOAD ./src/smc_gen/r_bsp/mcu/all/r_bsp_cpu.o
LOAD ./src/smc_gen/r_bsp/mcu/all/r_bsp_interrupts.o
LOAD ./src/smc_gen/r_bsp/mcu/all/r_bsp_locking.o
LOAD ./src/smc_gen/r_bsp/mcu/all/r_bsp_mcu_startup.o
LOAD ./src/smc_gen/r_bsp/mcu/all/r_bsp_software_interrupt.o
LOAD ./src/smc_gen/r_bsp/mcu/all/r_rx_intrinsic_functions.o
LOAD ./src/smc_gen/r_bsp/mcu/all/reset_program.o
LOAD ./src/smc_gen/r_bsp/mcu/all/resetprg.o
LOAD ./src/smc_gen/r_bsp/mcu/all/sbrk.o
LOAD ./src/smc_gen/r_bsp/board/generic_rx72n/hwsetup.o
LOAD ./src/smc_gen/general/r_cg_hardware_setup.o
LOAD ./src/smc_gen/general/r_smc_cgc.o
LOAD ./src/smc_gen/general/r_smc_cgc_user.o
LOAD ./src/smc_gen/general/r_smc_interrupt.o
LOAD ./src/frtos_startup/freertos_object_init.o
LOAD ./src/frtos_startup/freertos_start.o
LOAD ./src/FreeRTOS_Demo/Full_Demo/Standard_Demo_Tasks/BlockQ.o
LOAD ./src/FreeRTOS_Demo/Full_Demo/Standard_Demo_Tasks/EventGroupsDemo.o
LOAD ./src/FreeRTOS_Demo/Full_Demo/Standard_Demo_Tasks/GenQTest.o
LOAD ./src/FreeRTOS_Demo/Full_Demo/Standard_Demo_Tasks/IntQueue.o
LOAD ./src/FreeRTOS_Demo/Full_Demo/Standard_Demo_Tasks/IntSemTest.o
LOAD ./src/FreeRTOS_Demo/Full_Demo/Standard_Demo_Tasks/QueueOverwrite.o
LOAD ./src/FreeRTOS_Demo/Full_Demo/Standard_Demo_Tasks/TaskNotify.o
LOAD ./src/FreeRTOS_Demo/Full_Demo/Standard_Demo_Tasks/TaskNotifyArray.o
LOAD ./src/FreeRTOS_Demo/Full_Demo/Standard_Demo_Tasks/TimerDemo.o
LOAD ./src/FreeRTOS_Demo/Full_Demo/Standard_Demo_Tasks/blocktim.o
LOAD ./src/FreeRTOS_Demo/Full_Demo/Standard_Demo_Tasks/countsem.o
LOAD ./src/FreeRTOS_Demo/Full_Demo/Standard_Demo_Tasks/death.o
LOAD ./src/FreeRTOS_Demo/Full_Demo/Standard_Demo_Tasks/dynamic.o
LOAD ./src/FreeRTOS_Demo/Full_Demo/Standard_Demo_Tasks/flop.o
LOAD ./src/FreeRTOS_Demo/Full_Demo/Standard_Demo_Tasks/recmutex.o
LOAD ./src/FreeRTOS_Demo/Full_Demo/Standard_Demo_Tasks/semtest.o
LOAD ./src/FreeRTOS_Demo/Full_Demo/FreeRTOS-Plus-CLI/FreeRTOS_CLI.o
LOAD ./src/FreeRTOS_Demo/Full_Demo/IntQueueTimer.o
LOAD ./src/FreeRTOS_Demo/Full_Demo/Sample-CLI-commands.o
LOAD ./src/FreeRTOS_Demo/Full_Demo/UARTCommandConsole.o
LOAD ./src/FreeRTOS_Demo/Full_Demo/main_full.o
LOAD ./src/FreeRTOS_Demo/Full_Demo/serial.o
LOAD ./src/FreeRTOS_Demo/Blinky_Demo/main_blinky.o
LOAD ./src/FreeRTOS/Source/portable/MemMang/heap_4.o
LOAD ./src/FreeRTOS/Source/portable/GCC/RX_RenesasSim/port.o
LOAD ./src/FreeRTOS/Source/event_groups.o
LOAD ./src/FreeRTOS/Source/list.o
LOAD ./src/FreeRTOS/Source/queue.o
LOAD ./src/FreeRTOS/Source/stream_buffer.o
LOAD ./src/FreeRTOS/Source/tasks.o
LOAD ./src/FreeRTOS/Source/timers.o
START GROUP
LOAD c:/renesas/gcc/redhat/gnurx-elf/8.3.0.202004/rx-elf/rx-elf/bin/../lib/gcc/rx-elf/8.3.0.202004-GNURX/../../../../rx-elf/lib/64-bit-double\libm.a
LOAD c:/renesas/gcc/redhat/gnurx-elf/8.3.0.202004/rx-elf/rx-elf/bin/../lib/gcc/rx-elf/8.3.0.202004-GNURX/../../../../rx-elf/lib/64-bit-double\libc_nano.a
LOAD c:/renesas/gcc/redhat/gnurx-elf/8.3.0.202004/rx-elf/rx-elf/bin/../lib/gcc/rx-elf/8.3.0.202004-GNURX/64-bit-double\libgcc.a
END GROUP
LOAD c:/renesas/gcc/redhat/gnurx-elf/8.3.0.202004/rx-elf/rx-elf/bin/../lib/gcc/rx-elf/8.3.0.202004-GNURX/64-bit-double\libgcc.a
LOAD c:/renesas/gcc/redhat/gnurx-elf/8.3.0.202004/rx-elf/rx-elf/bin/../lib/gcc/rx-elf/8.3.0.202004-GNURX/../../../../rx-elf/lib/64-bit-double\libg_nano.a
LOAD c:/renesas/gcc/redhat/gnurx-elf/8.3.0.202004/rx-elf/rx-elf/bin/../lib/gcc/rx-elf/8.3.0.202004-GNURX/../../../../rx-elf/lib/64-bit-double\libc_nano.a
LOAD c:/renesas/gcc/redhat/gnurx-elf/8.3.0.202004/rx-elf/rx-elf/bin/../lib/gcc/rx-elf/8.3.0.202004-GNURX/64-bit-double\libgcc.a
START GROUP
LOAD c:/renesas/gcc/redhat/gnurx-elf/8.3.0.202004/rx-elf/rx-elf/bin/../lib/gcc/rx-elf/8.3.0.202004-GNURX/64-bit-double\libgcc.a
LOAD c:/renesas/gcc/redhat/gnurx-elf/8.3.0.202004/rx-elf/rx-elf/bin/../lib/gcc/rx-elf/8.3.0.202004-GNURX/../../../../rx-elf/lib/64-bit-double\libc_nano.a
END GROUP

.exvectors      0xffffff80       0x7c
                0xffffff80                _exvectors_start = .
 *(.exvectors)
 .exvectors     0xffffff80       0x7c ./src/smc_gen/r_bsp/mcu/rx72n/vecttbl.o
                0xffffff80                Except_Vectors
                0xfffffffc                _exvectors_end = .

.fvectors       0xfffffffc        0x4
 *(.fvectors)
 .fvectors      0xfffffffc        0x4 ./src/smc_gen/r_bsp/mcu/rx72n/vecttbl.o
                0xfffffffc                Reset_Vector

.text           0xffc00000     0xdeb8
 *(.text)
 .text          0xffc00000       0x43 ./src/smc_gen/r_bsp/mcu/all/reset_program.o
                0xffc00000                PowerON_Reset_PC
                0xffc00000                PowerON_Reset
                0xffc00012                _INITSCT
 .text          0xffc00043        0xd c:/renesas/gcc/redhat/gnurx-elf/8.3.0.202004/rx-elf/rx-elf/bin/../lib/gcc/rx-elf/8.3.0.202004-GNURX/../../../../rx-elf/lib/64-bit-double\libc_nano.a(lib_a-strlen.o)
                0xffc00043                strlen
 .text          0xffc00050       0x1d c:/renesas/gcc/redhat/gnurx-elf/8.3.0.202004/rx-elf/rx-elf/bin/../lib/gcc/rx-elf/8.3.0.202004-GNURX/../../../../rx-elf/lib/64-bit-double\libc_nano.a(lib_a-strncat.o)
                0xffc00050                strncat
 .text          0xffc0006d        0xb c:/renesas/gcc/redhat/gnurx-elf/8.3.0.202004/rx-elf/rx-elf/bin/../lib/gcc/rx-elf/8.3.0.202004-GNURX/../../../../rx-elf/lib/64-bit-double\libc_nano.a(lib_a-strncpy.o)
                0xffc0006d                strncpy
 .text          0xffc00078        0xb c:/renesas/gcc/redhat/gnurx-elf/8.3.0.202004/rx-elf/rx-elf/bin/../lib/gcc/rx-elf/8.3.0.202004-GNURX/../../../../rx-elf/lib/64-bit-double\libc_nano.a(lib_a-memchr.o)
                0xffc00078                memchr
 .text          0xffc00083        0x7 c:/renesas/gcc/redhat/gnurx-elf/8.3.0.202004/rx-elf/rx-elf/bin/../lib/gcc/rx-elf/8.3.0.202004-GNURX/../../../../rx-elf/lib/64-bit-double\libc_nano.a(lib_a-memcpy.o)
                0xffc00083                memcpy
 .text          0xffc0008a       0x18 c:/renesas/gcc/redhat/gnurx-elf/8.3.0.202004/rx-elf/rx-elf/bin/../lib/gcc/rx-elf/8.3.0.202004-GNURX/../../../../rx-elf/lib/64-bit-double\libc_nano.a(lib_a-memmove.o)
                0xffc0008a                memmove
 *(.text.*ISR)
 *fill*         0xffc000a2        0x6 
 .text.xNotifyTaskFromISR
                0xffc000a8       0xb8 ./src/FreeRTOS_Demo/Full_Demo/Standard_Demo_Tasks/TaskNotify.o
                0xffc000a8                xNotifyTaskFromISR
 .text.xNotifyArrayTaskFromISR
                0xffc00160       0xa8 ./src/FreeRTOS_Demo/Full_Demo/Standard_Demo_Tasks/TaskNotifyArray.o
                0xffc00160                xNotifyArrayTaskFromISR
 .text.prvIntQTimer_0_1_ISR
                0xffc00208       0x48 ./src/FreeRTOS_Demo/Full_Demo/IntQueueTimer.o
                0xffc00208                $tableentry$128$.rvectors
 .text.prvIntQTimer_2_3_ISR
                0xffc00250       0x48 ./src/FreeRTOS_Demo/Full_Demo/IntQueueTimer.o
                0xffc00250                $tableentry$129$.rvectors
 .text.vSoftwareInterruptISR
                0xffc00298       0xae ./src/FreeRTOS/Source/portable/GCC/RX_RenesasSim/port.o
                0xffc00298                vSoftwareInterruptISR
                0xffc00298                $tableentry$29$.rvectors
 .text.vTickISR
                0xffc00346       0x4b ./src/FreeRTOS/Source/portable/GCC/RX_RenesasSim/port.o
                0xffc00346                $tableentry$28$.rvectors
                0xffc00346                vTickISR
 .text.xEventGroupClearBitsFromISR
                0xffc00391       0x10 ./src/FreeRTOS/Source/event_groups.o
                0xffc00391                xEventGroupClearBitsFromISR
 *fill*         0xffc003a1        0x7 
 .text.xEventGroupGetBitsFromISR
                0xffc003a8       0x28 ./src/FreeRTOS/Source/event_groups.o
                0xffc003a8                xEventGroupGetBitsFromISR
 .text.xEventGroupSetBitsFromISR
                0xffc003d0       0x10 ./src/FreeRTOS/Source/event_groups.o
                0xffc003d0                xEventGroupSetBitsFromISR
 .text.xQueueGenericSendFromISR
                0xffc003e0       0xf0 ./src/FreeRTOS/Source/queue.o
                0xffc003e0                xQueueGenericSendFromISR
 .text.xQueueGiveFromISR
                0xffc004d0       0xd8 ./src/FreeRTOS/Source/queue.o
                0xffc004d0                xQueueGiveFromISR
 .text.xQueueReceiveFromISR
                0xffc005a8       0xc8 ./src/FreeRTOS/Source/queue.o
                0xffc005a8                xQueueReceiveFromISR
 .text.xQueuePeekFromISR
                0xffc00670       0x98 ./src/FreeRTOS/Source/queue.o
                0xffc00670                xQueuePeekFromISR
 .text.uxQueueMessagesWaitingFromISR
                0xffc00708       0x14 ./src/FreeRTOS/Source/queue.o
                0xffc00708                uxQueueMessagesWaitingFromISR
 .text.xQueueIsQueueEmptyFromISR
                0xffc0071c       0x1e ./src/FreeRTOS/Source/queue.o
                0xffc0071c                xQueueIsQueueEmptyFromISR
 .text.xQueueIsQueueFullFromISR
                0xffc0073a       0x23 ./src/FreeRTOS/Source/queue.o
                0xffc0073a                xQueueIsQueueFullFromISR
 *fill*         0xffc0075d        0x3 
 .text.xQueueSelectFromSetFromISR
                0xffc00760       0xb0 ./src/FreeRTOS/Source/queue.o
                0xffc00760                xQueueSelectFromSetFromISR
 .text.xStreamBufferSendFromISR
                0xffc00810      0x178 ./src/FreeRTOS/Source/stream_buffer.o
                0xffc00810                xStreamBufferSendFromISR
 .text.xStreamBufferReceiveFromISR
                0xffc00988      0x168 ./src/FreeRTOS/Source/stream_buffer.o
                0xffc00988                xStreamBufferReceiveFromISR
 .text.xStreamBufferSendCompletedFromISR
                0xffc00af0       0x60 ./src/FreeRTOS/Source/stream_buffer.o
                0xffc00af0                xStreamBufferSendCompletedFromISR
 .text.xStreamBufferReceiveCompletedFromISR
                0xffc00b50       0x60 ./src/FreeRTOS/Source/stream_buffer.o
                0xffc00b50                xStreamBufferReceiveCompletedFromISR
 .text.uxTaskPriorityGetFromISR
                0xffc00bb0       0x50 ./src/FreeRTOS/Source/tasks.o
                0xffc00bb0                uxTaskPriorityGetFromISR
 .text.xTaskResumeFromISR
                0xffc00c00       0xe8 ./src/FreeRTOS/Source/tasks.o
                0xffc00c00                xTaskResumeFromISR
 .text.xTaskGetTickCountFromISR
                0xffc00ce8       0x1e ./src/FreeRTOS/Source/tasks.o
                0xffc00ce8                xTaskGetTickCountFromISR
 *fill*         0xffc00d06        0x2 
 .text.xTaskGenericNotifyFromISR
                0xffc00d08      0x170 ./src/FreeRTOS/Source/tasks.o
                0xffc00d08                xTaskGenericNotifyFromISR
 .text.vTaskGenericNotifyGiveFromISR
                0xffc00e78       0xe8 ./src/FreeRTOS/Source/tasks.o
                0xffc00e78                vTaskGenericNotifyGiveFromISR
 .text.xTimerPendFunctionCallFromISR
                0xffc00f60       0x22 ./src/FreeRTOS/Source/timers.o
                0xffc00f60                xTimerPendFunctionCallFromISR
 *(.text.*_isr)
 *fill*         0xffc00f82        0x6 
 .text.group_bl0_handler_isr
                0xffc00f88      0x508 ./src/smc_gen/r_bsp/mcu/rx72n/mcu_interrupts.o
                0xffc00f88                $tableentry$110$.rvectors
 .text.group_bl1_handler_isr
                0xffc01490      0x418 ./src/smc_gen/r_bsp/mcu/rx72n/mcu_interrupts.o
                0xffc01490                $tableentry$111$.rvectors
 .text.group_bl2_handler_isr
                0xffc018a8       0xb8 ./src/smc_gen/r_bsp/mcu/rx72n/mcu_interrupts.o
                0xffc018a8                $tableentry$107$.rvectors
 .text.group_al0_handler_isr
                0xffc01960      0x2f8 ./src/smc_gen/r_bsp/mcu/rx72n/mcu_interrupts.o
                0xffc01960                $tableentry$112$.rvectors
 .text.group_al1_handler_isr
                0xffc01c58      0x178 ./src/smc_gen/r_bsp/mcu/rx72n/mcu_interrupts.o
                0xffc01c58                $tableentry$113$.rvectors
 .text.group_ie0_handler_isr
                0xffc01dd0       0x35 ./src/smc_gen/r_bsp/mcu/rx72n/mcu_interrupts.o
                0xffc01dd0                $tableentry$17$.rvectors
 *fill*         0xffc01e05        0x3 
 .text.group_be0_handler_isr
                0xffc01e08       0xa0 ./src/smc_gen/r_bsp/mcu/rx72n/mcu_interrupts.o
                0xffc01e08                $tableentry$106$.rvectors
 .text.excep_supervisor_inst_isr
                0xffc01ea8       0x28 ./src/smc_gen/r_bsp/mcu/all/r_bsp_interrupts.o
                0xffc01ea8                excep_supervisor_inst_isr
 .text.excep_access_isr
                0xffc01ed0       0x28 ./src/smc_gen/r_bsp/mcu/all/r_bsp_interrupts.o
                0xffc01ed0                excep_access_isr
 .text.excep_undefined_inst_isr
                0xffc01ef8       0x28 ./src/smc_gen/r_bsp/mcu/all/r_bsp_interrupts.o
                0xffc01ef8                excep_undefined_inst_isr
 .text.excep_floating_point_isr
                0xffc01f20       0x30 ./src/smc_gen/r_bsp/mcu/all/r_bsp_interrupts.o
                0xffc01f20                excep_floating_point_isr
 .text.non_maskable_isr
                0xffc01f50      0x190 ./src/smc_gen/r_bsp/mcu/all/r_bsp_interrupts.o
                0xffc01f50                non_maskable_isr
 .text.undefined_interrupt_source_isr
                0xffc020e0       0x28 ./src/smc_gen/r_bsp/mcu/all/r_bsp_interrupts.o
                0xffc020e0                undefined_interrupt_source_isr
                0xffc020e0                $tableentry$default$.rvectors
 .text.bus_error_isr
                0xffc02108       0x30 ./src/smc_gen/r_bsp/mcu/all/r_bsp_interrupts.o
                0xffc02108                $tableentry$16$.rvectors
                0xffc02108                bus_error_isr
 *(.text.*_interrupt)
 *(.text.*)
 .text.sbrk     0xffc02138        0x4 ./src/smc_integration/FIT_patch.o
                0xffc02138                sbrk
 .text.e2_studio_visual_expression_view_helper
                0xffc0213c       0xcc ./src/smc_integration/IDE_helper.o
                0xffc0213c                e2_studio_visual_expression_view_helper
 .text.is_charput_busy
                0xffc02208        0xc ./src/smc_integration/u_bsp_lowlvl_ext.o
                0xffc02208                is_charput_busy
 .text.is_charget_ready
                0xffc02214        0xc ./src/smc_integration/u_bsp_lowlvl_ext.o
                0xffc02214                is_charget_ready
 .text.R_GPIO_PinWrite
                0xffc02220       0x23 ./src/smc_gen/r_gpio_rx/src/r_gpio_rx.o
                0xffc02220                R_GPIO_PinWrite
 .text.R_GPIO_PinDirectionSet
                0xffc02243       0x23 ./src/smc_gen/r_gpio_rx/src/r_gpio_rx.o
                0xffc02243                R_GPIO_PinDirectionSet
 *fill*         0xffc02266        0x2 
 .text.get_iclk_freq_hz
                0xffc02268       0xd8 ./src/smc_gen/r_bsp/mcu/rx72n/mcu_clocks.o
                0xffc02268                get_iclk_freq_hz
 .text.mcu_clock_setup
                0xffc02340      0x250 ./src/smc_gen/r_bsp/mcu/rx72n/mcu_clocks.o
                0xffc02340                mcu_clock_setup
 .text.bsp_non_existent_port_init
                0xffc02590       0xfa ./src/smc_gen/r_bsp/mcu/rx72n/mcu_init.o
                0xffc02590                bsp_non_existent_port_init
 *fill*         0xffc0268a        0x6 
 .text.bsp_interrupt_enable_disable
                0xffc02690       0x80 ./src/smc_gen/r_bsp/mcu/rx72n/mcu_interrupts.o
                0xffc02690                bsp_interrupt_enable_disable
 .text.bsp_mapped_interrupt_open
                0xffc02710      0x26d ./src/smc_gen/r_bsp/mcu/rx72n/mcu_mapped_interrupts.o
                0xffc02710                bsp_mapped_interrupt_open
 *fill*         0xffc0297d        0x3 
 .text.charput  0xffc02980       0x20 ./src/smc_gen/r_bsp/mcu/all/lowlvl.o
                0xffc02980                charput
 .text.charget  0xffc029a0       0x20 ./src/smc_gen/r_bsp/mcu/all/lowlvl.o
                0xffc029a0                charget
 .text.delay_wait
                0xffc029c0        0x9 ./src/smc_gen/r_bsp/mcu/all/r_bsp_common.o
 *fill*         0xffc029c9        0x7 
 .text.R_BSP_SoftwareDelay
                0xffc029d0       0xe8 ./src/smc_gen/r_bsp/mcu/all/r_bsp_common.o
                0xffc029d0                R_BSP_SoftwareDelay
 .text.R_BSP_CpuInterruptLevelRead
                0xffc02ab8        0x8 ./src/smc_gen/r_bsp/mcu/all/r_bsp_cpu.o
                0xffc02ab8                R_BSP_CpuInterruptLevelRead
 .text.R_BSP_CpuInterruptLevelWrite
                0xffc02ac0       0x9c ./src/smc_gen/r_bsp/mcu/all/r_bsp_cpu.o
                0xffc02ac0                R_BSP_CpuInterruptLevelWrite
 .text.bsp_register_protect_open
                0xffc02b5c       0x13 ./src/smc_gen/r_bsp/mcu/all/r_bsp_cpu.o
                0xffc02b5c                bsp_register_protect_open
 .text.bsp_ram_initialize
                0xffc02b6f        0xf ./src/smc_gen/r_bsp/mcu/all/r_bsp_cpu.o
                0xffc02b6f                bsp_ram_initialize
 .text.R_BSP_InterruptControl.constprop.2
                0xffc02b7e       0x21 ./src/smc_gen/r_bsp/mcu/all/r_bsp_interrupts.o
 .text.R_BSP_InterruptRequestEnable
                0xffc02b9f       0x10 ./src/smc_gen/r_bsp/mcu/all/r_bsp_interrupts.o
                0xffc02b9f                R_BSP_InterruptRequestEnable
 .text.R_BSP_InterruptRequestDisable
                0xffc02baf       0x10 ./src/smc_gen/r_bsp/mcu/all/r_bsp_interrupts.o
                0xffc02baf                R_BSP_InterruptRequestDisable
 *fill*         0xffc02bbf        0x1 
 .text.bsp_interrupt_open
                0xffc02bc0       0x20 ./src/smc_gen/r_bsp/mcu/all/r_bsp_interrupts.o
                0xffc02bc0                bsp_interrupt_open
 .text.R_BSP_InterruptWrite
                0xffc02be0       0x1a ./src/smc_gen/r_bsp/mcu/all/r_bsp_interrupts.o
                0xffc02be0                R_BSP_InterruptWrite
 *fill*         0xffc02bfa        0x6 
 .text.R_BSP_InterruptControl
                0xffc02c00      0x4c0 ./src/smc_gen/r_bsp/mcu/all/r_bsp_interrupts.o
                0xffc02c00                R_BSP_InterruptControl
 .text.R_BSP_HardwareLock
                0xffc030c0       0x27 ./src/smc_gen/r_bsp/mcu/all/r_bsp_locking.o
                0xffc030c0                R_BSP_HardwareLock
 .text.R_BSP_BitSet
                0xffc030e7        0x4 ./src/smc_gen/r_bsp/mcu/all/r_rx_intrinsic_functions.o
                0xffc030e7                R_BSP_BitSet
 .text.R_BSP_BitClear
                0xffc030eb        0x4 ./src/smc_gen/r_bsp/mcu/all/r_rx_intrinsic_functions.o
                0xffc030eb                R_BSP_BitClear
 .text.R_BSP_SetDPSW
                0xffc030ef        0x5 ./src/smc_gen/r_bsp/mcu/all/r_rx_intrinsic_functions.o
                0xffc030ef                R_BSP_SetDPSW
 *fill*         0xffc030f4        0x4 
 .text.PowerON_Reset_PC_Prg
                0xffc030f8       0x60 ./src/smc_gen/r_bsp/mcu/all/resetprg.o
                0xffc030f8                PowerON_Reset_PC_Prg
 .text.hardware_setup
                0xffc03158       0x80 ./src/smc_gen/r_bsp/board/generic_rx72n/hwsetup.o
                0xffc03158                hardware_setup
 .text.r_undefined_exception
                0xffc031d8        0x1 ./src/smc_gen/general/r_cg_hardware_setup.o
                0xffc031d8                r_undefined_exception
 .text.R_Systeminit
                0xffc031d9       0x64 ./src/smc_gen/general/r_cg_hardware_setup.o
                0xffc031d9                R_Systeminit
 .text.R_CGC_Create
                0xffc0323d        0x4 ./src/smc_gen/general/r_smc_cgc.o
                0xffc0323d                R_CGC_Create
 .text.R_CGC_Create_UserInit
                0xffc03241        0x1 ./src/smc_gen/general/r_smc_cgc_user.o
                0xffc03241                R_CGC_Create_UserInit
 .text.vApplicationSetupTimerInterrupt
                0xffc03242       0x53 ./src/frtos_startup/freertos_start.o
                0xffc03242                vApplicationSetupTimerInterrupt
 *fill*         0xffc03295        0x3 
 .text.vAssertCalled
                0xffc03298       0x60 ./src/frtos_startup/freertos_start.o
                0xffc03298                vAssertCalled
 .text.vApplicationIdleHook
                0xffc032f8        0xc ./src/frtos_startup/freertos_start.o
                0xffc032f8                vApplicationIdleHook
 *fill*         0xffc03304        0x4 
 .text.vApplicationTickHook
                0xffc03308       0x40 ./src/frtos_startup/freertos_start.o
                0xffc03308                vApplicationTickHook
 .text.vPrintString
                0xffc03348       0x28 ./src/frtos_startup/freertos_start.o
                0xffc03348                vPrintString
 .text.vApplicationMallocFailedHook
                0xffc03370       0x30 ./src/frtos_startup/freertos_start.o
                0xffc03370                vApplicationMallocFailedHook
 .text.vApplicationStackOverflowHook
                0xffc033a0       0x30 ./src/frtos_startup/freertos_start.o
                0xffc033a0                vApplicationStackOverflowHook
 .text.Processing_Before_Start_Kernel
                0xffc033d0       0x50 ./src/frtos_startup/freertos_start.o
                0xffc033d0                Processing_Before_Start_Kernel
 .text.vToggleLED
                0xffc03420       0x19 ./src/frtos_startup/freertos_start.o
                0xffc03420                vToggleLED
 *fill*         0xffc03439        0x7 
 .text.vSendString
                0xffc03440       0x38 ./src/frtos_startup/freertos_start.o
                0xffc03440                vSendString
 .text.vBlockingQueueProducer
                0xffc03478       0x38 ./src/FreeRTOS_Demo/Full_Demo/Standard_Demo_Tasks/BlockQ.o
 .text.vBlockingQueueConsumer
                0xffc034b0       0x40 ./src/FreeRTOS_Demo/Full_Demo/Standard_Demo_Tasks/BlockQ.o
 .text.vStartBlockingQueueTasks
                0xffc034f0      0x147 ./src/FreeRTOS_Demo/Full_Demo/Standard_Demo_Tasks/BlockQ.o
                0xffc034f0                vStartBlockingQueueTasks
 .text.xAreBlockingQueuesStillRunning
                0xffc03637       0x89 ./src/FreeRTOS_Demo/Full_Demo/Standard_Demo_Tasks/BlockQ.o
                0xffc03637                xAreBlockingQueuesStillRunning
 .text.prvSyncTask
                0xffc036c0       0xe0 ./src/FreeRTOS_Demo/Full_Demo/Standard_Demo_Tasks/EventGroupsDemo.o
 .text.prvTestSlaveTask
                0xffc037a0      0x118 ./src/FreeRTOS_Demo/Full_Demo/Standard_Demo_Tasks/EventGroupsDemo.o
 .text.prvTestMasterTask
                0xffc038b8      0x3c8 ./src/FreeRTOS_Demo/Full_Demo/Standard_Demo_Tasks/EventGroupsDemo.o
 .text.vStartEventGroupTasks
                0xffc03c80       0xa8 ./src/FreeRTOS_Demo/Full_Demo/Standard_Demo_Tasks/EventGroupsDemo.o
                0xffc03c80                vStartEventGroupTasks
 .text.vPeriodicEventGroupsProcessing
                0xffc03d28       0xa8 ./src/FreeRTOS_Demo/Full_Demo/Standard_Demo_Tasks/EventGroupsDemo.o
                0xffc03d28                vPeriodicEventGroupsProcessing
 .text.xAreEventGroupTasksStillRunning
                0xffc03dd0       0x6a ./src/FreeRTOS_Demo/Full_Demo/Standard_Demo_Tasks/EventGroupsDemo.o
                0xffc03dd0                xAreEventGroupTasksStillRunning
 *fill*         0xffc03e3a        0x6 
 .text.prvMediumPriorityMutexTask
                0xffc03e40       0x18 ./src/FreeRTOS_Demo/Full_Demo/Standard_Demo_Tasks/GenQTest.o
 .text.prvHighPriorityMutexTask
                0xffc03e58       0x60 ./src/FreeRTOS_Demo/Full_Demo/Standard_Demo_Tasks/GenQTest.o
 .text.prvLowPriorityMutexTask
                0xffc03eb8      0x1b0 ./src/FreeRTOS_Demo/Full_Demo/Standard_Demo_Tasks/GenQTest.o
 .text.prvSendFrontAndBackTest
                0xffc04068      0x260 ./src/FreeRTOS_Demo/Full_Demo/Standard_Demo_Tasks/GenQTest.o
 .text.vStartGenericQueueTasks
                0xffc042c8       0x98 ./src/FreeRTOS_Demo/Full_Demo/Standard_Demo_Tasks/GenQTest.o
                0xffc042c8                vStartGenericQueueTasks
 .text.xAreGenericQueueTasksStillRunning
                0xffc04360       0x48 ./src/FreeRTOS_Demo/Full_Demo/Standard_Demo_Tasks/GenQTest.o
                0xffc04360                xAreGenericQueueTasksStillRunning
 .text.xFirstTimerHandler
                0xffc043a8      0x1c0 ./src/FreeRTOS_Demo/Full_Demo/Standard_Demo_Tasks/IntQueue.o
                0xffc043a8                xFirstTimerHandler
 .text.xSecondTimerHandler
                0xffc04568      0x288 ./src/FreeRTOS_Demo/Full_Demo/Standard_Demo_Tasks/IntQueue.o
                0xffc04568                xSecondTimerHandler
 .text.vInterruptCountingSemaphoreTask
                0xffc047f0       0xa0 ./src/FreeRTOS_Demo/Full_Demo/Standard_Demo_Tasks/IntSemTest.o
 .text.vInterruptMutexMasterTask
                0xffc04890      0x1c8 ./src/FreeRTOS_Demo/Full_Demo/Standard_Demo_Tasks/IntSemTest.o
 .text.vInterruptMutexSlaveTask
                0xffc04a58       0x68 ./src/FreeRTOS_Demo/Full_Demo/Standard_Demo_Tasks/IntSemTest.o
 .text.vStartInterruptSemaphoreTasks
                0xffc04ac0       0xd0 ./src/FreeRTOS_Demo/Full_Demo/Standard_Demo_Tasks/IntSemTest.o
                0xffc04ac0                vStartInterruptSemaphoreTasks
 .text.vInterruptSemaphorePeriodicTest
                0xffc04b90       0x80 ./src/FreeRTOS_Demo/Full_Demo/Standard_Demo_Tasks/IntSemTest.o
                0xffc04b90                vInterruptSemaphorePeriodicTest
 .text.xAreInterruptSemaphoreTasksStillRunning
                0xffc04c10       0x48 ./src/FreeRTOS_Demo/Full_Demo/Standard_Demo_Tasks/IntSemTest.o
                0xffc04c10                xAreInterruptSemaphoreTasksStillRunning
 .text.prvQueueOverwriteTask
                0xffc04c58       0xb8 ./src/FreeRTOS_Demo/Full_Demo/Standard_Demo_Tasks/QueueOverwrite.o
 .text.vStartQueueOverwriteTask
                0xffc04d10       0x35 ./src/FreeRTOS_Demo/Full_Demo/Standard_Demo_Tasks/QueueOverwrite.o
                0xffc04d10                vStartQueueOverwriteTask
 .text.xIsQueueOverwriteTaskStillRunning
                0xffc04d45       0x29 ./src/FreeRTOS_Demo/Full_Demo/Standard_Demo_Tasks/QueueOverwrite.o
                0xffc04d45                xIsQueueOverwriteTaskStillRunning
 *fill*         0xffc04d6e        0x2 
 .text.vQueueOverwritePeriodicISRDemo
                0xffc04d70       0xa8 ./src/FreeRTOS_Demo/Full_Demo/Standard_Demo_Tasks/QueueOverwrite.o
                0xffc04d70                vQueueOverwritePeriodicISRDemo
 .text.prvRand  0xffc04e18       0x1a ./src/FreeRTOS_Demo/Full_Demo/Standard_Demo_Tasks/TaskNotify.o
 .text.prvNotifyingTimer
                0xffc04e32       0x2d ./src/FreeRTOS_Demo/Full_Demo/Standard_Demo_Tasks/TaskNotify.o
 *fill*         0xffc04e5f        0x1 
 .text.prvNotifiedTask
                0xffc04e60      0x6c0 ./src/FreeRTOS_Demo/Full_Demo/Standard_Demo_Tasks/TaskNotify.o
 .text.prvSuspendedTaskTimerTestCallback
                0xffc05520       0x68 ./src/FreeRTOS_Demo/Full_Demo/Standard_Demo_Tasks/TaskNotify.o
 .text.vStartTaskNotifyTask
                0xffc05588       0x2f ./src/FreeRTOS_Demo/Full_Demo/Standard_Demo_Tasks/TaskNotify.o
                0xffc05588                vStartTaskNotifyTask
 *fill*         0xffc055b7        0x1 
 .text.xAreTaskNotificationTasksStillRunning
                0xffc055b8       0x50 ./src/FreeRTOS_Demo/Full_Demo/Standard_Demo_Tasks/TaskNotify.o
                0xffc055b8                xAreTaskNotificationTasksStillRunning
 .text.prvRand  0xffc05608       0x1a ./src/FreeRTOS_Demo/Full_Demo/Standard_Demo_Tasks/TaskNotifyArray.o
 .text.prvNotifyingTimerCallback
                0xffc05622       0x32 ./src/FreeRTOS_Demo/Full_Demo/Standard_Demo_Tasks/TaskNotifyArray.o
 *fill*         0xffc05654        0x4 
 .text.prvNotifiedTask
                0xffc05658      0xb88 ./src/FreeRTOS_Demo/Full_Demo/Standard_Demo_Tasks/TaskNotifyArray.o
 .text.prvSuspendedTaskTimerTestCallback
                0xffc061e0       0x80 ./src/FreeRTOS_Demo/Full_Demo/Standard_Demo_Tasks/TaskNotifyArray.o
 .text.vStartTaskNotifyArrayTask
                0xffc06260       0x90 ./src/FreeRTOS_Demo/Full_Demo/Standard_Demo_Tasks/TaskNotifyArray.o
                0xffc06260                vStartTaskNotifyArrayTask
 .text.xAreTaskNotificationArrayTasksStillRunning
                0xffc062f0       0x68 ./src/FreeRTOS_Demo/Full_Demo/Standard_Demo_Tasks/TaskNotifyArray.o
                0xffc062f0                xAreTaskNotificationArrayTasksStillRunning
 .text.prvISRAutoReloadTimerCallback
                0xffc06358        0xd ./src/FreeRTOS_Demo/Full_Demo/Standard_Demo_Tasks/TimerDemo.o
 .text.prvISROneShotTimerCallback
                0xffc06365        0xd ./src/FreeRTOS_Demo/Full_Demo/Standard_Demo_Tasks/TimerDemo.o
 *fill*         0xffc06372        0x6 
 .text.prvOneShotTimerCallback
                0xffc06378       0x40 ./src/FreeRTOS_Demo/Full_Demo/Standard_Demo_Tasks/TimerDemo.o
 .text.prvTimerTestTask
                0xffc063b8      0x6a8 ./src/FreeRTOS_Demo/Full_Demo/Standard_Demo_Tasks/TimerDemo.o
 .text.prvAutoReloadTimerCallback
                0xffc06a60       0x60 ./src/FreeRTOS_Demo/Full_Demo/Standard_Demo_Tasks/TimerDemo.o
 .text.vStartTimerDemoTask
                0xffc06ac0      0x188 ./src/FreeRTOS_Demo/Full_Demo/Standard_Demo_Tasks/TimerDemo.o
                0xffc06ac0                vStartTimerDemoTask
 .text.xAreTimerDemoTasksStillRunning
                0xffc06c48       0x68 ./src/FreeRTOS_Demo/Full_Demo/Standard_Demo_Tasks/TimerDemo.o
                0xffc06c48                xAreTimerDemoTasksStillRunning
 .text.vTimerPeriodicISRTests
                0xffc06cb0      0x340 ./src/FreeRTOS_Demo/Full_Demo/Standard_Demo_Tasks/TimerDemo.o
                0xffc06cb0                vTimerPeriodicISRTests
 .text.vSecondaryBlockTimeTestTask
                0xffc06ff0       0xa0 ./src/FreeRTOS_Demo/Full_Demo/Standard_Demo_Tasks/blocktim.o
 .text.vPrimaryBlockTimeTestTask
                0xffc07090      0x318 ./src/FreeRTOS_Demo/Full_Demo/Standard_Demo_Tasks/blocktim.o
 .text.vCreateBlockTimeTasks
                0xffc073a8       0x58 ./src/FreeRTOS_Demo/Full_Demo/Standard_Demo_Tasks/blocktim.o
                0xffc073a8                vCreateBlockTimeTasks
 .text.xAreBlockTimeTestTasksStillRunning
                0xffc07400       0x5c ./src/FreeRTOS_Demo/Full_Demo/Standard_Demo_Tasks/blocktim.o
                0xffc07400                xAreBlockTimeTestTasksStillRunning
 *fill*         0xffc0745c        0x4 
 .text.prvDecrementSemaphoreCount
                0xffc07460       0xa0 ./src/FreeRTOS_Demo/Full_Demo/Standard_Demo_Tasks/countsem.o
 .text.prvCountingSemaphoreTask
                0xffc07500       0xb0 ./src/FreeRTOS_Demo/Full_Demo/Standard_Demo_Tasks/countsem.o
 .text.vStartCountingSemaphoreTasks
                0xffc075b0       0x80 ./src/FreeRTOS_Demo/Full_Demo/Standard_Demo_Tasks/countsem.o
                0xffc075b0                vStartCountingSemaphoreTasks
 .text.xAreCountingSemaphoreTasksStillRunning
                0xffc07630       0x48 ./src/FreeRTOS_Demo/Full_Demo/Standard_Demo_Tasks/countsem.o
                0xffc07630                xAreCountingSemaphoreTasksStillRunning
 .text.vCreateTasks
                0xffc07678       0x80 ./src/FreeRTOS_Demo/Full_Demo/Standard_Demo_Tasks/death.o
 .text.vSuicidalTask
                0xffc076f8       0x60 ./src/FreeRTOS_Demo/Full_Demo/Standard_Demo_Tasks/death.o
 .text.vCreateSuicidalTasks
                0xffc07758       0x1e ./src/FreeRTOS_Demo/Full_Demo/Standard_Demo_Tasks/death.o
                0xffc07758                vCreateSuicidalTasks
 *fill*         0xffc07776        0x2 
 .text.xIsCreateTaskStillRunning
                0xffc07778       0x50 ./src/FreeRTOS_Demo/Full_Demo/Standard_Demo_Tasks/death.o
                0xffc07778                xIsCreateTaskStillRunning
 .text.vQueueReceiveWhenSuspendedTask
                0xffc077c8       0x78 ./src/FreeRTOS_Demo/Full_Demo/Standard_Demo_Tasks/dynamic.o
 .text.vQueueSendWhenSuspendedTask
                0xffc07840       0x48 ./src/FreeRTOS_Demo/Full_Demo/Standard_Demo_Tasks/dynamic.o
 .text.vLimitedIncrementTask
                0xffc07888       0x20 ./src/FreeRTOS_Demo/Full_Demo/Standard_Demo_Tasks/dynamic.o
 .text.vCounterControlTask
                0xffc078a8       0xc0 ./src/FreeRTOS_Demo/Full_Demo/Standard_Demo_Tasks/dynamic.o
 .text.vContinuousIncrementTask
                0xffc07968       0x78 ./src/FreeRTOS_Demo/Full_Demo/Standard_Demo_Tasks/dynamic.o
 .text.vStartDynamicPriorityTasks
                0xffc079e0       0xb8 ./src/FreeRTOS_Demo/Full_Demo/Standard_Demo_Tasks/dynamic.o
                0xffc079e0                vStartDynamicPriorityTasks
 .text.xAreDynamicPriorityTasksStillRunning
                0xffc07a98       0x60 ./src/FreeRTOS_Demo/Full_Demo/Standard_Demo_Tasks/dynamic.o
                0xffc07a98                xAreDynamicPriorityTasksStillRunning
 .text.vCompetingMathTask2
                0xffc07af8       0xf8 ./src/FreeRTOS_Demo/Full_Demo/Standard_Demo_Tasks/flop.o
 .text.vCompetingMathTask1
                0xffc07bf0       0xf8 ./src/FreeRTOS_Demo/Full_Demo/Standard_Demo_Tasks/flop.o
 .text.vCompetingMathTask4
                0xffc07ce8      0x268 ./src/FreeRTOS_Demo/Full_Demo/Standard_Demo_Tasks/flop.o
 .text.vCompetingMathTask3
                0xffc07f50      0x238 ./src/FreeRTOS_Demo/Full_Demo/Standard_Demo_Tasks/flop.o
 .text.vStartMathTasks
                0xffc08188       0x81 ./src/FreeRTOS_Demo/Full_Demo/Standard_Demo_Tasks/flop.o
                0xffc08188                vStartMathTasks
 *fill*         0xffc08209        0x7 
 .text.xAreMathsTaskStillRunning
                0xffc08210       0x48 ./src/FreeRTOS_Demo/Full_Demo/Standard_Demo_Tasks/flop.o
                0xffc08210                xAreMathsTaskStillRunning
 .text.prvRecursiveMutexPollingTask
                0xffc08258       0xd0 ./src/FreeRTOS_Demo/Full_Demo/Standard_Demo_Tasks/recmutex.o
 .text.prvRecursiveMutexBlockingTask
                0xffc08328       0x70 ./src/FreeRTOS_Demo/Full_Demo/Standard_Demo_Tasks/recmutex.o
 .text.prvRecursiveMutexControllingTask
                0xffc08398       0x98 ./src/FreeRTOS_Demo/Full_Demo/Standard_Demo_Tasks/recmutex.o
 .text.vStartRecursiveMutexTasks
                0xffc08430       0x70 ./src/FreeRTOS_Demo/Full_Demo/Standard_Demo_Tasks/recmutex.o
                0xffc08430                vStartRecursiveMutexTasks
 .text.xAreRecursiveMutexTasksStillRunning
                0xffc084a0       0x98 ./src/FreeRTOS_Demo/Full_Demo/Standard_Demo_Tasks/recmutex.o
                0xffc084a0                xAreRecursiveMutexTasksStillRunning
 .text.prvSemaphoreTest
                0xffc08538       0xf8 ./src/FreeRTOS_Demo/Full_Demo/Standard_Demo_Tasks/semtest.o
 .text.vStartSemaphoreTasks
                0xffc08630       0xe0 ./src/FreeRTOS_Demo/Full_Demo/Standard_Demo_Tasks/semtest.o
                0xffc08630                vStartSemaphoreTasks
 .text.xAreSemaphoreTasksStillRunning
                0xffc08710       0x5a ./src/FreeRTOS_Demo/Full_Demo/Standard_Demo_Tasks/semtest.o
                0xffc08710                xAreSemaphoreTasksStillRunning
 .text.prvHelpCommand
                0xffc0876a       0x3e ./src/FreeRTOS_Demo/Full_Demo/FreeRTOS-Plus-CLI/FreeRTOS_CLI.o
 .text.FreeRTOS_CLIRegisterCommand
                0xffc087a8       0x50 ./src/FreeRTOS_Demo/Full_Demo/FreeRTOS-Plus-CLI/FreeRTOS_CLI.o
                0xffc087a8                FreeRTOS_CLIRegisterCommand
 .text.FreeRTOS_CLIProcessCommand
                0xffc087f8       0xd8 ./src/FreeRTOS_Demo/Full_Demo/FreeRTOS-Plus-CLI/FreeRTOS_CLI.o
                0xffc087f8                FreeRTOS_CLIProcessCommand
 .text.FreeRTOS_CLIGetOutputBuffer
                0xffc088d0        0x7 ./src/FreeRTOS_Demo/Full_Demo/FreeRTOS-Plus-CLI/FreeRTOS_CLI.o
                0xffc088d0                FreeRTOS_CLIGetOutputBuffer
 *fill*         0xffc088d7        0x1 
 .text.FreeRTOS_CLIGetParameter
                0xffc088d8       0x60 ./src/FreeRTOS_Demo/Full_Demo/FreeRTOS-Plus-CLI/FreeRTOS_CLI.o
                0xffc088d8                FreeRTOS_CLIGetParameter
 .text.prvQueryHeapCommand
                0xffc08938       0x30 ./src/FreeRTOS_Demo/Full_Demo/Sample-CLI-commands.o
 .text.prvParameterEchoCommand
                0xffc08968       0x90 ./src/FreeRTOS_Demo/Full_Demo/Sample-CLI-commands.o
 .text.prvThreeParameterEchoCommand
                0xffc089f8       0x98 ./src/FreeRTOS_Demo/Full_Demo/Sample-CLI-commands.o
 .text.prvTaskStatsCommand
                0xffc08a90       0x48 ./src/FreeRTOS_Demo/Full_Demo/Sample-CLI-commands.o
 .text.vRegisterSampleCLICommands
                0xffc08ad8       0x28 ./src/FreeRTOS_Demo/Full_Demo/Sample-CLI-commands.o
                0xffc08ad8                vRegisterSampleCLICommands
 .text.prvUARTCommandConsoleTask
                0xffc08b00      0x168 ./src/FreeRTOS_Demo/Full_Demo/UARTCommandConsole.o
 .text.vUARTCommandConsoleStart
                0xffc08c68       0x56 ./src/FreeRTOS_Demo/Full_Demo/UARTCommandConsole.o
                0xffc08c68                vUARTCommandConsoleStart
 .text.prvRegTest1Implementation
                0xffc08cbe      0x221 ./src/FreeRTOS_Demo/Full_Demo/main_full.o
 .text.prvRegTest2Implementation
                0xffc08edf      0x232 ./src/FreeRTOS_Demo/Full_Demo/main_full.o
 *fill*         0xffc09111        0x7 
 .text.prvCheckTask
                0xffc09118      0x148 ./src/FreeRTOS_Demo/Full_Demo/main_full.o
 .text.prvPseudoRandomiser
                0xffc09260       0x50 ./src/FreeRTOS_Demo/Full_Demo/main_full.o
 .text.prvRegTestTaskEntry2
                0xffc092b0       0x1b ./src/FreeRTOS_Demo/Full_Demo/main_full.o
 .text.prvRegTestTaskEntry1
                0xffc092cb       0x1b ./src/FreeRTOS_Demo/Full_Demo/main_full.o
 *fill*         0xffc092e6        0x2 
 .text.main_full
                0xffc092e8       0xd8 ./src/FreeRTOS_Demo/Full_Demo/main_full.o
                0xffc092e8                main_full
 .text.vFullDemoTickHook
                0xffc093c0       0x18 ./src/FreeRTOS_Demo/Full_Demo/main_full.o
                0xffc093c0                vFullDemoTickHook
 .text.vSerialPortTickHook
                0xffc093d8      0x110 ./src/FreeRTOS_Demo/Full_Demo/serial.o
                0xffc093d8                vSerialPortTickHook
 .text.xSerialPortInitMinimal
                0xffc094e8       0x1f ./src/FreeRTOS_Demo/Full_Demo/serial.o
                0xffc094e8                xSerialPortInitMinimal
 *fill*         0xffc09507        0x1 
 .text.vSerialPutString
                0xffc09508       0x48 ./src/FreeRTOS_Demo/Full_Demo/serial.o
                0xffc09508                vSerialPutString
 .text.xSerialGetChar
                0xffc09550        0xc ./src/FreeRTOS_Demo/Full_Demo/serial.o
                0xffc09550                xSerialGetChar
 .text.xSerialPutChar
                0xffc0955c       0x47 ./src/FreeRTOS_Demo/Full_Demo/serial.o
                0xffc0955c                xSerialPutChar
 *fill*         0xffc095a3        0x5 
 .text.pvPortMalloc
                0xffc095a8      0x1a8 ./src/FreeRTOS/Source/portable/MemMang/heap_4.o
                0xffc095a8                pvPortMalloc
 .text.vPortFree
                0xffc09750       0xc8 ./src/FreeRTOS/Source/portable/MemMang/heap_4.o
                0xffc09750                vPortFree
 .text.xPortGetFreeHeapSize
                0xffc09818        0x9 ./src/FreeRTOS/Source/portable/MemMang/heap_4.o
                0xffc09818                xPortGetFreeHeapSize
 .text.xPortGetMinimumEverFreeHeapSize
                0xffc09821        0x9 ./src/FreeRTOS/Source/portable/MemMang/heap_4.o
                0xffc09821                xPortGetMinimumEverFreeHeapSize
 .text.prvStartFirstTask
                0xffc0982a       0x3f ./src/FreeRTOS/Source/portable/GCC/RX_RenesasSim/port.o
 .text.pxPortInitialiseStack
                0xffc09869       0x3b ./src/FreeRTOS/Source/portable/GCC/RX_RenesasSim/port.o
                0xffc09869                pxPortInitialiseStack
 .text.vPortTaskUsesDPFPU
                0xffc098a4        0xa ./src/FreeRTOS/Source/portable/GCC/RX_RenesasSim/port.o
                0xffc098a4                vPortTaskUsesDPFPU
 *fill*         0xffc098ae        0x2 
 .text.xPortStartScheduler
                0xffc098b0       0x68 ./src/FreeRTOS/Source/portable/GCC/RX_RenesasSim/port.o
                0xffc098b0                xPortStartScheduler
 .text.ulPortGetIPL
                0xffc09918        0x8 ./src/FreeRTOS/Source/portable/GCC/RX_RenesasSim/port.o
                0xffc09918                ulPortGetIPL
 .text.vPortSetIPL
                0xffc09920       0x15 ./src/FreeRTOS/Source/portable/GCC/RX_RenesasSim/port.o
                0xffc09920                vPortSetIPL
 *fill*         0xffc09935        0x3 
 .text.vEventGroupClearBitsCallback
                0xffc09938       0x48 ./src/FreeRTOS/Source/event_groups.o
                0xffc09938                vEventGroupClearBitsCallback
 .text.xEventGroupCreate
                0xffc09980       0x20 ./src/FreeRTOS/Source/event_groups.o
                0xffc09980                xEventGroupCreate
 .text.xEventGroupWaitBits
                0xffc099a0      0x140 ./src/FreeRTOS/Source/event_groups.o
                0xffc099a0                xEventGroupWaitBits
 .text.xEventGroupClearBits
                0xffc09ae0       0x50 ./src/FreeRTOS/Source/event_groups.o
                0xffc09ae0                xEventGroupClearBits
 .text.xEventGroupSetBits
                0xffc09b30       0x88 ./src/FreeRTOS/Source/event_groups.o
                0xffc09b30                xEventGroupSetBits
 .text.xEventGroupSync
                0xffc09bb8      0x148 ./src/FreeRTOS/Source/event_groups.o
                0xffc09bb8                xEventGroupSync
 .text.vEventGroupSetBitsCallback
                0xffc09d00        0x4 ./src/FreeRTOS/Source/event_groups.o
                0xffc09d00                vEventGroupSetBitsCallback
 *fill*         0xffc09d04        0x4 
 .text.vEventGroupDelete
                0xffc09d08       0x60 ./src/FreeRTOS/Source/event_groups.o
                0xffc09d08                vEventGroupDelete
 .text.vListInitialise
                0xffc09d68       0x11 ./src/FreeRTOS/Source/list.o
                0xffc09d68                vListInitialise
 .text.vListInitialiseItem
                0xffc09d79        0x4 ./src/FreeRTOS/Source/list.o
                0xffc09d79                vListInitialiseItem
 .text.vListInsertEnd
                0xffc09d7d       0x17 ./src/FreeRTOS/Source/list.o
                0xffc09d7d                vListInsertEnd
 *fill*         0xffc09d94        0x4 
 .text.vListInsert
                0xffc09d98       0x30 ./src/FreeRTOS/Source/list.o
                0xffc09d98                vListInsert
 .text.uxListRemove
                0xffc09dc8       0x2a ./src/FreeRTOS/Source/list.o
                0xffc09dc8                uxListRemove
 *fill*         0xffc09df2        0x6 
 .text.prvCopyDataToQueue
                0xffc09df8       0x80 ./src/FreeRTOS/Source/queue.o
 .text.prvUnlockQueue
                0xffc09e78      0x138 ./src/FreeRTOS/Source/queue.o
 .text.prvNotifyQueueSetContainer
                0xffc09fb0       0xa8 ./src/FreeRTOS/Source/queue.o
 .text.xQueueGenericReset
                0xffc0a058       0xa8 ./src/FreeRTOS/Source/queue.o
                0xffc0a058                xQueueGenericReset
 .text.xQueueGenericCreate
                0xffc0a100       0xa0 ./src/FreeRTOS/Source/queue.o
                0xffc0a100                xQueueGenericCreate
 .text.xQueueCreateCountingSemaphore
                0xffc0a1a0       0x80 ./src/FreeRTOS/Source/queue.o
                0xffc0a1a0                xQueueCreateCountingSemaphore
 .text.xQueueGenericSend
                0xffc0a220      0x1e0 ./src/FreeRTOS/Source/queue.o
                0xffc0a220                xQueueGenericSend
 .text.xQueueCreateMutex
                0xffc0a400       0x70 ./src/FreeRTOS/Source/queue.o
                0xffc0a400                xQueueCreateMutex
 .text.xQueueGiveMutexRecursive
                0xffc0a470       0x40 ./src/FreeRTOS/Source/queue.o
                0xffc0a470                xQueueGiveMutexRecursive
 .text.xQueueReceive
                0xffc0a4b0      0x1a0 ./src/FreeRTOS/Source/queue.o
                0xffc0a4b0                xQueueReceive
 .text.xQueueSemaphoreTake
                0xffc0a650      0x1f8 ./src/FreeRTOS/Source/queue.o
                0xffc0a650                xQueueSemaphoreTake
 .text.xQueueTakeMutexRecursive
                0xffc0a848       0x40 ./src/FreeRTOS/Source/queue.o
                0xffc0a848                xQueueTakeMutexRecursive
 .text.xQueuePeek
                0xffc0a888      0x1a0 ./src/FreeRTOS/Source/queue.o
                0xffc0a888                xQueuePeek
 .text.uxQueueMessagesWaiting
                0xffc0aa28       0x29 ./src/FreeRTOS/Source/queue.o
                0xffc0aa28                uxQueueMessagesWaiting
 .text.uxQueueSpacesAvailable
                0xffc0aa51       0x35 ./src/FreeRTOS/Source/queue.o
                0xffc0aa51                uxQueueSpacesAvailable
 *fill*         0xffc0aa86        0x2 
 .text.vQueueWaitForMessageRestricted
                0xffc0aa88       0x48 ./src/FreeRTOS/Source/queue.o
                0xffc0aa88                vQueueWaitForMessageRestricted
 .text.vTaskSwitchContext.part.5
                0xffc0aad0      0x228 ./src/FreeRTOS/Source/tasks.o
 .text.prvIdleTask
                0xffc0acf8       0xd0 ./src/FreeRTOS/Source/tasks.o
 .text.xTaskCreate
                0xffc0adc8      0x2d8 ./src/FreeRTOS/Source/tasks.o
                0xffc0adc8                xTaskCreate
 .text.vTaskDelete
                0xffc0b0a0      0x130 ./src/FreeRTOS/Source/tasks.o
                0xffc0b0a0                vTaskDelete
 .text.eTaskGetState
                0xffc0b1d0       0xd0 ./src/FreeRTOS/Source/tasks.o
                0xffc0b1d0                eTaskGetState
 .text.uxTaskPriorityGet
                0xffc0b2a0       0x68 ./src/FreeRTOS/Source/tasks.o
                0xffc0b2a0                uxTaskPriorityGet
 .text.vTaskPrioritySet
                0xffc0b308      0x140 ./src/FreeRTOS/Source/tasks.o
                0xffc0b308                vTaskPrioritySet
 .text.vTaskSuspend
                0xffc0b448      0x1a8 ./src/FreeRTOS/Source/tasks.o
                0xffc0b448                vTaskSuspend
 .text.vTaskResume
                0xffc0b5f0       0xf8 ./src/FreeRTOS/Source/tasks.o
                0xffc0b5f0                vTaskResume
 .text.vTaskStartScheduler
                0xffc0b6e8      0x280 ./src/FreeRTOS/Source/tasks.o
                0xffc0b6e8                vTaskStartScheduler
 .text.vTaskSuspendAll
                0xffc0b968        0xd ./src/FreeRTOS/Source/tasks.o
                0xffc0b968                vTaskSuspendAll
 .text.xTaskGetTickCount
                0xffc0b975        0x9 ./src/FreeRTOS/Source/tasks.o
                0xffc0b975                xTaskGetTickCount
 .text.uxTaskGetNumberOfTasks
                0xffc0b97e        0x9 ./src/FreeRTOS/Source/tasks.o
                0xffc0b97e                uxTaskGetNumberOfTasks
 *fill*         0xffc0b987        0x1 
 .text.xTaskIncrementTick
                0xffc0b988      0x158 ./src/FreeRTOS/Source/tasks.o
                0xffc0b988                xTaskIncrementTick
 .text.xTaskResumeAll
                0xffc0bae0      0x190 ./src/FreeRTOS/Source/tasks.o
                0xffc0bae0                xTaskResumeAll
 .text.xTaskDelayUntil
                0xffc0bc70       0xf8 ./src/FreeRTOS/Source/tasks.o
                0xffc0bc70                xTaskDelayUntil
 .text.vTaskDelay
                0xffc0bd68       0xb8 ./src/FreeRTOS/Source/tasks.o
                0xffc0bd68                vTaskDelay
 .text.xTaskCatchUpTicks
                0xffc0be20       0x4c ./src/FreeRTOS/Source/tasks.o
                0xffc0be20                xTaskCatchUpTicks
 *fill*         0xffc0be6c        0x4 
 .text.prvListTasksWithinSingleList.part.9
                0xffc0be70       0xf0 ./src/FreeRTOS/Source/tasks.o
 .text.uxTaskGetSystemState
                0xffc0bf60       0xe8 ./src/FreeRTOS/Source/tasks.o
                0xffc0bf60                uxTaskGetSystemState
 .text.vTaskSwitchContext
                0xffc0c048       0x1a ./src/FreeRTOS/Source/tasks.o
                0xffc0c048                vTaskSwitchContext
 *fill*         0xffc0c062        0x6 
 .text.vTaskPlaceOnEventList
                0xffc0c068       0x88 ./src/FreeRTOS/Source/tasks.o
                0xffc0c068                vTaskPlaceOnEventList
 .text.vTaskPlaceOnUnorderedEventList
                0xffc0c0f0       0xc0 ./src/FreeRTOS/Source/tasks.o
                0xffc0c0f0                vTaskPlaceOnUnorderedEventList
 .text.vTaskPlaceOnEventListRestricted
                0xffc0c1b0       0xa0 ./src/FreeRTOS/Source/tasks.o
                0xffc0c1b0                vTaskPlaceOnEventListRestricted
 .text.xTaskRemoveFromEventList
                0xffc0c250       0x90 ./src/FreeRTOS/Source/tasks.o
                0xffc0c250                xTaskRemoveFromEventList
 .text.vTaskRemoveFromUnorderedEventList
                0xffc0c2e0       0x90 ./src/FreeRTOS/Source/tasks.o
                0xffc0c2e0                vTaskRemoveFromUnorderedEventList
 .text.vTaskInternalSetTimeOutState
                0xffc0c370       0x15 ./src/FreeRTOS/Source/tasks.o
                0xffc0c370                vTaskInternalSetTimeOutState
 *fill*         0xffc0c385        0x3 
 .text.xTaskCheckForTimeOut
                0xffc0c388       0xd0 ./src/FreeRTOS/Source/tasks.o
                0xffc0c388                xTaskCheckForTimeOut
 .text.vTaskMissedYield
                0xffc0c458        0xa ./src/FreeRTOS/Source/tasks.o
                0xffc0c458                vTaskMissedYield
 .text.xTaskGetCurrentTaskHandle
                0xffc0c462        0x9 ./src/FreeRTOS/Source/tasks.o
                0xffc0c462                xTaskGetCurrentTaskHandle
 .text.xTaskGetSchedulerState
                0xffc0c46b       0x20 ./src/FreeRTOS/Source/tasks.o
                0xffc0c46b                xTaskGetSchedulerState
 *fill*         0xffc0c48b        0x5 
 .text.xTaskPriorityInherit
                0xffc0c490       0x88 ./src/FreeRTOS/Source/tasks.o
                0xffc0c490                xTaskPriorityInherit
 .text.xTaskPriorityDisinherit
                0xffc0c518       0x80 ./src/FreeRTOS/Source/tasks.o
                0xffc0c518                xTaskPriorityDisinherit
 .text.vTaskPriorityDisinheritAfterTimeout
                0xffc0c598       0xa0 ./src/FreeRTOS/Source/tasks.o
                0xffc0c598                vTaskPriorityDisinheritAfterTimeout
 .text.vTaskEnterCritical
                0xffc0c638       0x30 ./src/FreeRTOS/Source/tasks.o
                0xffc0c638                vTaskEnterCritical
 .text.vTaskExitCritical
                0xffc0c668       0x2d ./src/FreeRTOS/Source/tasks.o
                0xffc0c668                vTaskExitCritical
 *fill*         0xffc0c695        0x3 
 .text.vTaskList
                0xffc0c698       0xc0 ./src/FreeRTOS/Source/tasks.o
                0xffc0c698                vTaskList
 .text.uxTaskResetEventItemValue
                0xffc0c758       0x17 ./src/FreeRTOS/Source/tasks.o
                0xffc0c758                uxTaskResetEventItemValue
 *fill*         0xffc0c76f        0x1 
 .text.pvTaskIncrementMutexHeldCount
                0xffc0c770       0x18 ./src/FreeRTOS/Source/tasks.o
                0xffc0c770                pvTaskIncrementMutexHeldCount
 .text.ulTaskGenericNotifyTake
                0xffc0c788      0x180 ./src/FreeRTOS/Source/tasks.o
                0xffc0c788                ulTaskGenericNotifyTake
 .text.xTaskGenericNotifyWait
                0xffc0c908      0x1a8 ./src/FreeRTOS/Source/tasks.o
                0xffc0c908                xTaskGenericNotifyWait
 .text.xTaskGenericNotify
                0xffc0cab0      0x1a0 ./src/FreeRTOS/Source/tasks.o
                0xffc0cab0                xTaskGenericNotify
 .text.xTaskGenericNotifyStateClear
                0xffc0cc50       0x98 ./src/FreeRTOS/Source/tasks.o
                0xffc0cc50                xTaskGenericNotifyStateClear
 .text.ulTaskGenericNotifyValueClear
                0xffc0cce8       0x80 ./src/FreeRTOS/Source/tasks.o
                0xffc0cce8                ulTaskGenericNotifyValueClear
 .text.prvSwitchTimerLists
                0xffc0cd68       0x88 ./src/FreeRTOS/Source/timers.o
 .text.prvTimerTask
                0xffc0cdf0      0x298 ./src/FreeRTOS/Source/timers.o
 .text.xTimerCreateTimerTask
                0xffc0d088       0x88 ./src/FreeRTOS/Source/timers.o
                0xffc0d088                xTimerCreateTimerTask
 .text.xTimerCreate
                0xffc0d110       0xa8 ./src/FreeRTOS/Source/timers.o
                0xffc0d110                xTimerCreate
 .text.xTimerGenericCommand
                0xffc0d1b8       0x70 ./src/FreeRTOS/Source/timers.o
                0xffc0d1b8                xTimerGenericCommand
 .text.vTimerSetReloadMode
                0xffc0d228       0x38 ./src/FreeRTOS/Source/timers.o
                0xffc0d228                vTimerSetReloadMode
 .text.uxTimerGetReloadMode
                0xffc0d260       0x33 ./src/FreeRTOS/Source/timers.o
                0xffc0d260                uxTimerGetReloadMode
 .text.pcTimerGetName
                0xffc0d293       0x14 ./src/FreeRTOS/Source/timers.o
                0xffc0d293                pcTimerGetName
 .text.xTimerIsTimerActive
                0xffc0d2a7       0x33 ./src/FreeRTOS/Source/timers.o
                0xffc0d2a7                xTimerIsTimerActive
 .text.pvTimerGetTimerID
                0xffc0d2da       0x29 ./src/FreeRTOS/Source/timers.o
                0xffc0d2da                pvTimerGetTimerID
 .text.vTimerSetTimerID
                0xffc0d303       0x28 ./src/FreeRTOS/Source/timers.o
                0xffc0d303                vTimerSetTimerID
 .text.sprintf  0xffc0d32b       0x38 c:/renesas/gcc/redhat/gnurx-elf/8.3.0.202004/rx-elf/rx-elf/bin/../lib/gcc/rx-elf/8.3.0.202004-GNURX/../../../../rx-elf/lib/64-bit-double\libc_nano.a(lib_a-sprintf.o)
                0xffc0d32b                siprintf
                0xffc0d32b                sprintf
 .text.__ssputs_r
                0xffc0d363       0xb2 c:/renesas/gcc/redhat/gnurx-elf/8.3.0.202004/rx-elf/rx-elf/bin/../lib/gcc/rx-elf/8.3.0.202004-GNURX/../../../../rx-elf/lib/64-bit-double\libc_nano.a(lib_a-nano-svfprintf.o)
                0xffc0d363                __ssputs_r
 .text._svfprintf_r
                0xffc0d415      0x1ff c:/renesas/gcc/redhat/gnurx-elf/8.3.0.202004/rx-elf/rx-elf/bin/../lib/gcc/rx-elf/8.3.0.202004-GNURX/../../../../rx-elf/lib/64-bit-double\libc_nano.a(lib_a-nano-svfprintf.o)
                0xffc0d415                _svfprintf_r
                0xffc0d415                _svfiprintf_r
 .text._printf_common
                0xffc0d614       0xcf c:/renesas/gcc/redhat/gnurx-elf/8.3.0.202004/rx-elf/rx-elf/bin/../lib/gcc/rx-elf/8.3.0.202004-GNURX/../../../../rx-elf/lib/64-bit-double\libc_nano.a(lib_a-nano-vfprintf_i.o)
                0xffc0d614                _printf_common
 .text._printf_i
                0xffc0d6e3      0x226 c:/renesas/gcc/redhat/gnurx-elf/8.3.0.202004/rx-elf/rx-elf/bin/../lib/gcc/rx-elf/8.3.0.202004-GNURX/../../../../rx-elf/lib/64-bit-double\libc_nano.a(lib_a-nano-vfprintf_i.o)
                0xffc0d6e3                _printf_i
 .text._free_r  0xffc0d909       0x9f c:/renesas/gcc/redhat/gnurx-elf/8.3.0.202004/rx-elf/rx-elf/bin/../lib/gcc/rx-elf/8.3.0.202004-GNURX/../../../../rx-elf/lib/64-bit-double\libc_nano.a(lib_a-nano-freer.o)
                0xffc0d909                _free_r
 .text._malloc_r
                0xffc0d9a8       0xbf c:/renesas/gcc/redhat/gnurx-elf/8.3.0.202004/rx-elf/rx-elf/bin/../lib/gcc/rx-elf/8.3.0.202004-GNURX/../../../../rx-elf/lib/64-bit-double\libc_nano.a(lib_a-nano-mallocr.o)
                0xffc0d9a8                _malloc_r
 .text._realloc_r
                0xffc0da67       0x4a c:/renesas/gcc/redhat/gnurx-elf/8.3.0.202004/rx-elf/rx-elf/bin/../lib/gcc/rx-elf/8.3.0.202004-GNURX/../../../../rx-elf/lib/64-bit-double\libc_nano.a(lib_a-nano-reallocr.o)
                0xffc0da67                _realloc_r
 .text._sbrk_r  0xffc0dab1       0x21 c:/renesas/gcc/redhat/gnurx-elf/8.3.0.202004/rx-elf/rx-elf/bin/../lib/gcc/rx-elf/8.3.0.202004-GNURX/../../../../rx-elf/lib/64-bit-double\libc_nano.a(lib_a-sbrkr.o)
                0xffc0dab1                _sbrk_r
 .text.__malloc_lock
                0xffc0dad2        0x1 c:/renesas/gcc/redhat/gnurx-elf/8.3.0.202004/rx-elf/rx-elf/bin/../lib/gcc/rx-elf/8.3.0.202004-GNURX/../../../../rx-elf/lib/64-bit-double\libc_nano.a(lib_a-mlock.o)
                0xffc0dad2                __malloc_lock
 .text.__malloc_unlock
                0xffc0dad3        0x1 c:/renesas/gcc/redhat/gnurx-elf/8.3.0.202004/rx-elf/rx-elf/bin/../lib/gcc/rx-elf/8.3.0.202004-GNURX/../../../../rx-elf/lib/64-bit-double\libc_nano.a(lib_a-mlock.o)
                0xffc0dad3                __malloc_unlock
 .text._malloc_usable_size_r
                0xffc0dad4       0x12 c:/renesas/gcc/redhat/gnurx-elf/8.3.0.202004/rx-elf/rx-elf/bin/../lib/gcc/rx-elf/8.3.0.202004-GNURX/../../../../rx-elf/lib/64-bit-double\libc_nano.a(lib_a-nano-msizer.o)
                0xffc0dad4                _malloc_usable_size_r
 *(P)
 *fill*         0xffc0dae6        0x2 
 P              0xffc0dae8      0x3d0 c:/renesas/gcc/redhat/gnurx-elf/8.3.0.202004/rx-elf/rx-elf/bin/../lib/gcc/rx-elf/8.3.0.202004-GNURX/64-bit-double\libgcc.a(_udivdi3.o)
                0xffc0dae8                _COM_DIV64u
                0xffc0dae8                __udivdi3
                0xffc0deb8                etext = .

.rvectors       0xffc0deb8      0x400
                0xffc0deb8                _rvectors_start = .
                0xffc0deb8        0x4 LONG 0xffc020e0 DEFINED ($tableentry$0$.rvectors)?$tableentry$0$.rvectors:DEFINED ($tableentry$default$.rvectors)?$tableentry$default$.rvectors:0xffffffff
                0xffc0debc        0x4 LONG 0xffc020e0 DEFINED ($tableentry$1$.rvectors)?$tableentry$1$.rvectors:DEFINED ($tableentry$default$.rvectors)?$tableentry$default$.rvectors:0xffffffff
                0xffc0dec0        0x4 LONG 0xffc020e0 DEFINED ($tableentry$2$.rvectors)?$tableentry$2$.rvectors:DEFINED ($tableentry$default$.rvectors)?$tableentry$default$.rvectors:0xffffffff
                0xffc0dec4        0x4 LONG 0xffc020e0 DEFINED ($tableentry$3$.rvectors)?$tableentry$3$.rvectors:DEFINED ($tableentry$default$.rvectors)?$tableentry$default$.rvectors:0xffffffff
                0xffc0dec8        0x4 LONG 0xffc020e0 DEFINED ($tableentry$4$.rvectors)?$tableentry$4$.rvectors:DEFINED ($tableentry$default$.rvectors)?$tableentry$default$.rvectors:0xffffffff
                0xffc0decc        0x4 LONG 0xffc020e0 DEFINED ($tableentry$5$.rvectors)?$tableentry$5$.rvectors:DEFINED ($tableentry$default$.rvectors)?$tableentry$default$.rvectors:0xffffffff
                0xffc0ded0        0x4 LONG 0xffc020e0 DEFINED ($tableentry$6$.rvectors)?$tableentry$6$.rvectors:DEFINED ($tableentry$default$.rvectors)?$tableentry$default$.rvectors:0xffffffff
                0xffc0ded4        0x4 LONG 0xffc020e0 DEFINED ($tableentry$7$.rvectors)?$tableentry$7$.rvectors:DEFINED ($tableentry$default$.rvectors)?$tableentry$default$.rvectors:0xffffffff
                0xffc0ded8        0x4 LONG 0xffc020e0 DEFINED ($tableentry$8$.rvectors)?$tableentry$8$.rvectors:DEFINED ($tableentry$default$.rvectors)?$tableentry$default$.rvectors:0xffffffff
                0xffc0dedc        0x4 LONG 0xffc020e0 DEFINED ($tableentry$9$.rvectors)?$tableentry$9$.rvectors:DEFINED ($tableentry$default$.rvectors)?$tableentry$default$.rvectors:0xffffffff
                0xffc0dee0        0x4 LONG 0xffc020e0 DEFINED ($tableentry$10$.rvectors)?$tableentry$10$.rvectors:DEFINED ($tableentry$default$.rvectors)?$tableentry$default$.rvectors:0xffffffff
                0xffc0dee4        0x4 LONG 0xffc020e0 DEFINED ($tableentry$11$.rvectors)?$tableentry$11$.rvectors:DEFINED ($tableentry$default$.rvectors)?$tableentry$default$.rvectors:0xffffffff
                0xffc0dee8        0x4 LONG 0xffc020e0 DEFINED ($tableentry$12$.rvectors)?$tableentry$12$.rvectors:DEFINED ($tableentry$default$.rvectors)?$tableentry$default$.rvectors:0xffffffff
                0xffc0deec        0x4 LONG 0xffc020e0 DEFINED ($tableentry$13$.rvectors)?$tableentry$13$.rvectors:DEFINED ($tableentry$default$.rvectors)?$tableentry$default$.rvectors:0xffffffff
                0xffc0def0        0x4 LONG 0xffc020e0 DEFINED ($tableentry$14$.rvectors)?$tableentry$14$.rvectors:DEFINED ($tableentry$default$.rvectors)?$tableentry$default$.rvectors:0xffffffff
                0xffc0def4        0x4 LONG 0xffc020e0 DEFINED ($tableentry$15$.rvectors)?$tableentry$15$.rvectors:DEFINED ($tableentry$default$.rvectors)?$tableentry$default$.rvectors:0xffffffff
                0xffc0def8        0x4 LONG 0xffc02108 DEFINED ($tableentry$16$.rvectors)?$tableentry$16$.rvectors:DEFINED ($tableentry$default$.rvectors)?$tableentry$default$.rvectors:0xffffffff
                0xffc0defc        0x4 LONG 0xffc01dd0 DEFINED ($tableentry$17$.rvectors)?$tableentry$17$.rvectors:DEFINED ($tableentry$default$.rvectors)?$tableentry$default$.rvectors:0xffffffff
                0xffc0df00        0x4 LONG 0xffc020e0 DEFINED ($tableentry$18$.rvectors)?$tableentry$18$.rvectors:DEFINED ($tableentry$default$.rvectors)?$tableentry$default$.rvectors:0xffffffff
                0xffc0df04        0x4 LONG 0xffc020e0 DEFINED ($tableentry$19$.rvectors)?$tableentry$19$.rvectors:DEFINED ($tableentry$default$.rvectors)?$tableentry$default$.rvectors:0xffffffff
                0xffc0df08        0x4 LONG 0xffc020e0 DEFINED ($tableentry$20$.rvectors)?$tableentry$20$.rvectors:DEFINED ($tableentry$default$.rvectors)?$tableentry$default$.rvectors:0xffffffff
                0xffc0df0c        0x4 LONG 0xffc020e0 DEFINED ($tableentry$21$.rvectors)?$tableentry$21$.rvectors:DEFINED ($tableentry$default$.rvectors)?$tableentry$default$.rvectors:0xffffffff
                0xffc0df10        0x4 LONG 0xffc020e0 DEFINED ($tableentry$22$.rvectors)?$tableentry$22$.rvectors:DEFINED ($tableentry$default$.rvectors)?$tableentry$default$.rvectors:0xffffffff
                0xffc0df14        0x4 LONG 0xffc020e0 DEFINED ($tableentry$23$.rvectors)?$tableentry$23$.rvectors:DEFINED ($tableentry$default$.rvectors)?$tableentry$default$.rvectors:0xffffffff
                0xffc0df18        0x4 LONG 0xffc020e0 DEFINED ($tableentry$24$.rvectors)?$tableentry$24$.rvectors:DEFINED ($tableentry$default$.rvectors)?$tableentry$default$.rvectors:0xffffffff
                0xffc0df1c        0x4 LONG 0xffc020e0 DEFINED ($tableentry$25$.rvectors)?$tableentry$25$.rvectors:DEFINED ($tableentry$default$.rvectors)?$tableentry$default$.rvectors:0xffffffff
                0xffc0df20        0x4 LONG 0xffc020e0 DEFINED ($tableentry$26$.rvectors)?$tableentry$26$.rvectors:DEFINED ($tableentry$default$.rvectors)?$tableentry$default$.rvectors:0xffffffff
                0xffc0df24        0x4 LONG 0xffc020e0 DEFINED ($tableentry$27$.rvectors)?$tableentry$27$.rvectors:DEFINED ($tableentry$default$.rvectors)?$tableentry$default$.rvectors:0xffffffff
                0xffc0df28        0x4 LONG 0xffc00346 DEFINED ($tableentry$28$.rvectors)?$tableentry$28$.rvectors:DEFINED ($tableentry$default$.rvectors)?$tableentry$default$.rvectors:0xffffffff
                0xffc0df2c        0x4 LONG 0xffc00298 DEFINED ($tableentry$29$.rvectors)?$tableentry$29$.rvectors:DEFINED ($tableentry$default$.rvectors)?$tableentry$default$.rvectors:0xffffffff
                0xffc0df30        0x4 LONG 0xffc020e0 DEFINED ($tableentry$30$.rvectors)?$tableentry$30$.rvectors:DEFINED ($tableentry$default$.rvectors)?$tableentry$default$.rvectors:0xffffffff
                0xffc0df34        0x4 LONG 0xffc020e0 DEFINED ($tableentry$31$.rvectors)?$tableentry$31$.rvectors:DEFINED ($tableentry$default$.rvectors)?$tableentry$default$.rvectors:0xffffffff
                0xffc0df38        0x4 LONG 0xffc020e0 DEFINED ($tableentry$32$.rvectors)?$tableentry$32$.rvectors:DEFINED ($tableentry$default$.rvectors)?$tableentry$default$.rvectors:0xffffffff
                0xffc0df3c        0x4 LONG 0xffc020e0 DEFINED ($tableentry$33$.rvectors)?$tableentry$33$.rvectors:DEFINED ($tableentry$default$.rvectors)?$tableentry$default$.rvectors:0xffffffff
                0xffc0df40        0x4 LONG 0xffc020e0 DEFINED ($tableentry$34$.rvectors)?$tableentry$34$.rvectors:DEFINED ($tableentry$default$.rvectors)?$tableentry$default$.rvectors:0xffffffff
                0xffc0df44        0x4 LONG 0xffc020e0 DEFINED ($tableentry$35$.rvectors)?$tableentry$35$.rvectors:DEFINED ($tableentry$default$.rvectors)?$tableentry$default$.rvectors:0xffffffff
                0xffc0df48        0x4 LONG 0xffc020e0 DEFINED ($tableentry$36$.rvectors)?$tableentry$36$.rvectors:DEFINED ($tableentry$default$.rvectors)?$tableentry$default$.rvectors:0xffffffff
                0xffc0df4c        0x4 LONG 0xffc020e0 DEFINED ($tableentry$37$.rvectors)?$tableentry$37$.rvectors:DEFINED ($tableentry$default$.rvectors)?$tableentry$default$.rvectors:0xffffffff
                0xffc0df50        0x4 LONG 0xffc020e0 DEFINED ($tableentry$38$.rvectors)?$tableentry$38$.rvectors:DEFINED ($tableentry$default$.rvectors)?$tableentry$default$.rvectors:0xffffffff
                0xffc0df54        0x4 LONG 0xffc020e0 DEFINED ($tableentry$39$.rvectors)?$tableentry$39$.rvectors:DEFINED ($tableentry$default$.rvectors)?$tableentry$default$.rvectors:0xffffffff
                0xffc0df58        0x4 LONG 0xffc020e0 DEFINED ($tableentry$40$.rvectors)?$tableentry$40$.rvectors:DEFINED ($tableentry$default$.rvectors)?$tableentry$default$.rvectors:0xffffffff
                0xffc0df5c        0x4 LONG 0xffc020e0 DEFINED ($tableentry$41$.rvectors)?$tableentry$41$.rvectors:DEFINED ($tableentry$default$.rvectors)?$tableentry$default$.rvectors:0xffffffff
                0xffc0df60        0x4 LONG 0xffc020e0 DEFINED ($tableentry$42$.rvectors)?$tableentry$42$.rvectors:DEFINED ($tableentry$default$.rvectors)?$tableentry$default$.rvectors:0xffffffff
                0xffc0df64        0x4 LONG 0xffc020e0 DEFINED ($tableentry$43$.rvectors)?$tableentry$43$.rvectors:DEFINED ($tableentry$default$.rvectors)?$tableentry$default$.rvectors:0xffffffff
                0xffc0df68        0x4 LONG 0xffc020e0 DEFINED ($tableentry$44$.rvectors)?$tableentry$44$.rvectors:DEFINED ($tableentry$default$.rvectors)?$tableentry$default$.rvectors:0xffffffff
                0xffc0df6c        0x4 LONG 0xffc020e0 DEFINED ($tableentry$45$.rvectors)?$tableentry$45$.rvectors:DEFINED ($tableentry$default$.rvectors)?$tableentry$default$.rvectors:0xffffffff
                0xffc0df70        0x4 LONG 0xffc020e0 DEFINED ($tableentry$46$.rvectors)?$tableentry$46$.rvectors:DEFINED ($tableentry$default$.rvectors)?$tableentry$default$.rvectors:0xffffffff
                0xffc0df74        0x4 LONG 0xffc020e0 DEFINED ($tableentry$47$.rvectors)?$tableentry$47$.rvectors:DEFINED ($tableentry$default$.rvectors)?$tableentry$default$.rvectors:0xffffffff
                0xffc0df78        0x4 LONG 0xffc020e0 DEFINED ($tableentry$48$.rvectors)?$tableentry$48$.rvectors:DEFINED ($tableentry$default$.rvectors)?$tableentry$default$.rvectors:0xffffffff
                0xffc0df7c        0x4 LONG 0xffc020e0 DEFINED ($tableentry$49$.rvectors)?$tableentry$49$.rvectors:DEFINED ($tableentry$default$.rvectors)?$tableentry$default$.rvectors:0xffffffff
                0xffc0df80        0x4 LONG 0xffc020e0 DEFINED ($tableentry$50$.rvectors)?$tableentry$50$.rvectors:DEFINED ($tableentry$default$.rvectors)?$tableentry$default$.rvectors:0xffffffff
                0xffc0df84        0x4 LONG 0xffc020e0 DEFINED ($tableentry$51$.rvectors)?$tableentry$51$.rvectors:DEFINED ($tableentry$default$.rvectors)?$tableentry$default$.rvectors:0xffffffff
                0xffc0df88        0x4 LONG 0xffc020e0 DEFINED ($tableentry$52$.rvectors)?$tableentry$52$.rvectors:DEFINED ($tableentry$default$.rvectors)?$tableentry$default$.rvectors:0xffffffff
                0xffc0df8c        0x4 LONG 0xffc020e0 DEFINED ($tableentry$53$.rvectors)?$tableentry$53$.rvectors:DEFINED ($tableentry$default$.rvectors)?$tableentry$default$.rvectors:0xffffffff
                0xffc0df90        0x4 LONG 0xffc020e0 DEFINED ($tableentry$54$.rvectors)?$tableentry$54$.rvectors:DEFINED ($tableentry$default$.rvectors)?$tableentry$default$.rvectors:0xffffffff
                0xffc0df94        0x4 LONG 0xffc020e0 DEFINED ($tableentry$55$.rvectors)?$tableentry$55$.rvectors:DEFINED ($tableentry$default$.rvectors)?$tableentry$default$.rvectors:0xffffffff
                0xffc0df98        0x4 LONG 0xffc020e0 DEFINED ($tableentry$56$.rvectors)?$tableentry$56$.rvectors:DEFINED ($tableentry$default$.rvectors)?$tableentry$default$.rvectors:0xffffffff
                0xffc0df9c        0x4 LONG 0xffc020e0 DEFINED ($tableentry$57$.rvectors)?$tableentry$57$.rvectors:DEFINED ($tableentry$default$.rvectors)?$tableentry$default$.rvectors:0xffffffff
                0xffc0dfa0        0x4 LONG 0xffc020e0 DEFINED ($tableentry$58$.rvectors)?$tableentry$58$.rvectors:DEFINED ($tableentry$default$.rvectors)?$tableentry$default$.rvectors:0xffffffff
                0xffc0dfa4        0x4 LONG 0xffc020e0 DEFINED ($tableentry$59$.rvectors)?$tableentry$59$.rvectors:DEFINED ($tableentry$default$.rvectors)?$tableentry$default$.rvectors:0xffffffff
                0xffc0dfa8        0x4 LONG 0xffc020e0 DEFINED ($tableentry$60$.rvectors)?$tableentry$60$.rvectors:DEFINED ($tableentry$default$.rvectors)?$tableentry$default$.rvectors:0xffffffff
                0xffc0dfac        0x4 LONG 0xffc020e0 DEFINED ($tableentry$61$.rvectors)?$tableentry$61$.rvectors:DEFINED ($tableentry$default$.rvectors)?$tableentry$default$.rvectors:0xffffffff
                0xffc0dfb0        0x4 LONG 0xffc020e0 DEFINED ($tableentry$62$.rvectors)?$tableentry$62$.rvectors:DEFINED ($tableentry$default$.rvectors)?$tableentry$default$.rvectors:0xffffffff
                0xffc0dfb4        0x4 LONG 0xffc020e0 DEFINED ($tableentry$63$.rvectors)?$tableentry$63$.rvectors:DEFINED ($tableentry$default$.rvectors)?$tableentry$default$.rvectors:0xffffffff
                0xffc0dfb8        0x4 LONG 0xffc020e0 DEFINED ($tableentry$64$.rvectors)?$tableentry$64$.rvectors:DEFINED ($tableentry$default$.rvectors)?$tableentry$default$.rvectors:0xffffffff
                0xffc0dfbc        0x4 LONG 0xffc020e0 DEFINED ($tableentry$65$.rvectors)?$tableentry$65$.rvectors:DEFINED ($tableentry$default$.rvectors)?$tableentry$default$.rvectors:0xffffffff
                0xffc0dfc0        0x4 LONG 0xffc020e0 DEFINED ($tableentry$66$.rvectors)?$tableentry$66$.rvectors:DEFINED ($tableentry$default$.rvectors)?$tableentry$default$.rvectors:0xffffffff
                0xffc0dfc4        0x4 LONG 0xffc020e0 DEFINED ($tableentry$67$.rvectors)?$tableentry$67$.rvectors:DEFINED ($tableentry$default$.rvectors)?$tableentry$default$.rvectors:0xffffffff
                0xffc0dfc8        0x4 LONG 0xffc020e0 DEFINED ($tableentry$68$.rvectors)?$tableentry$68$.rvectors:DEFINED ($tableentry$default$.rvectors)?$tableentry$default$.rvectors:0xffffffff
                0xffc0dfcc        0x4 LONG 0xffc020e0 DEFINED ($tableentry$69$.rvectors)?$tableentry$69$.rvectors:DEFINED ($tableentry$default$.rvectors)?$tableentry$default$.rvectors:0xffffffff
                0xffc0dfd0        0x4 LONG 0xffc020e0 DEFINED ($tableentry$70$.rvectors)?$tableentry$70$.rvectors:DEFINED ($tableentry$default$.rvectors)?$tableentry$default$.rvectors:0xffffffff
                0xffc0dfd4        0x4 LONG 0xffc020e0 DEFINED ($tableentry$71$.rvectors)?$tableentry$71$.rvectors:DEFINED ($tableentry$default$.rvectors)?$tableentry$default$.rvectors:0xffffffff
                0xffc0dfd8        0x4 LONG 0xffc020e0 DEFINED ($tableentry$72$.rvectors)?$tableentry$72$.rvectors:DEFINED ($tableentry$default$.rvectors)?$tableentry$default$.rvectors:0xffffffff
                0xffc0dfdc        0x4 LONG 0xffc020e0 DEFINED ($tableentry$73$.rvectors)?$tableentry$73$.rvectors:DEFINED ($tableentry$default$.rvectors)?$tableentry$default$.rvectors:0xffffffff
                0xffc0dfe0        0x4 LONG 0xffc020e0 DEFINED ($tableentry$74$.rvectors)?$tableentry$74$.rvectors:DEFINED ($tableentry$default$.rvectors)?$tableentry$default$.rvectors:0xffffffff
                0xffc0dfe4        0x4 LONG 0xffc020e0 DEFINED ($tableentry$75$.rvectors)?$tableentry$75$.rvectors:DEFINED ($tableentry$default$.rvectors)?$tableentry$default$.rvectors:0xffffffff
                0xffc0dfe8        0x4 LONG 0xffc020e0 DEFINED ($tableentry$76$.rvectors)?$tableentry$76$.rvectors:DEFINED ($tableentry$default$.rvectors)?$tableentry$default$.rvectors:0xffffffff
                0xffc0dfec        0x4 LONG 0xffc020e0 DEFINED ($tableentry$77$.rvectors)?$tableentry$77$.rvectors:DEFINED ($tableentry$default$.rvectors)?$tableentry$default$.rvectors:0xffffffff
                0xffc0dff0        0x4 LONG 0xffc020e0 DEFINED ($tableentry$78$.rvectors)?$tableentry$78$.rvectors:DEFINED ($tableentry$default$.rvectors)?$tableentry$default$.rvectors:0xffffffff
                0xffc0dff4        0x4 LONG 0xffc020e0 DEFINED ($tableentry$79$.rvectors)?$tableentry$79$.rvectors:DEFINED ($tableentry$default$.rvectors)?$tableentry$default$.rvectors:0xffffffff
                0xffc0dff8        0x4 LONG 0xffc020e0 DEFINED ($tableentry$80$.rvectors)?$tableentry$80$.rvectors:DEFINED ($tableentry$default$.rvectors)?$tableentry$default$.rvectors:0xffffffff
                0xffc0dffc        0x4 LONG 0xffc020e0 DEFINED ($tableentry$81$.rvectors)?$tableentry$81$.rvectors:DEFINED ($tableentry$default$.rvectors)?$tableentry$default$.rvectors:0xffffffff
                0xffc0e000        0x4 LONG 0xffc020e0 DEFINED ($tableentry$82$.rvectors)?$tableentry$82$.rvectors:DEFINED ($tableentry$default$.rvectors)?$tableentry$default$.rvectors:0xffffffff
                0xffc0e004        0x4 LONG 0xffc020e0 DEFINED ($tableentry$83$.rvectors)?$tableentry$83$.rvectors:DEFINED ($tableentry$default$.rvectors)?$tableentry$default$.rvectors:0xffffffff
                0xffc0e008        0x4 LONG 0xffc020e0 DEFINED ($tableentry$84$.rvectors)?$tableentry$84$.rvectors:DEFINED ($tableentry$default$.rvectors)?$tableentry$default$.rvectors:0xffffffff
                0xffc0e00c        0x4 LONG 0xffc020e0 DEFINED ($tableentry$85$.rvectors)?$tableentry$85$.rvectors:DEFINED ($tableentry$default$.rvectors)?$tableentry$default$.rvectors:0xffffffff
                0xffc0e010        0x4 LONG 0xffc020e0 DEFINED ($tableentry$86$.rvectors)?$tableentry$86$.rvectors:DEFINED ($tableentry$default$.rvectors)?$tableentry$default$.rvectors:0xffffffff
                0xffc0e014        0x4 LONG 0xffc020e0 DEFINED ($tableentry$87$.rvectors)?$tableentry$87$.rvectors:DEFINED ($tableentry$default$.rvectors)?$tableentry$default$.rvectors:0xffffffff
                0xffc0e018        0x4 LONG 0xffc020e0 DEFINED ($tableentry$88$.rvectors)?$tableentry$88$.rvectors:DEFINED ($tableentry$default$.rvectors)?$tableentry$default$.rvectors:0xffffffff
                0xffc0e01c        0x4 LONG 0xffc020e0 DEFINED ($tableentry$89$.rvectors)?$tableentry$89$.rvectors:DEFINED ($tableentry$default$.rvectors)?$tableentry$default$.rvectors:0xffffffff
                0xffc0e020        0x4 LONG 0xffc020e0 DEFINED ($tableentry$90$.rvectors)?$tableentry$90$.rvectors:DEFINED ($tableentry$default$.rvectors)?$tableentry$default$.rvectors:0xffffffff
                0xffc0e024        0x4 LONG 0xffc020e0 DEFINED ($tableentry$91$.rvectors)?$tableentry$91$.rvectors:DEFINED ($tableentry$default$.rvectors)?$tableentry$default$.rvectors:0xffffffff
                0xffc0e028        0x4 LONG 0xffc020e0 DEFINED ($tableentry$92$.rvectors)?$tableentry$92$.rvectors:DEFINED ($tableentry$default$.rvectors)?$tableentry$default$.rvectors:0xffffffff
                0xffc0e02c        0x4 LONG 0xffc020e0 DEFINED ($tableentry$93$.rvectors)?$tableentry$93$.rvectors:DEFINED ($tableentry$default$.rvectors)?$tableentry$default$.rvectors:0xffffffff
                0xffc0e030        0x4 LONG 0xffc020e0 DEFINED ($tableentry$94$.rvectors)?$tableentry$94$.rvectors:DEFINED ($tableentry$default$.rvectors)?$tableentry$default$.rvectors:0xffffffff
                0xffc0e034        0x4 LONG 0xffc020e0 DEFINED ($tableentry$95$.rvectors)?$tableentry$95$.rvectors:DEFINED ($tableentry$default$.rvectors)?$tableentry$default$.rvectors:0xffffffff
                0xffc0e038        0x4 LONG 0xffc020e0 DEFINED ($tableentry$96$.rvectors)?$tableentry$96$.rvectors:DEFINED ($tableentry$default$.rvectors)?$tableentry$default$.rvectors:0xffffffff
                0xffc0e03c        0x4 LONG 0xffc020e0 DEFINED ($tableentry$97$.rvectors)?$tableentry$97$.rvectors:DEFINED ($tableentry$default$.rvectors)?$tableentry$default$.rvectors:0xffffffff
                0xffc0e040        0x4 LONG 0xffc020e0 DEFINED ($tableentry$98$.rvectors)?$tableentry$98$.rvectors:DEFINED ($tableentry$default$.rvectors)?$tableentry$default$.rvectors:0xffffffff
                0xffc0e044        0x4 LONG 0xffc020e0 DEFINED ($tableentry$99$.rvectors)?$tableentry$99$.rvectors:DEFINED ($tableentry$default$.rvectors)?$tableentry$default$.rvectors:0xffffffff
                0xffc0e048        0x4 LONG 0xffc020e0 DEFINED ($tableentry$100$.rvectors)?$tableentry$100$.rvectors:DEFINED ($tableentry$default$.rvectors)?$tableentry$default$.rvectors:0xffffffff
                0xffc0e04c        0x4 LONG 0xffc020e0 DEFINED ($tableentry$101$.rvectors)?$tableentry$101$.rvectors:DEFINED ($tableentry$default$.rvectors)?$tableentry$default$.rvectors:0xffffffff
                0xffc0e050        0x4 LONG 0xffc020e0 DEFINED ($tableentry$102$.rvectors)?$tableentry$102$.rvectors:DEFINED ($tableentry$default$.rvectors)?$tableentry$default$.rvectors:0xffffffff
                0xffc0e054        0x4 LONG 0xffc020e0 DEFINED ($tableentry$103$.rvectors)?$tableentry$103$.rvectors:DEFINED ($tableentry$default$.rvectors)?$tableentry$default$.rvectors:0xffffffff
                0xffc0e058        0x4 LONG 0xffc020e0 DEFINED ($tableentry$104$.rvectors)?$tableentry$104$.rvectors:DEFINED ($tableentry$default$.rvectors)?$tableentry$default$.rvectors:0xffffffff
                0xffc0e05c        0x4 LONG 0xffc020e0 DEFINED ($tableentry$105$.rvectors)?$tableentry$105$.rvectors:DEFINED ($tableentry$default$.rvectors)?$tableentry$default$.rvectors:0xffffffff
                0xffc0e060        0x4 LONG 0xffc01e08 DEFINED ($tableentry$106$.rvectors)?$tableentry$106$.rvectors:DEFINED ($tableentry$default$.rvectors)?$tableentry$default$.rvectors:0xffffffff
                0xffc0e064        0x4 LONG 0xffc018a8 DEFINED ($tableentry$107$.rvectors)?$tableentry$107$.rvectors:DEFINED ($tableentry$default$.rvectors)?$tableentry$default$.rvectors:0xffffffff
                0xffc0e068        0x4 LONG 0xffc020e0 DEFINED ($tableentry$108$.rvectors)?$tableentry$108$.rvectors:DEFINED ($tableentry$default$.rvectors)?$tableentry$default$.rvectors:0xffffffff
                0xffc0e06c        0x4 LONG 0xffc020e0 DEFINED ($tableentry$109$.rvectors)?$tableentry$109$.rvectors:DEFINED ($tableentry$default$.rvectors)?$tableentry$default$.rvectors:0xffffffff
                0xffc0e070        0x4 LONG 0xffc00f88 DEFINED ($tableentry$110$.rvectors)?$tableentry$110$.rvectors:DEFINED ($tableentry$default$.rvectors)?$tableentry$default$.rvectors:0xffffffff
                0xffc0e074        0x4 LONG 0xffc01490 DEFINED ($tableentry$111$.rvectors)?$tableentry$111$.rvectors:DEFINED ($tableentry$default$.rvectors)?$tableentry$default$.rvectors:0xffffffff
                0xffc0e078        0x4 LONG 0xffc01960 DEFINED ($tableentry$112$.rvectors)?$tableentry$112$.rvectors:DEFINED ($tableentry$default$.rvectors)?$tableentry$default$.rvectors:0xffffffff
                0xffc0e07c        0x4 LONG 0xffc01c58 DEFINED ($tableentry$113$.rvectors)?$tableentry$113$.rvectors:DEFINED ($tableentry$default$.rvectors)?$tableentry$default$.rvectors:0xffffffff
                0xffc0e080        0x4 LONG 0xffc020e0 DEFINED ($tableentry$114$.rvectors)?$tableentry$114$.rvectors:DEFINED ($tableentry$default$.rvectors)?$tableentry$default$.rvectors:0xffffffff
                0xffc0e084        0x4 LONG 0xffc020e0 DEFINED ($tableentry$115$.rvectors)?$tableentry$115$.rvectors:DEFINED ($tableentry$default$.rvectors)?$tableentry$default$.rvectors:0xffffffff
                0xffc0e088        0x4 LONG 0xffc020e0 DEFINED ($tableentry$116$.rvectors)?$tableentry$116$.rvectors:DEFINED ($tableentry$default$.rvectors)?$tableentry$default$.rvectors:0xffffffff
                0xffc0e08c        0x4 LONG 0xffc020e0 DEFINED ($tableentry$117$.rvectors)?$tableentry$117$.rvectors:DEFINED ($tableentry$default$.rvectors)?$tableentry$default$.rvectors:0xffffffff
                0xffc0e090        0x4 LONG 0xffc020e0 DEFINED ($tableentry$118$.rvectors)?$tableentry$118$.rvectors:DEFINED ($tableentry$default$.rvectors)?$tableentry$default$.rvectors:0xffffffff
                0xffc0e094        0x4 LONG 0xffc020e0 DEFINED ($tableentry$119$.rvectors)?$tableentry$119$.rvectors:DEFINED ($tableentry$default$.rvectors)?$tableentry$default$.rvectors:0xffffffff
                0xffc0e098        0x4 LONG 0xffc020e0 DEFINED ($tableentry$120$.rvectors)?$tableentry$120$.rvectors:DEFINED ($tableentry$default$.rvectors)?$tableentry$default$.rvectors:0xffffffff
                0xffc0e09c        0x4 LONG 0xffc020e0 DEFINED ($tableentry$121$.rvectors)?$tableentry$121$.rvectors:DEFINED ($tableentry$default$.rvectors)?$tableentry$default$.rvectors:0xffffffff
                0xffc0e0a0        0x4 LONG 0xffc020e0 DEFINED ($tableentry$122$.rvectors)?$tableentry$122$.rvectors:DEFINED ($tableentry$default$.rvectors)?$tableentry$default$.rvectors:0xffffffff
                0xffc0e0a4        0x4 LONG 0xffc020e0 DEFINED ($tableentry$123$.rvectors)?$tableentry$123$.rvectors:DEFINED ($tableentry$default$.rvectors)?$tableentry$default$.rvectors:0xffffffff
                0xffc0e0a8        0x4 LONG 0xffc020e0 DEFINED ($tableentry$124$.rvectors)?$tableentry$124$.rvectors:DEFINED ($tableentry$default$.rvectors)?$tableentry$default$.rvectors:0xffffffff
                0xffc0e0ac        0x4 LONG 0xffc020e0 DEFINED ($tableentry$125$.rvectors)?$tableentry$125$.rvectors:DEFINED ($tableentry$default$.rvectors)?$tableentry$default$.rvectors:0xffffffff
                0xffc0e0b0        0x4 LONG 0xffc020e0 DEFINED ($tableentry$126$.rvectors)?$tableentry$126$.rvectors:DEFINED ($tableentry$default$.rvectors)?$tableentry$default$.rvectors:0xffffffff
                0xffc0e0b4        0x4 LONG 0xffc020e0 DEFINED ($tableentry$127$.rvectors)?$tableentry$127$.rvectors:DEFINED ($tableentry$default$.rvectors)?$tableentry$default$.rvectors:0xffffffff
                0xffc0e0b8        0x4 LONG 0xffc00208 DEFINED ($tableentry$128$.rvectors)?$tableentry$128$.rvectors:DEFINED ($tableentry$default$.rvectors)?$tableentry$default$.rvectors:0xffffffff
                0xffc0e0bc        0x4 LONG 0xffc00250 DEFINED ($tableentry$129$.rvectors)?$tableentry$129$.rvectors:DEFINED ($tableentry$default$.rvectors)?$tableentry$default$.rvectors:0xffffffff
                0xffc0e0c0        0x4 LONG 0xffc020e0 DEFINED ($tableentry$130$.rvectors)?$tableentry$130$.rvectors:DEFINED ($tableentry$default$.rvectors)?$tableentry$default$.rvectors:0xffffffff
                0xffc0e0c4        0x4 LONG 0xffc020e0 DEFINED ($tableentry$131$.rvectors)?$tableentry$131$.rvectors:DEFINED ($tableentry$default$.rvectors)?$tableentry$default$.rvectors:0xffffffff
                0xffc0e0c8        0x4 LONG 0xffc020e0 DEFINED ($tableentry$132$.rvectors)?$tableentry$132$.rvectors:DEFINED ($tableentry$default$.rvectors)?$tableentry$default$.rvectors:0xffffffff
                0xffc0e0cc        0x4 LONG 0xffc020e0 DEFINED ($tableentry$133$.rvectors)?$tableentry$133$.rvectors:DEFINED ($tableentry$default$.rvectors)?$tableentry$default$.rvectors:0xffffffff
                0xffc0e0d0        0x4 LONG 0xffc020e0 DEFINED ($tableentry$134$.rvectors)?$tableentry$134$.rvectors:DEFINED ($tableentry$default$.rvectors)?$tableentry$default$.rvectors:0xffffffff
                0xffc0e0d4        0x4 LONG 0xffc020e0 DEFINED ($tableentry$135$.rvectors)?$tableentry$135$.rvectors:DEFINED ($tableentry$default$.rvectors)?$tableentry$default$.rvectors:0xffffffff
                0xffc0e0d8        0x4 LONG 0xffc020e0 DEFINED ($tableentry$136$.rvectors)?$tableentry$136$.rvectors:DEFINED ($tableentry$default$.rvectors)?$tableentry$default$.rvectors:0xffffffff
                0xffc0e0dc        0x4 LONG 0xffc020e0 DEFINED ($tableentry$137$.rvectors)?$tableentry$137$.rvectors:DEFINED ($tableentry$default$.rvectors)?$tableentry$default$.rvectors:0xffffffff
                0xffc0e0e0        0x4 LONG 0xffc020e0 DEFINED ($tableentry$138$.rvectors)?$tableentry$138$.rvectors:DEFINED ($tableentry$default$.rvectors)?$tableentry$default$.rvectors:0xffffffff
                0xffc0e0e4        0x4 LONG 0xffc020e0 DEFINED ($tableentry$139$.rvectors)?$tableentry$139$.rvectors:DEFINED ($tableentry$default$.rvectors)?$tableentry$default$.rvectors:0xffffffff
                0xffc0e0e8        0x4 LONG 0xffc020e0 DEFINED ($tableentry$140$.rvectors)?$tableentry$140$.rvectors:DEFINED ($tableentry$default$.rvectors)?$tableentry$default$.rvectors:0xffffffff
                0xffc0e0ec        0x4 LONG 0xffc020e0 DEFINED ($tableentry$141$.rvectors)?$tableentry$141$.rvectors:DEFINED ($tableentry$default$.rvectors)?$tableentry$default$.rvectors:0xffffffff
                0xffc0e0f0        0x4 LONG 0xffc020e0 DEFINED ($tableentry$142$.rvectors)?$tableentry$142$.rvectors:DEFINED ($tableentry$default$.rvectors)?$tableentry$default$.rvectors:0xffffffff
                0xffc0e0f4        0x4 LONG 0xffc020e0 DEFINED ($tableentry$143$.rvectors)?$tableentry$143$.rvectors:DEFINED ($tableentry$default$.rvectors)?$tableentry$default$.rvectors:0xffffffff
                0xffc0e0f8        0x4 LONG 0xffc020e0 DEFINED ($tableentry$144$.rvectors)?$tableentry$144$.rvectors:DEFINED ($tableentry$default$.rvectors)?$tableentry$default$.rvectors:0xffffffff
                0xffc0e0fc        0x4 LONG 0xffc020e0 DEFINED ($tableentry$145$.rvectors)?$tableentry$145$.rvectors:DEFINED ($tableentry$default$.rvectors)?$tableentry$default$.rvectors:0xffffffff
                0xffc0e100        0x4 LONG 0xffc020e0 DEFINED ($tableentry$146$.rvectors)?$tableentry$146$.rvectors:DEFINED ($tableentry$default$.rvectors)?$tableentry$default$.rvectors:0xffffffff
                0xffc0e104        0x4 LONG 0xffc020e0 DEFINED ($tableentry$147$.rvectors)?$tableentry$147$.rvectors:DEFINED ($tableentry$default$.rvectors)?$tableentry$default$.rvectors:0xffffffff
                0xffc0e108        0x4 LONG 0xffc020e0 DEFINED ($tableentry$148$.rvectors)?$tableentry$148$.rvectors:DEFINED ($tableentry$default$.rvectors)?$tableentry$default$.rvectors:0xffffffff
                0xffc0e10c        0x4 LONG 0xffc020e0 DEFINED ($tableentry$149$.rvectors)?$tableentry$149$.rvectors:DEFINED ($tableentry$default$.rvectors)?$tableentry$default$.rvectors:0xffffffff
                0xffc0e110        0x4 LONG 0xffc020e0 DEFINED ($tableentry$150$.rvectors)?$tableentry$150$.rvectors:DEFINED ($tableentry$default$.rvectors)?$tableentry$default$.rvectors:0xffffffff
                0xffc0e114        0x4 LONG 0xffc020e0 DEFINED ($tableentry$151$.rvectors)?$tableentry$151$.rvectors:DEFINED ($tableentry$default$.rvectors)?$tableentry$default$.rvectors:0xffffffff
                0xffc0e118        0x4 LONG 0xffc020e0 DEFINED ($tableentry$152$.rvectors)?$tableentry$152$.rvectors:DEFINED ($tableentry$default$.rvectors)?$tableentry$default$.rvectors:0xffffffff
                0xffc0e11c        0x4 LONG 0xffc020e0 DEFINED ($tableentry$153$.rvectors)?$tableentry$153$.rvectors:DEFINED ($tableentry$default$.rvectors)?$tableentry$default$.rvectors:0xffffffff
                0xffc0e120        0x4 LONG 0xffc020e0 DEFINED ($tableentry$154$.rvectors)?$tableentry$154$.rvectors:DEFINED ($tableentry$default$.rvectors)?$tableentry$default$.rvectors:0xffffffff
                0xffc0e124        0x4 LONG 0xffc020e0 DEFINED ($tableentry$155$.rvectors)?$tableentry$155$.rvectors:DEFINED ($tableentry$default$.rvectors)?$tableentry$default$.rvectors:0xffffffff
                0xffc0e128        0x4 LONG 0xffc020e0 DEFINED ($tableentry$156$.rvectors)?$tableentry$156$.rvectors:DEFINED ($tableentry$default$.rvectors)?$tableentry$default$.rvectors:0xffffffff
                0xffc0e12c        0x4 LONG 0xffc020e0 DEFINED ($tableentry$157$.rvectors)?$tableentry$157$.rvectors:DEFINED ($tableentry$default$.rvectors)?$tableentry$default$.rvectors:0xffffffff
                0xffc0e130        0x4 LONG 0xffc020e0 DEFINED ($tableentry$158$.rvectors)?$tableentry$158$.rvectors:DEFINED ($tableentry$default$.rvectors)?$tableentry$default$.rvectors:0xffffffff
                0xffc0e134        0x4 LONG 0xffc020e0 DEFINED ($tableentry$159$.rvectors)?$tableentry$159$.rvectors:DEFINED ($tableentry$default$.rvectors)?$tableentry$default$.rvectors:0xffffffff
                0xffc0e138        0x4 LONG 0xffc020e0 DEFINED ($tableentry$160$.rvectors)?$tableentry$160$.rvectors:DEFINED ($tableentry$default$.rvectors)?$tableentry$default$.rvectors:0xffffffff
                0xffc0e13c        0x4 LONG 0xffc020e0 DEFINED ($tableentry$161$.rvectors)?$tableentry$161$.rvectors:DEFINED ($tableentry$default$.rvectors)?$tableentry$default$.rvectors:0xffffffff
                0xffc0e140        0x4 LONG 0xffc020e0 DEFINED ($tableentry$162$.rvectors)?$tableentry$162$.rvectors:DEFINED ($tableentry$default$.rvectors)?$tableentry$default$.rvectors:0xffffffff
                0xffc0e144        0x4 LONG 0xffc020e0 DEFINED ($tableentry$163$.rvectors)?$tableentry$163$.rvectors:DEFINED ($tableentry$default$.rvectors)?$tableentry$default$.rvectors:0xffffffff
                0xffc0e148        0x4 LONG 0xffc020e0 DEFINED ($tableentry$164$.rvectors)?$tableentry$164$.rvectors:DEFINED ($tableentry$default$.rvectors)?$tableentry$default$.rvectors:0xffffffff
                0xffc0e14c        0x4 LONG 0xffc020e0 DEFINED ($tableentry$165$.rvectors)?$tableentry$165$.rvectors:DEFINED ($tableentry$default$.rvectors)?$tableentry$default$.rvectors:0xffffffff
                0xffc0e150        0x4 LONG 0xffc020e0 DEFINED ($tableentry$166$.rvectors)?$tableentry$166$.rvectors:DEFINED ($tableentry$default$.rvectors)?$tableentry$default$.rvectors:0xffffffff
                0xffc0e154        0x4 LONG 0xffc020e0 DEFINED ($tableentry$167$.rvectors)?$tableentry$167$.rvectors:DEFINED ($tableentry$default$.rvectors)?$tableentry$default$.rvectors:0xffffffff
                0xffc0e158        0x4 LONG 0xffc020e0 DEFINED ($tableentry$168$.rvectors)?$tableentry$168$.rvectors:DEFINED ($tableentry$default$.rvectors)?$tableentry$default$.rvectors:0xffffffff
                0xffc0e15c        0x4 LONG 0xffc020e0 DEFINED ($tableentry$169$.rvectors)?$tableentry$169$.rvectors:DEFINED ($tableentry$default$.rvectors)?$tableentry$default$.rvectors:0xffffffff
                0xffc0e160        0x4 LONG 0xffc020e0 DEFINED ($tableentry$170$.rvectors)?$tableentry$170$.rvectors:DEFINED ($tableentry$default$.rvectors)?$tableentry$default$.rvectors:0xffffffff
                0xffc0e164        0x4 LONG 0xffc020e0 DEFINED ($tableentry$171$.rvectors)?$tableentry$171$.rvectors:DEFINED ($tableentry$default$.rvectors)?$tableentry$default$.rvectors:0xffffffff
                0xffc0e168        0x4 LONG 0xffc020e0 DEFINED ($tableentry$172$.rvectors)?$tableentry$172$.rvectors:DEFINED ($tableentry$default$.rvectors)?$tableentry$default$.rvectors:0xffffffff
                0xffc0e16c        0x4 LONG 0xffc020e0 DEFINED ($tableentry$173$.rvectors)?$tableentry$173$.rvectors:DEFINED ($tableentry$default$.rvectors)?$tableentry$default$.rvectors:0xffffffff
                0xffc0e170        0x4 LONG 0xffc020e0 DEFINED ($tableentry$174$.rvectors)?$tableentry$174$.rvectors:DEFINED ($tableentry$default$.rvectors)?$tableentry$default$.rvectors:0xffffffff
                0xffc0e174        0x4 LONG 0xffc020e0 DEFINED ($tableentry$175$.rvectors)?$tableentry$175$.rvectors:DEFINED ($tableentry$default$.rvectors)?$tableentry$default$.rvectors:0xffffffff
                0xffc0e178        0x4 LONG 0xffc020e0 DEFINED ($tableentry$176$.rvectors)?$tableentry$176$.rvectors:DEFINED ($tableentry$default$.rvectors)?$tableentry$default$.rvectors:0xffffffff
                0xffc0e17c        0x4 LONG 0xffc020e0 DEFINED ($tableentry$177$.rvectors)?$tableentry$177$.rvectors:DEFINED ($tableentry$default$.rvectors)?$tableentry$default$.rvectors:0xffffffff
                0xffc0e180        0x4 LONG 0xffc020e0 DEFINED ($tableentry$178$.rvectors)?$tableentry$178$.rvectors:DEFINED ($tableentry$default$.rvectors)?$tableentry$default$.rvectors:0xffffffff
                0xffc0e184        0x4 LONG 0xffc020e0 DEFINED ($tableentry$179$.rvectors)?$tableentry$179$.rvectors:DEFINED ($tableentry$default$.rvectors)?$tableentry$default$.rvectors:0xffffffff
                0xffc0e188        0x4 LONG 0xffc020e0 DEFINED ($tableentry$180$.rvectors)?$tableentry$180$.rvectors:DEFINED ($tableentry$default$.rvectors)?$tableentry$default$.rvectors:0xffffffff
                0xffc0e18c        0x4 LONG 0xffc020e0 DEFINED ($tableentry$181$.rvectors)?$tableentry$181$.rvectors:DEFINED ($tableentry$default$.rvectors)?$tableentry$default$.rvectors:0xffffffff
                0xffc0e190        0x4 LONG 0xffc020e0 DEFINED ($tableentry$182$.rvectors)?$tableentry$182$.rvectors:DEFINED ($tableentry$default$.rvectors)?$tableentry$default$.rvectors:0xffffffff
                0xffc0e194        0x4 LONG 0xffc020e0 DEFINED ($tableentry$183$.rvectors)?$tableentry$183$.rvectors:DEFINED ($tableentry$default$.rvectors)?$tableentry$default$.rvectors:0xffffffff
                0xffc0e198        0x4 LONG 0xffc020e0 DEFINED ($tableentry$184$.rvectors)?$tableentry$184$.rvectors:DEFINED ($tableentry$default$.rvectors)?$tableentry$default$.rvectors:0xffffffff
                0xffc0e19c        0x4 LONG 0xffc020e0 DEFINED ($tableentry$185$.rvectors)?$tableentry$185$.rvectors:DEFINED ($tableentry$default$.rvectors)?$tableentry$default$.rvectors:0xffffffff
                0xffc0e1a0        0x4 LONG 0xffc020e0 DEFINED ($tableentry$186$.rvectors)?$tableentry$186$.rvectors:DEFINED ($tableentry$default$.rvectors)?$tableentry$default$.rvectors:0xffffffff
                0xffc0e1a4        0x4 LONG 0xffc020e0 DEFINED ($tableentry$187$.rvectors)?$tableentry$187$.rvectors:DEFINED ($tableentry$default$.rvectors)?$tableentry$default$.rvectors:0xffffffff
                0xffc0e1a8        0x4 LONG 0xffc020e0 DEFINED ($tableentry$188$.rvectors)?$tableentry$188$.rvectors:DEFINED ($tableentry$default$.rvectors)?$tableentry$default$.rvectors:0xffffffff
                0xffc0e1ac        0x4 LONG 0xffc020e0 DEFINED ($tableentry$189$.rvectors)?$tableentry$189$.rvectors:DEFINED ($tableentry$default$.rvectors)?$tableentry$default$.rvectors:0xffffffff
                0xffc0e1b0        0x4 LONG 0xffc020e0 DEFINED ($tableentry$190$.rvectors)?$tableentry$190$.rvectors:DEFINED ($tableentry$default$.rvectors)?$tableentry$default$.rvectors:0xffffffff
                0xffc0e1b4        0x4 LONG 0xffc020e0 DEFINED ($tableentry$191$.rvectors)?$tableentry$191$.rvectors:DEFINED ($tableentry$default$.rvectors)?$tableentry$default$.rvectors:0xffffffff
                0xffc0e1b8        0x4 LONG 0xffc020e0 DEFINED ($tableentry$192$.rvectors)?$tableentry$192$.rvectors:DEFINED ($tableentry$default$.rvectors)?$tableentry$default$.rvectors:0xffffffff
                0xffc0e1bc        0x4 LONG 0xffc020e0 DEFINED ($tableentry$193$.rvectors)?$tableentry$193$.rvectors:DEFINED ($tableentry$default$.rvectors)?$tableentry$default$.rvectors:0xffffffff
                0xffc0e1c0        0x4 LONG 0xffc020e0 DEFINED ($tableentry$194$.rvectors)?$tableentry$194$.rvectors:DEFINED ($tableentry$default$.rvectors)?$tableentry$default$.rvectors:0xffffffff
                0xffc0e1c4        0x4 LONG 0xffc020e0 DEFINED ($tableentry$195$.rvectors)?$tableentry$195$.rvectors:DEFINED ($tableentry$default$.rvectors)?$tableentry$default$.rvectors:0xffffffff
                0xffc0e1c8        0x4 LONG 0xffc020e0 DEFINED ($tableentry$196$.rvectors)?$tableentry$196$.rvectors:DEFINED ($tableentry$default$.rvectors)?$tableentry$default$.rvectors:0xffffffff
                0xffc0e1cc        0x4 LONG 0xffc020e0 DEFINED ($tableentry$197$.rvectors)?$tableentry$197$.rvectors:DEFINED ($tableentry$default$.rvectors)?$tableentry$default$.rvectors:0xffffffff
                0xffc0e1d0        0x4 LONG 0xffc020e0 DEFINED ($tableentry$198$.rvectors)?$tableentry$198$.rvectors:DEFINED ($tableentry$default$.rvectors)?$tableentry$default$.rvectors:0xffffffff
                0xffc0e1d4        0x4 LONG 0xffc020e0 DEFINED ($tableentry$199$.rvectors)?$tableentry$199$.rvectors:DEFINED ($tableentry$default$.rvectors)?$tableentry$default$.rvectors:0xffffffff
                0xffc0e1d8        0x4 LONG 0xffc020e0 DEFINED ($tableentry$200$.rvectors)?$tableentry$200$.rvectors:DEFINED ($tableentry$default$.rvectors)?$tableentry$default$.rvectors:0xffffffff
                0xffc0e1dc        0x4 LONG 0xffc020e0 DEFINED ($tableentry$201$.rvectors)?$tableentry$201$.rvectors:DEFINED ($tableentry$default$.rvectors)?$tableentry$default$.rvectors:0xffffffff
                0xffc0e1e0        0x4 LONG 0xffc020e0 DEFINED ($tableentry$202$.rvectors)?$tableentry$202$.rvectors:DEFINED ($tableentry$default$.rvectors)?$tableentry$default$.rvectors:0xffffffff
                0xffc0e1e4        0x4 LONG 0xffc020e0 DEFINED ($tableentry$203$.rvectors)?$tableentry$203$.rvectors:DEFINED ($tableentry$default$.rvectors)?$tableentry$default$.rvectors:0xffffffff
                0xffc0e1e8        0x4 LONG 0xffc020e0 DEFINED ($tableentry$204$.rvectors)?$tableentry$204$.rvectors:DEFINED ($tableentry$default$.rvectors)?$tableentry$default$.rvectors:0xffffffff
                0xffc0e1ec        0x4 LONG 0xffc020e0 DEFINED ($tableentry$205$.rvectors)?$tableentry$205$.rvectors:DEFINED ($tableentry$default$.rvectors)?$tableentry$default$.rvectors:0xffffffff
                0xffc0e1f0        0x4 LONG 0xffc020e0 DEFINED ($tableentry$206$.rvectors)?$tableentry$206$.rvectors:DEFINED ($tableentry$default$.rvectors)?$tableentry$default$.rvectors:0xffffffff
                0xffc0e1f4        0x4 LONG 0xffc020e0 DEFINED ($tableentry$207$.rvectors)?$tableentry$207$.rvectors:DEFINED ($tableentry$default$.rvectors)?$tableentry$default$.rvectors:0xffffffff
                0xffc0e1f8        0x4 LONG 0xffc020e0 DEFINED ($tableentry$208$.rvectors)?$tableentry$208$.rvectors:DEFINED ($tableentry$default$.rvectors)?$tableentry$default$.rvectors:0xffffffff
                0xffc0e1fc        0x4 LONG 0xffc020e0 DEFINED ($tableentry$209$.rvectors)?$tableentry$209$.rvectors:DEFINED ($tableentry$default$.rvectors)?$tableentry$default$.rvectors:0xffffffff
                0xffc0e200        0x4 LONG 0xffc020e0 DEFINED ($tableentry$210$.rvectors)?$tableentry$210$.rvectors:DEFINED ($tableentry$default$.rvectors)?$tableentry$default$.rvectors:0xffffffff
                0xffc0e204        0x4 LONG 0xffc020e0 DEFINED ($tableentry$211$.rvectors)?$tableentry$211$.rvectors:DEFINED ($tableentry$default$.rvectors)?$tableentry$default$.rvectors:0xffffffff
                0xffc0e208        0x4 LONG 0xffc020e0 DEFINED ($tableentry$212$.rvectors)?$tableentry$212$.rvectors:DEFINED ($tableentry$default$.rvectors)?$tableentry$default$.rvectors:0xffffffff
                0xffc0e20c        0x4 LONG 0xffc020e0 DEFINED ($tableentry$213$.rvectors)?$tableentry$213$.rvectors:DEFINED ($tableentry$default$.rvectors)?$tableentry$default$.rvectors:0xffffffff
                0xffc0e210        0x4 LONG 0xffc020e0 DEFINED ($tableentry$214$.rvectors)?$tableentry$214$.rvectors:DEFINED ($tableentry$default$.rvectors)?$tableentry$default$.rvectors:0xffffffff
                0xffc0e214        0x4 LONG 0xffc020e0 DEFINED ($tableentry$215$.rvectors)?$tableentry$215$.rvectors:DEFINED ($tableentry$default$.rvectors)?$tableentry$default$.rvectors:0xffffffff
                0xffc0e218        0x4 LONG 0xffc020e0 DEFINED ($tableentry$216$.rvectors)?$tableentry$216$.rvectors:DEFINED ($tableentry$default$.rvectors)?$tableentry$default$.rvectors:0xffffffff
                0xffc0e21c        0x4 LONG 0xffc020e0 DEFINED ($tableentry$217$.rvectors)?$tableentry$217$.rvectors:DEFINED ($tableentry$default$.rvectors)?$tableentry$default$.rvectors:0xffffffff
                0xffc0e220        0x4 LONG 0xffc020e0 DEFINED ($tableentry$218$.rvectors)?$tableentry$218$.rvectors:DEFINED ($tableentry$default$.rvectors)?$tableentry$default$.rvectors:0xffffffff
                0xffc0e224        0x4 LONG 0xffc020e0 DEFINED ($tableentry$219$.rvectors)?$tableentry$219$.rvectors:DEFINED ($tableentry$default$.rvectors)?$tableentry$default$.rvectors:0xffffffff
                0xffc0e228        0x4 LONG 0xffc020e0 DEFINED ($tableentry$220$.rvectors)?$tableentry$220$.rvectors:DEFINED ($tableentry$default$.rvectors)?$tableentry$default$.rvectors:0xffffffff
                0xffc0e22c        0x4 LONG 0xffc020e0 DEFINED ($tableentry$221$.rvectors)?$tableentry$221$.rvectors:DEFINED ($tableentry$default$.rvectors)?$tableentry$default$.rvectors:0xffffffff
                0xffc0e230        0x4 LONG 0xffc020e0 DEFINED ($tableentry$222$.rvectors)?$tableentry$222$.rvectors:DEFINED ($tableentry$default$.rvectors)?$tableentry$default$.rvectors:0xffffffff
                0xffc0e234        0x4 LONG 0xffc020e0 DEFINED ($tableentry$223$.rvectors)?$tableentry$223$.rvectors:DEFINED ($tableentry$default$.rvectors)?$tableentry$default$.rvectors:0xffffffff
                0xffc0e238        0x4 LONG 0xffc020e0 DEFINED ($tableentry$224$.rvectors)?$tableentry$224$.rvectors:DEFINED ($tableentry$default$.rvectors)?$tableentry$default$.rvectors:0xffffffff
                0xffc0e23c        0x4 LONG 0xffc020e0 DEFINED ($tableentry$225$.rvectors)?$tableentry$225$.rvectors:DEFINED ($tableentry$default$.rvectors)?$tableentry$default$.rvectors:0xffffffff
                0xffc0e240        0x4 LONG 0xffc020e0 DEFINED ($tableentry$226$.rvectors)?$tableentry$226$.rvectors:DEFINED ($tableentry$default$.rvectors)?$tableentry$default$.rvectors:0xffffffff
                0xffc0e244        0x4 LONG 0xffc020e0 DEFINED ($tableentry$227$.rvectors)?$tableentry$227$.rvectors:DEFINED ($tableentry$default$.rvectors)?$tableentry$default$.rvectors:0xffffffff
                0xffc0e248        0x4 LONG 0xffc020e0 DEFINED ($tableentry$228$.rvectors)?$tableentry$228$.rvectors:DEFINED ($tableentry$default$.rvectors)?$tableentry$default$.rvectors:0xffffffff
                0xffc0e24c        0x4 LONG 0xffc020e0 DEFINED ($tableentry$229$.rvectors)?$tableentry$229$.rvectors:DEFINED ($tableentry$default$.rvectors)?$tableentry$default$.rvectors:0xffffffff
                0xffc0e250        0x4 LONG 0xffc020e0 DEFINED ($tableentry$230$.rvectors)?$tableentry$230$.rvectors:DEFINED ($tableentry$default$.rvectors)?$tableentry$default$.rvectors:0xffffffff
                0xffc0e254        0x4 LONG 0xffc020e0 DEFINED ($tableentry$231$.rvectors)?$tableentry$231$.rvectors:DEFINED ($tableentry$default$.rvectors)?$tableentry$default$.rvectors:0xffffffff
                0xffc0e258        0x4 LONG 0xffc020e0 DEFINED ($tableentry$232$.rvectors)?$tableentry$232$.rvectors:DEFINED ($tableentry$default$.rvectors)?$tableentry$default$.rvectors:0xffffffff
                0xffc0e25c        0x4 LONG 0xffc020e0 DEFINED ($tableentry$233$.rvectors)?$tableentry$233$.rvectors:DEFINED ($tableentry$default$.rvectors)?$tableentry$default$.rvectors:0xffffffff
                0xffc0e260        0x4 LONG 0xffc020e0 DEFINED ($tableentry$234$.rvectors)?$tableentry$234$.rvectors:DEFINED ($tableentry$default$.rvectors)?$tableentry$default$.rvectors:0xffffffff
                0xffc0e264        0x4 LONG 0xffc020e0 DEFINED ($tableentry$235$.rvectors)?$tableentry$235$.rvectors:DEFINED ($tableentry$default$.rvectors)?$tableentry$default$.rvectors:0xffffffff
                0xffc0e268        0x4 LONG 0xffc020e0 DEFINED ($tableentry$236$.rvectors)?$tableentry$236$.rvectors:DEFINED ($tableentry$default$.rvectors)?$tableentry$default$.rvectors:0xffffffff
                0xffc0e26c        0x4 LONG 0xffc020e0 DEFINED ($tableentry$237$.rvectors)?$tableentry$237$.rvectors:DEFINED ($tableentry$default$.rvectors)?$tableentry$default$.rvectors:0xffffffff
                0xffc0e270        0x4 LONG 0xffc020e0 DEFINED ($tableentry$238$.rvectors)?$tableentry$238$.rvectors:DEFINED ($tableentry$default$.rvectors)?$tableentry$default$.rvectors:0xffffffff
                0xffc0e274        0x4 LONG 0xffc020e0 DEFINED ($tableentry$239$.rvectors)?$tableentry$239$.rvectors:DEFINED ($tableentry$default$.rvectors)?$tableentry$default$.rvectors:0xffffffff
                0xffc0e278        0x4 LONG 0xffc020e0 DEFINED ($tableentry$240$.rvectors)?$tableentry$240$.rvectors:DEFINED ($tableentry$default$.rvectors)?$tableentry$default$.rvectors:0xffffffff
                0xffc0e27c        0x4 LONG 0xffc020e0 DEFINED ($tableentry$241$.rvectors)?$tableentry$241$.rvectors:DEFINED ($tableentry$default$.rvectors)?$tableentry$default$.rvectors:0xffffffff
                0xffc0e280        0x4 LONG 0xffc020e0 DEFINED ($tableentry$242$.rvectors)?$tableentry$242$.rvectors:DEFINED ($tableentry$default$.rvectors)?$tableentry$default$.rvectors:0xffffffff
                0xffc0e284        0x4 LONG 0xffc020e0 DEFINED ($tableentry$243$.rvectors)?$tableentry$243$.rvectors:DEFINED ($tableentry$default$.rvectors)?$tableentry$default$.rvectors:0xffffffff
                0xffc0e288        0x4 LONG 0xffc020e0 DEFINED ($tableentry$244$.rvectors)?$tableentry$244$.rvectors:DEFINED ($tableentry$default$.rvectors)?$tableentry$default$.rvectors:0xffffffff
                0xffc0e28c        0x4 LONG 0xffc020e0 DEFINED ($tableentry$245$.rvectors)?$tableentry$245$.rvectors:DEFINED ($tableentry$default$.rvectors)?$tableentry$default$.rvectors:0xffffffff
                0xffc0e290        0x4 LONG 0xffc020e0 DEFINED ($tableentry$246$.rvectors)?$tableentry$246$.rvectors:DEFINED ($tableentry$default$.rvectors)?$tableentry$default$.rvectors:0xffffffff
                0xffc0e294        0x4 LONG 0xffc020e0 DEFINED ($tableentry$247$.rvectors)?$tableentry$247$.rvectors:DEFINED ($tableentry$default$.rvectors)?$tableentry$default$.rvectors:0xffffffff
                0xffc0e298        0x4 LONG 0xffc020e0 DEFINED ($tableentry$248$.rvectors)?$tableentry$248$.rvectors:DEFINED ($tableentry$default$.rvectors)?$tableentry$default$.rvectors:0xffffffff
                0xffc0e29c        0x4 LONG 0xffc020e0 DEFINED ($tableentry$249$.rvectors)?$tableentry$249$.rvectors:DEFINED ($tableentry$default$.rvectors)?$tableentry$default$.rvectors:0xffffffff
                0xffc0e2a0        0x4 LONG 0xffc020e0 DEFINED ($tableentry$250$.rvectors)?$tableentry$250$.rvectors:DEFINED ($tableentry$default$.rvectors)?$tableentry$default$.rvectors:0xffffffff
                0xffc0e2a4        0x4 LONG 0xffc020e0 DEFINED ($tableentry$251$.rvectors)?$tableentry$251$.rvectors:DEFINED ($tableentry$default$.rvectors)?$tableentry$default$.rvectors:0xffffffff
                0xffc0e2a8        0x4 LONG 0xffc020e0 DEFINED ($tableentry$252$.rvectors)?$tableentry$252$.rvectors:DEFINED ($tableentry$default$.rvectors)?$tableentry$default$.rvectors:0xffffffff
                0xffc0e2ac        0x4 LONG 0xffc020e0 DEFINED ($tableentry$253$.rvectors)?$tableentry$253$.rvectors:DEFINED ($tableentry$default$.rvectors)?$tableentry$default$.rvectors:0xffffffff
                0xffc0e2b0        0x4 LONG 0xffc020e0 DEFINED ($tableentry$254$.rvectors)?$tableentry$254$.rvectors:DEFINED ($tableentry$default$.rvectors)?$tableentry$default$.rvectors:0xffffffff
                0xffc0e2b4        0x4 LONG 0xffc020e0 DEFINED ($tableentry$255$.rvectors)?$tableentry$255$.rvectors:DEFINED ($tableentry$default$.rvectors)?$tableentry$default$.rvectors:0xffffffff
                0xffc0e2b8                _rvectors_end = .

.init           0xffc0e2b8        0x0
 *(.init)
                0xffc0e2b8                __preinit_array_start = .
 *(.preinit_array)
                0xffc0e2b8                __preinit_array_end = .
                0xffc0e2b8                __init_array_start = ((. + 0x3) & 0xfffffffc)
 *(.init_array)
 *(SORT(.init_array.*))
                0xffc0e2b8                __init_array_end = .
                0xffc0e2b8                __fini_array_start = .
 *(.fini_array)
 *(SORT(.fini_array.*))
                0xffc0e2b8                __fini_array_end = .

.fini
 *(.fini)

.got
 *(.got)
 *(.got.plt)

.rodata         0xffc0e2b8      0x9f8
 *(.rodata)
 *(.rodata.*)
 .rodata.renesas_simulator_debugging_key
                0xffc0e2b8        0x4 ./src/smc_integration/RenesasSimDebug/sim_debug_mode_hook.o
                0xffc0e2b8                renesas_simulator_debugging_key
 .rodata.PORTJ  0xffc0e2bc        0x4 ./src/smc_integration/IDE_helper.o
                0xffc0e2bc                PORTJ
 .rodata.PORTG  0xffc0e2c0        0x4 ./src/smc_integration/IDE_helper.o
                0xffc0e2c0                PORTG
 .rodata.PORTF  0xffc0e2c4        0x4 ./src/smc_integration/IDE_helper.o
                0xffc0e2c4                PORTF
 .rodata.PORTE  0xffc0e2c8        0x4 ./src/smc_integration/IDE_helper.o
                0xffc0e2c8                PORTE
 .rodata.PORTD  0xffc0e2cc        0x4 ./src/smc_integration/IDE_helper.o
                0xffc0e2cc                PORTD
 .rodata.PORTC  0xffc0e2d0        0x4 ./src/smc_integration/IDE_helper.o
                0xffc0e2d0                PORTC
 .rodata.PORTB  0xffc0e2d4        0x4 ./src/smc_integration/IDE_helper.o
                0xffc0e2d4                PORTB
 .rodata.PORTA  0xffc0e2d8        0x4 ./src/smc_integration/IDE_helper.o
                0xffc0e2d8                PORTA
 .rodata.PORT9  0xffc0e2dc        0x4 ./src/smc_integration/IDE_helper.o
                0xffc0e2dc                PORT9
 .rodata.PORT8  0xffc0e2e0        0x4 ./src/smc_integration/IDE_helper.o
                0xffc0e2e0                PORT8
 .rodata.PORT7  0xffc0e2e4        0x4 ./src/smc_integration/IDE_helper.o
                0xffc0e2e4                PORT7
 .rodata.PORT6  0xffc0e2e8        0x4 ./src/smc_integration/IDE_helper.o
                0xffc0e2e8                PORT6
 .rodata.PORT5  0xffc0e2ec        0x4 ./src/smc_integration/IDE_helper.o
                0xffc0e2ec                PORT5
 .rodata.PORT4  0xffc0e2f0        0x4 ./src/smc_integration/IDE_helper.o
                0xffc0e2f0                PORT4
 .rodata.PORT3  0xffc0e2f4        0x4 ./src/smc_integration/IDE_helper.o
                0xffc0e2f4                PORT3
 .rodata.PORT2  0xffc0e2f8        0x4 ./src/smc_integration/IDE_helper.o
                0xffc0e2f8                PORT2
 .rodata.PORT1  0xffc0e2fc        0x4 ./src/smc_integration/IDE_helper.o
                0xffc0e2fc                PORT1
 .rodata.PORT0  0xffc0e300        0x4 ./src/smc_integration/IDE_helper.o
                0xffc0e300                PORT0
 .rodata.R_BSP_CpuInterruptLevelWrite
                0xffc0e304       0x40 ./src/smc_gen/r_bsp/mcu/all/r_bsp_cpu.o
 .rodata.vAssertCalled.str1.1
                0xffc0e344       0x13 ./src/frtos_startup/freertos_start.o
                                 0x16 (size before relaxing)
 .rodata.vApplicationMallocFailedHook.str1.1
                0xffc0e357       0x1b ./src/frtos_startup/freertos_start.o
 .rodata.vApplicationStackOverflowHook.str1.1
                0xffc0e372       0x11 ./src/frtos_startup/freertos_start.o
 .rodata.vStartBlockingQueueTasks.str1.1
                0xffc0e383       0x30 ./src/FreeRTOS_Demo/Full_Demo/Standard_Demo_Tasks/BlockQ.o
 .rodata.vStartEventGroupTasks.str1.1
                0xffc0e3b3       0x10 ./src/FreeRTOS_Demo/Full_Demo/Standard_Demo_Tasks/EventGroupsDemo.o
 .rodata.vStartGenericQueueTasks.str1.1
                0xffc0e3c3       0x18 ./src/FreeRTOS_Demo/Full_Demo/Standard_Demo_Tasks/GenQTest.o
 .rodata.vStartInterruptSemaphoreTasks.str1.1
                0xffc0e3db       0x15 ./src/FreeRTOS_Demo/Full_Demo/Standard_Demo_Tasks/IntSemTest.o
 .rodata.vStartQueueOverwriteTask.str1.1
                0xffc0e3f0        0x6 ./src/FreeRTOS_Demo/Full_Demo/Standard_Demo_Tasks/QueueOverwrite.o
 .rodata.prvNotifiedTask.str1.1
                0xffc0e3f6       0x16 ./src/FreeRTOS_Demo/Full_Demo/Standard_Demo_Tasks/TaskNotify.o
 .rodata.vStartTaskNotifyTask.str1.1
                0xffc0e40c        0x9 ./src/FreeRTOS_Demo/Full_Demo/Standard_Demo_Tasks/TaskNotify.o
 .rodata.vStartTaskNotifyArrayTask.str1.1
                0xffc0e415        0xd ./src/FreeRTOS_Demo/Full_Demo/Standard_Demo_Tasks/TaskNotifyArray.o
                                 0x23 (size before relaxing)
 .rodata.prvTimerTestTask.str1.1
                0xffc0e422        0xe ./src/FreeRTOS_Demo/Full_Demo/Standard_Demo_Tasks/TimerDemo.o
 .rodata.vStartTimerDemoTask.str1.1
                0xffc0e430       0x1f ./src/FreeRTOS_Demo/Full_Demo/Standard_Demo_Tasks/TimerDemo.o
 .rodata.vCreateBlockTimeTasks.str1.1
                0xffc0e44f        0xe ./src/FreeRTOS_Demo/Full_Demo/Standard_Demo_Tasks/blocktim.o
 .rodata.vStartCountingSemaphoreTasks.str1.1
                0xffc0e45d        0xa ./src/FreeRTOS_Demo/Full_Demo/Standard_Demo_Tasks/countsem.o
 .rodata.vCreateTasks.str1.1
                0xffc0e467       0x10 ./src/FreeRTOS_Demo/Full_Demo/Standard_Demo_Tasks/death.o
 .rodata.vCreateSuicidalTasks.str1.1
                0xffc0e477        0x8 ./src/FreeRTOS_Demo/Full_Demo/Standard_Demo_Tasks/death.o
 .rodata.vStartDynamicPriorityTasks.str1.1
                0xffc0e47f       0x27 ./src/FreeRTOS_Demo/Full_Demo/Standard_Demo_Tasks/dynamic.o
 .rodata.vStartMathTasks.str1.1
                0xffc0e4a6       0x18 ./src/FreeRTOS_Demo/Full_Demo/Standard_Demo_Tasks/flop.o
 .rodata.vStartRecursiveMutexTasks.str1.1
                0xffc0e4be        0xf ./src/FreeRTOS_Demo/Full_Demo/Standard_Demo_Tasks/recmutex.o
 .rodata.vStartSemaphoreTasks.str1.1
                0xffc0e4cd       0x20 ./src/FreeRTOS_Demo/Full_Demo/Standard_Demo_Tasks/semtest.o
 .rodata.FreeRTOS_CLIProcessCommand.str1.1
                0xffc0e4ed       0xa8 ./src/FreeRTOS_Demo/Full_Demo/FreeRTOS-Plus-CLI/FreeRTOS_CLI.o
 .rodata.str1.1
                0xffc0e595       0x35 ./src/FreeRTOS_Demo/Full_Demo/FreeRTOS-Plus-CLI/FreeRTOS_CLI.o
 *fill*         0xffc0e5ca        0x2 
 .rodata.xHelpCommand
                0xffc0e5cc       0x10 ./src/FreeRTOS_Demo/Full_Demo/FreeRTOS-Plus-CLI/FreeRTOS_CLI.o
 .rodata.prvQueryHeapCommand.str1.1
                0xffc0e5dc       0x3e ./src/FreeRTOS_Demo/Full_Demo/Sample-CLI-commands.o
 .rodata.prvParameterEchoCommand.str1.1
                0xffc0e61a       0x1c ./src/FreeRTOS_Demo/Full_Demo/Sample-CLI-commands.o
 .rodata.prvThreeParameterEchoCommand.str1.1
                0xffc0e636       0x1d ./src/FreeRTOS_Demo/Full_Demo/Sample-CLI-commands.o
 .rodata.prvTaskStatsCommand.str1.1
                0xffc0e653       0x56 ./src/FreeRTOS_Demo/Full_Demo/Sample-CLI-commands.o
 .rodata.str1.1
                0xffc0e6a9      0x18a ./src/FreeRTOS_Demo/Full_Demo/Sample-CLI-commands.o
 *fill*         0xffc0e833        0x1 
 .rodata.xQueryHeap
                0xffc0e834       0x10 ./src/FreeRTOS_Demo/Full_Demo/Sample-CLI-commands.o
 .rodata.xParameterEcho
                0xffc0e844       0x10 ./src/FreeRTOS_Demo/Full_Demo/Sample-CLI-commands.o
 .rodata.xThreeParameterEcho
                0xffc0e854       0x10 ./src/FreeRTOS_Demo/Full_Demo/Sample-CLI-commands.o
 .rodata.xTaskStats
                0xffc0e864       0x10 ./src/FreeRTOS_Demo/Full_Demo/Sample-CLI-commands.o
 .rodata.prvUARTCommandConsoleTask.str1.1
                0xffc0e874       0x89 ./src/FreeRTOS_Demo/Full_Demo/UARTCommandConsole.o
                                 0x8c (size before relaxing)
 .rodata.vUARTCommandConsoleStart.str1.1
                0xffc0e8fd        0x4 ./src/FreeRTOS_Demo/Full_Demo/UARTCommandConsole.o
 .rodata.prvCheckTask.str1.1
                0xffc0e901      0x249 ./src/FreeRTOS_Demo/Full_Demo/main_full.o
                                0x24c (size before relaxing)
 .rodata.main_full.str1.1
                0xffc0eb4a       0x14 ./src/FreeRTOS_Demo/Full_Demo/main_full.o
 .rodata.vTaskList.str1.1
                0xffc0eb5e        0xf ./src/FreeRTOS/Source/tasks.o
 .rodata.CSWTCH.157
                0xffc0eb6d        0x5 ./src/FreeRTOS/Source/tasks.o
 .rodata.xTimerCreateTimerTask.str1.1
                0xffc0eb72        0x8 ./src/FreeRTOS/Source/timers.o
 .rodata._svfprintf_r.str1.1
                0xffc0eb7a       0x11 c:/renesas/gcc/redhat/gnurx-elf/8.3.0.202004/rx-elf/rx-elf/bin/../lib/gcc/rx-elf/8.3.0.202004-GNURX/../../../../rx-elf/lib/64-bit-double\libc_nano.a(lib_a-nano-svfprintf.o)
 .rodata._printf_i.str1.1
                0xffc0eb8b       0x22 c:/renesas/gcc/redhat/gnurx-elf/8.3.0.202004/rx-elf/rx-elf/bin/../lib/gcc/rx-elf/8.3.0.202004-GNURX/../../../../rx-elf/lib/64-bit-double\libc_nano.a(lib_a-nano-vfprintf_i.o)
 *(C_1)
 *(C_2)
 *(C)
 *fill*         0xffc0ebad        0x3 
 C              0xffc0ebb0      0x100 c:/renesas/gcc/redhat/gnurx-elf/8.3.0.202004/rx-elf/rx-elf/bin/../lib/gcc/rx-elf/8.3.0.202004-GNURX/64-bit-double\libgcc.a(_clz.o)
                0xffc0ebb0                __clz_tab
                0xffc0ecb0                _erodata = .

.eh_frame_hdr
 *(.eh_frame_hdr)

.eh_frame
 *(.eh_frame)

.jcr
 *(.jcr)

.tors           0xffc0ecb0        0x0
                0xffc0ecb0                __CTOR_LIST__ = .
                0xffc0ecb0                . = ALIGN (0x2)
                0xffc0ecb0                ___ctors = .
 *(.ctors)
                0xffc0ecb0                ___ctors_end = .
                0xffc0ecb0                __CTOR_END__ = .
                0xffc0ecb0                __DTOR_LIST__ = .
                0xffc0ecb0                ___dtors = .
 *(.dtors)
                0xffc0ecb0                ___dtors_end = .
                0xffc0ecb0                __DTOR_END__ = .
                0xffc0ecb0                . = ALIGN (0x2)
                0xffc0ecb0                _mdata = .

.data           0x00000004      0x120 load address 0xffc0ecb0
                0x00000004                _data = .
 *(.data)
 *(.data.*)
 .data.xErrorStatus
                0x00000004        0x4 ./src/FreeRTOS_Demo/Full_Demo/Standard_Demo_Tasks/IntQueue.o
 .data.xISRTestStatus
                0x00000008        0x4 ./src/FreeRTOS_Demo/Full_Demo/Standard_Demo_Tasks/QueueOverwrite.o
 .data.xErrorStatus
                0x0000000c        0x4 ./src/FreeRTOS_Demo/Full_Demo/Standard_Demo_Tasks/TaskNotify.o
 .data.xErrorStatus.2275
                0x00000010        0x4 ./src/FreeRTOS_Demo/Full_Demo/Standard_Demo_Tasks/TaskNotifyArray.o
 .data.uxTick.2510
                0x00000014        0x4 ./src/FreeRTOS_Demo/Full_Demo/Standard_Demo_Tasks/TimerDemo.o
 .data.xTestStatus
                0x00000018        0x4 ./src/FreeRTOS_Demo/Full_Demo/Standard_Demo_Tasks/TimerDemo.o
 .data.usLastCreationCount.2564
                0x0000001c        0x2 ./src/FreeRTOS_Demo/Full_Demo/Standard_Demo_Tasks/death.o
 *fill*         0x0000001e        0x2 
 .data.pxLastCommandInList.2367
                0x00000020        0x4 ./src/FreeRTOS_Demo/Full_Demo/FreeRTOS-Plus-CLI/FreeRTOS_CLI.o
 .data.xRegisteredCommands
                0x00000024        0x8 ./src/FreeRTOS_Demo/Full_Demo/FreeRTOS-Plus-CLI/FreeRTOS_CLI.o
 .data.uxTopUsedPriority
                0x0000002c        0x4 ./src/FreeRTOS/Source/tasks.o
                0x0000002c                uxTopUsedPriority
 .data._impure_ptr
                0x00000030        0x4 c:/renesas/gcc/redhat/gnurx-elf/8.3.0.202004/rx-elf/rx-elf/bin/../lib/gcc/rx-elf/8.3.0.202004-GNURX/../../../../rx-elf/lib/64-bit-double\libc_nano.a(lib_a-impure.o)
                0x00000030                _impure_ptr
 .data.impure_data
                0x00000034       0xf0 c:/renesas/gcc/redhat/gnurx-elf/8.3.0.202004/rx-elf/rx-elf/bin/../lib/gcc/rx-elf/8.3.0.202004-GNURX/../../../../rx-elf/lib/64-bit-double\libc_nano.a(lib_a-impure.o)
 *(D)
 *(D_1)
 *(D_2)
                0x00000124                _edata = .

.gcc_exc
 *(.gcc_exc)

.bss            0x00000124     0xcf78 load address 0xffc0edd0
                0x00000124                _bss = .
 *(.bss)
 *(.bss.**)
 .bss.s_protect_counters
                0x00000124        0x8 ./src/smc_gen/r_bsp/mcu/all/r_bsp_cpu.o
 .bss.g_bsp_vectors
                0x0000012c      0x1b0 ./src/smc_gen/r_bsp/mcu/all/r_bsp_interrupts.o
 .bss.usTicksCmdConsoleInUse
                0x000002dc        0x2 ./src/frtos_startup/freertos_start.o
 .bss.sLastBlockingProducerCount.2694
                0x000002de        0x6 ./src/FreeRTOS_Demo/Full_Demo/Standard_Demo_Tasks/BlockQ.o
 .bss.sLastBlockingConsumerCount.2693
                0x000002e4        0x6 ./src/FreeRTOS_Demo/Full_Demo/Standard_Demo_Tasks/BlockQ.o
 .bss.sBlockingProducerCount
                0x000002ea        0x6 ./src/FreeRTOS_Demo/Full_Demo/Standard_Demo_Tasks/BlockQ.o
 .bss.sBlockingConsumerCount
                0x000002f0        0x6 ./src/FreeRTOS_Demo/Full_Demo/Standard_Demo_Tasks/BlockQ.o
 *fill*         0x000002f6        0x2 
 .bss.ulPreviousISRCycles.2139
                0x000002f8        0x4 ./src/FreeRTOS_Demo/Full_Demo/Standard_Demo_Tasks/EventGroupsDemo.o
 .bss.ulPreviousWaitBitCycles.2137
                0x000002fc        0x4 ./src/FreeRTOS_Demo/Full_Demo/Standard_Demo_Tasks/EventGroupsDemo.o
 .bss.ulPreviousSetBitCycles.2138
                0x00000300        0x4 ./src/FreeRTOS_Demo/Full_Demo/Standard_Demo_Tasks/EventGroupsDemo.o
 .bss.xISRTestError.2127
                0x00000304        0x4 ./src/FreeRTOS_Demo/Full_Demo/Standard_Demo_Tasks/EventGroupsDemo.o
 .bss.xCallCount.2126
                0x00000308        0x4 ./src/FreeRTOS_Demo/Full_Demo/Standard_Demo_Tasks/EventGroupsDemo.o
 .bss.xSyncTask2
                0x0000030c        0x4 ./src/FreeRTOS_Demo/Full_Demo/Standard_Demo_Tasks/EventGroupsDemo.o
 .bss.xSyncTask1
                0x00000310        0x4 ./src/FreeRTOS_Demo/Full_Demo/Standard_Demo_Tasks/EventGroupsDemo.o
 .bss.xISREventGroup
                0x00000314        0x4 ./src/FreeRTOS_Demo/Full_Demo/Standard_Demo_Tasks/EventGroupsDemo.o
 .bss.xEventGroup
                0x00000318        0x4 ./src/FreeRTOS_Demo/Full_Demo/Standard_Demo_Tasks/EventGroupsDemo.o
 .bss.ulISRCycles
                0x0000031c        0x4 ./src/FreeRTOS_Demo/Full_Demo/Standard_Demo_Tasks/EventGroupsDemo.o
 .bss.ulTestSlaveCycles
                0x00000320        0x4 ./src/FreeRTOS_Demo/Full_Demo/Standard_Demo_Tasks/EventGroupsDemo.o
 .bss.ulTestMasterCycles
                0x00000324        0x4 ./src/FreeRTOS_Demo/Full_Demo/Standard_Demo_Tasks/EventGroupsDemo.o
 .bss.ulLastLoopCounter2.2727
                0x00000328        0x4 ./src/FreeRTOS_Demo/Full_Demo/Standard_Demo_Tasks/GenQTest.o
 .bss.ulLastLoopCounter.2726
                0x0000032c        0x4 ./src/FreeRTOS_Demo/Full_Demo/Standard_Demo_Tasks/GenQTest.o
 .bss.xBlockWasAborted
                0x00000330        0x4 ./src/FreeRTOS_Demo/Full_Demo/Standard_Demo_Tasks/GenQTest.o
 .bss.xMediumPriorityMutexTask
                0x00000334        0x4 ./src/FreeRTOS_Demo/Full_Demo/Standard_Demo_Tasks/GenQTest.o
 .bss.xHighPriorityMutexTask
                0x00000338        0x4 ./src/FreeRTOS_Demo/Full_Demo/Standard_Demo_Tasks/GenQTest.o
 .bss.ulGuardedVariable
                0x0000033c        0x4 ./src/FreeRTOS_Demo/Full_Demo/Standard_Demo_Tasks/GenQTest.o
 .bss.ulLoopCounter2
                0x00000340        0x4 ./src/FreeRTOS_Demo/Full_Demo/Standard_Demo_Tasks/GenQTest.o
 .bss.ulLoopCounter
                0x00000344        0x4 ./src/FreeRTOS_Demo/Full_Demo/Standard_Demo_Tasks/GenQTest.o
 .bss.xErrorDetected
                0x00000348        0x4 ./src/FreeRTOS_Demo/Full_Demo/Standard_Demo_Tasks/GenQTest.o
 .bss.uxNextOperation.2565
                0x0000034c        0x4 ./src/FreeRTOS_Demo/Full_Demo/Standard_Demo_Tasks/IntQueue.o
 .bss.uxNextOperation.2556
                0x00000350        0x4 ./src/FreeRTOS_Demo/Full_Demo/Standard_Demo_Tasks/IntQueue.o
 .bss.ucNormallyFullReceivedValues
                0x00000354       0xc8 ./src/FreeRTOS_Demo/Full_Demo/Standard_Demo_Tasks/IntQueue.o
 .bss.ucNormallyEmptyReceivedValues
                0x0000041c       0xc8 ./src/FreeRTOS_Demo/Full_Demo/Standard_Demo_Tasks/IntQueue.o
 .bss.uxValueForNormallyFullQueue
                0x000004e4        0x4 ./src/FreeRTOS_Demo/Full_Demo/Standard_Demo_Tasks/IntQueue.o
 .bss.uxValueForNormallyEmptyQueue
                0x000004e8        0x4 ./src/FreeRTOS_Demo/Full_Demo/Standard_Demo_Tasks/IntQueue.o
 .bss.xErrorLine
                0x000004ec        0x4 ./src/FreeRTOS_Demo/Full_Demo/Standard_Demo_Tasks/IntQueue.o
 .bss.xNormallyFullQueue
                0x000004f0        0x4 ./src/FreeRTOS_Demo/Full_Demo/Standard_Demo_Tasks/IntQueue.o
 .bss.xNormallyEmptyQueue
                0x000004f4        0x4 ./src/FreeRTOS_Demo/Full_Demo/Standard_Demo_Tasks/IntQueue.o
 .bss.ulLastCountingSemaphoreLoops.2710
                0x000004f8        0x4 ./src/FreeRTOS_Demo/Full_Demo/Standard_Demo_Tasks/IntSemTest.o
 .bss.ulLastMasterLoopCounter.2709
                0x000004fc        0x4 ./src/FreeRTOS_Demo/Full_Demo/Standard_Demo_Tasks/IntSemTest.o
 .bss.xLastGiveTime.2703
                0x00000500        0x4 ./src/FreeRTOS_Demo/Full_Demo/Standard_Demo_Tasks/IntSemTest.o
 .bss.xOkToGiveCountingSemaphore
                0x00000504        0x4 ./src/FreeRTOS_Demo/Full_Demo/Standard_Demo_Tasks/IntSemTest.o
 .bss.xOkToGiveMutex
                0x00000508        0x4 ./src/FreeRTOS_Demo/Full_Demo/Standard_Demo_Tasks/IntSemTest.o
 .bss.xMasterSlaveMutex
                0x0000050c        0x4 ./src/FreeRTOS_Demo/Full_Demo/Standard_Demo_Tasks/IntSemTest.o
 .bss.xISRCountingSemaphore
                0x00000510        0x4 ./src/FreeRTOS_Demo/Full_Demo/Standard_Demo_Tasks/IntSemTest.o
 .bss.xISRMutex
                0x00000514        0x4 ./src/FreeRTOS_Demo/Full_Demo/Standard_Demo_Tasks/IntSemTest.o
 .bss.xSlaveHandle
                0x00000518        0x4 ./src/FreeRTOS_Demo/Full_Demo/Standard_Demo_Tasks/IntSemTest.o
 .bss.ulCountingSemaphoreLoops
                0x0000051c        0x4 ./src/FreeRTOS_Demo/Full_Demo/Standard_Demo_Tasks/IntSemTest.o
 .bss.ulMasterLoops
                0x00000520        0x4 ./src/FreeRTOS_Demo/Full_Demo/Standard_Demo_Tasks/IntSemTest.o
 .bss.xErrorDetected
                0x00000524        0x4 ./src/FreeRTOS_Demo/Full_Demo/Standard_Demo_Tasks/IntSemTest.o
 .bss.ulCallCount.2096
                0x00000528        0x4 ./src/FreeRTOS_Demo/Full_Demo/Standard_Demo_Tasks/QueueOverwrite.o
 .bss.xISRQueue
                0x0000052c        0x4 ./src/FreeRTOS_Demo/Full_Demo/Standard_Demo_Tasks/QueueOverwrite.o
 .bss.ulLoopCounter
                0x00000530        0x4 ./src/FreeRTOS_Demo/Full_Demo/Standard_Demo_Tasks/QueueOverwrite.o
 .bss.ulLastNotifyCycleCount.2086
                0x00000534        0x4 ./src/FreeRTOS_Demo/Full_Demo/Standard_Demo_Tasks/TaskNotify.o
 .bss.xAPIToUse.2074
                0x00000538        0x4 ./src/FreeRTOS_Demo/Full_Demo/Standard_Demo_Tasks/TaskNotify.o
 .bss.xCallCount.2073
                0x0000053c        0x4 ./src/FreeRTOS_Demo/Full_Demo/Standard_Demo_Tasks/TaskNotify.o
 .bss.ulCallCount.2057
                0x00000540        0x4 ./src/FreeRTOS_Demo/Full_Demo/Standard_Demo_Tasks/TaskNotify.o
 .bss.uxNextRand
                0x00000544        0x4 ./src/FreeRTOS_Demo/Full_Demo/Standard_Demo_Tasks/TaskNotify.o
 .bss.xTimer    0x00000548        0x4 ./src/FreeRTOS_Demo/Full_Demo/Standard_Demo_Tasks/TaskNotify.o
 .bss.ulTimerNotificationsSent
                0x0000054c        0x4 ./src/FreeRTOS_Demo/Full_Demo/Standard_Demo_Tasks/TaskNotify.o
 .bss.ulTimerNotificationsReceived
                0x00000550        0x4 ./src/FreeRTOS_Demo/Full_Demo/Standard_Demo_Tasks/TaskNotify.o
 .bss.xTaskToNotify
                0x00000554        0x4 ./src/FreeRTOS_Demo/Full_Demo/Standard_Demo_Tasks/TaskNotify.o
 .bss.ulNotifyCycleCount
                0x00000558        0x4 ./src/FreeRTOS_Demo/Full_Demo/Standard_Demo_Tasks/TaskNotify.o
 .bss.ulLastCourseCycleCount.2272
                0x0000055c        0x4 ./src/FreeRTOS_Demo/Full_Demo/Standard_Demo_Tasks/TaskNotifyArray.o
 .bss.ulCallCount.2273
                0x00000560        0x4 ./src/FreeRTOS_Demo/Full_Demo/Standard_Demo_Tasks/TaskNotifyArray.o
 .bss.ulLastFineCycleCount.2271
                0x00000564        0x4 ./src/FreeRTOS_Demo/Full_Demo/Standard_Demo_Tasks/TaskNotifyArray.o
 .bss.uxIndexToNotify.2262
                0x00000568        0x4 ./src/FreeRTOS_Demo/Full_Demo/Standard_Demo_Tasks/TaskNotifyArray.o
 .bss.xAPIToUse.2259
                0x0000056c        0x4 ./src/FreeRTOS_Demo/Full_Demo/Standard_Demo_Tasks/TaskNotifyArray.o
 .bss.uxIndexToNotify.2171
                0x00000570        0x4 ./src/FreeRTOS_Demo/Full_Demo/Standard_Demo_Tasks/TaskNotifyArray.o
 .bss.ulCallCount.2170
                0x00000574        0x4 ./src/FreeRTOS_Demo/Full_Demo/Standard_Demo_Tasks/TaskNotifyArray.o
 .bss.uxIndexToNotify.2175
                0x00000578        0x4 ./src/FreeRTOS_Demo/Full_Demo/Standard_Demo_Tasks/TaskNotifyArray.o
 .bss.xSendNotificationFromISR
                0x0000057c        0x4 ./src/FreeRTOS_Demo/Full_Demo/Standard_Demo_Tasks/TaskNotifyArray.o
 .bss.uxNextRand
                0x00000580        0x4 ./src/FreeRTOS_Demo/Full_Demo/Standard_Demo_Tasks/TaskNotifyArray.o
 .bss.xNotifyWhileSuspendedTimer
                0x00000584        0x4 ./src/FreeRTOS_Demo/Full_Demo/Standard_Demo_Tasks/TaskNotifyArray.o
 .bss.xIncrementingIndexTimer
                0x00000588        0x4 ./src/FreeRTOS_Demo/Full_Demo/Standard_Demo_Tasks/TaskNotifyArray.o
 .bss.xTaskToNotify
                0x0000058c        0x4 ./src/FreeRTOS_Demo/Full_Demo/Standard_Demo_Tasks/TaskNotifyArray.o
 .bss.ulCourseCycleCounter
                0x00000590        0x4 ./src/FreeRTOS_Demo/Full_Demo/Standard_Demo_Tasks/TaskNotifyArray.o
 .bss.ulFineCycleCount
                0x00000594        0x4 ./src/FreeRTOS_Demo/Full_Demo/Standard_Demo_Tasks/TaskNotifyArray.o
 .bss.ulLastLoopCounter.2445
                0x00000598        0x4 ./src/FreeRTOS_Demo/Full_Demo/Standard_Demo_Tasks/TimerDemo.o
 .bss.xIterationsWithoutCounterIncrement.2448
                0x0000059c        0x4 ./src/FreeRTOS_Demo/Full_Demo/Standard_Demo_Tasks/TimerDemo.o
 .bss.xLastCycleFrequency.2449
                0x000005a0        0x4 ./src/FreeRTOS_Demo/Full_Demo/Standard_Demo_Tasks/TimerDemo.o
 .bss.uxCallCount.2519
                0x000005a4        0x4 ./src/FreeRTOS_Demo/Full_Demo/Standard_Demo_Tasks/TimerDemo.o
 .bss.xBasePeriod
                0x000005a8        0x4 ./src/FreeRTOS_Demo/Full_Demo/Standard_Demo_Tasks/TimerDemo.o
 .bss.ucISROneShotTimerCounter
                0x000005ac        0x1 ./src/FreeRTOS_Demo/Full_Demo/Standard_Demo_Tasks/TimerDemo.o
 *fill*         0x000005ad        0x3 
 .bss.xISROneShotTimer
                0x000005b0        0x4 ./src/FreeRTOS_Demo/Full_Demo/Standard_Demo_Tasks/TimerDemo.o
 .bss.ucISRAutoReloadTimerCounter
                0x000005b4        0x1 ./src/FreeRTOS_Demo/Full_Demo/Standard_Demo_Tasks/TimerDemo.o
 *fill*         0x000005b5        0x3 
 .bss.xISRAutoReloadTimer
                0x000005b8        0x4 ./src/FreeRTOS_Demo/Full_Demo/Standard_Demo_Tasks/TimerDemo.o
 .bss.ucOneShotTimerCounter
                0x000005bc        0x1 ./src/FreeRTOS_Demo/Full_Demo/Standard_Demo_Tasks/TimerDemo.o
 *fill*         0x000005bd        0x3 
 .bss.xOneShotTimer
                0x000005c0        0x4 ./src/FreeRTOS_Demo/Full_Demo/Standard_Demo_Tasks/TimerDemo.o
 .bss.ucIsStopNeededInTimerZeroCallback
                0x000005c4        0x1 ./src/FreeRTOS_Demo/Full_Demo/Standard_Demo_Tasks/TimerDemo.o
 .bss.ucAutoReloadTimerCounters
                0x000005c5        0x6 ./src/FreeRTOS_Demo/Full_Demo/Standard_Demo_Tasks/TimerDemo.o
 *fill*         0x000005cb        0x1 
 .bss.xAutoReloadTimers
                0x000005cc       0x18 ./src/FreeRTOS_Demo/Full_Demo/Standard_Demo_Tasks/TimerDemo.o
 .bss.ulLoopCounter
                0x000005e4        0x4 ./src/FreeRTOS_Demo/Full_Demo/Standard_Demo_Tasks/TimerDemo.o
 .bss.ucIsBacklogDemoEnabled
                0x000005e8        0x1 ./src/FreeRTOS_Demo/Full_Demo/Standard_Demo_Tasks/TimerDemo.o
 *fill*         0x000005e9        0x3 
 .bss.xLastSecondaryCycleCount.2147
                0x000005ec        0x4 ./src/FreeRTOS_Demo/Full_Demo/Standard_Demo_Tasks/blocktim.o
 .bss.xLastPrimaryCycleCount.2146
                0x000005f0        0x4 ./src/FreeRTOS_Demo/Full_Demo/Standard_Demo_Tasks/blocktim.o
 .bss.xRunIndicator
                0x000005f4        0x4 ./src/FreeRTOS_Demo/Full_Demo/Standard_Demo_Tasks/blocktim.o
 .bss.xErrorOccurred
                0x000005f8        0x4 ./src/FreeRTOS_Demo/Full_Demo/Standard_Demo_Tasks/blocktim.o
 .bss.xSecondaryCycles
                0x000005fc        0x4 ./src/FreeRTOS_Demo/Full_Demo/Standard_Demo_Tasks/blocktim.o
 .bss.xPrimaryCycles
                0x00000600        0x4 ./src/FreeRTOS_Demo/Full_Demo/Standard_Demo_Tasks/blocktim.o
 .bss.xSecondary
                0x00000604        0x4 ./src/FreeRTOS_Demo/Full_Demo/Standard_Demo_Tasks/blocktim.o
 .bss.xTestQueue
                0x00000608        0x4 ./src/FreeRTOS_Demo/Full_Demo/Standard_Demo_Tasks/blocktim.o
 .bss.uxLastCount1.2110
                0x0000060c        0x4 ./src/FreeRTOS_Demo/Full_Demo/Standard_Demo_Tasks/countsem.o
 .bss.uxLastCount0.2109
                0x00000610        0x4 ./src/FreeRTOS_Demo/Full_Demo/Standard_Demo_Tasks/countsem.o
 .bss.xParameters
                0x00000614       0x18 ./src/FreeRTOS_Demo/Full_Demo/Standard_Demo_Tasks/countsem.o
 .bss.xErrorDetected
                0x0000062c        0x4 ./src/FreeRTOS_Demo/Full_Demo/Standard_Demo_Tasks/countsem.o
 .bss.uxTasksRunningAtStart
                0x00000630        0x4 ./src/FreeRTOS_Demo/Full_Demo/Standard_Demo_Tasks/death.o
 .bss.usCreationCount
                0x00000634        0x2 ./src/FreeRTOS_Demo/Full_Demo/Standard_Demo_Tasks/death.o
 *fill*         0x00000636        0x2 
 .bss.ulLastExpectedValue.2711
                0x00000638        0x4 ./src/FreeRTOS_Demo/Full_Demo/Standard_Demo_Tasks/dynamic.o
 .bss.usLastTaskCheck.2710
                0x0000063c        0x2 ./src/FreeRTOS_Demo/Full_Demo/Standard_Demo_Tasks/dynamic.o
 *fill*         0x0000063e        0x2 
 .bss.ulValueToSend.2697
                0x00000640        0x4 ./src/FreeRTOS_Demo/Full_Demo/Standard_Demo_Tasks/dynamic.o
 .bss.ulExpectedValue
                0x00000644        0x4 ./src/FreeRTOS_Demo/Full_Demo/Standard_Demo_Tasks/dynamic.o
 .bss.xSuspendedQueueReceiveError
                0x00000648        0x4 ./src/FreeRTOS_Demo/Full_Demo/Standard_Demo_Tasks/dynamic.o
 .bss.xSuspendedQueueSendError
                0x0000064c        0x4 ./src/FreeRTOS_Demo/Full_Demo/Standard_Demo_Tasks/dynamic.o
 .bss.usCheckVariable
                0x00000650        0x2 ./src/FreeRTOS_Demo/Full_Demo/Standard_Demo_Tasks/dynamic.o
 *fill*         0x00000652        0x2 
 .bss.ulCounter
                0x00000654        0x4 ./src/FreeRTOS_Demo/Full_Demo/Standard_Demo_Tasks/dynamic.o
 .bss.xLimitedIncrementHandle
                0x00000658        0x4 ./src/FreeRTOS_Demo/Full_Demo/Standard_Demo_Tasks/dynamic.o
 .bss.xContinuousIncrementHandle
                0x0000065c        0x4 ./src/FreeRTOS_Demo/Full_Demo/Standard_Demo_Tasks/dynamic.o
 .bss.usTaskCheck
                0x00000660        0x8 ./src/FreeRTOS_Demo/Full_Demo/Standard_Demo_Tasks/flop.o
 .bss.uxLastPollingCycles.2110
                0x00000668        0x4 ./src/FreeRTOS_Demo/Full_Demo/Standard_Demo_Tasks/recmutex.o
 .bss.uxLastBlockingCycles.2109
                0x0000066c        0x4 ./src/FreeRTOS_Demo/Full_Demo/Standard_Demo_Tasks/recmutex.o
 .bss.uxLastControllingCycles.2108
                0x00000670        0x4 ./src/FreeRTOS_Demo/Full_Demo/Standard_Demo_Tasks/recmutex.o
 .bss.xBlockingTaskHandle
                0x00000674        0x4 ./src/FreeRTOS_Demo/Full_Demo/Standard_Demo_Tasks/recmutex.o
 .bss.xControllingTaskHandle
                0x00000678        0x4 ./src/FreeRTOS_Demo/Full_Demo/Standard_Demo_Tasks/recmutex.o
 .bss.uxPollingCycles
                0x0000067c        0x4 ./src/FreeRTOS_Demo/Full_Demo/Standard_Demo_Tasks/recmutex.o
 .bss.uxBlockingCycles
                0x00000680        0x4 ./src/FreeRTOS_Demo/Full_Demo/Standard_Demo_Tasks/recmutex.o
 .bss.uxControllingCycles
                0x00000684        0x4 ./src/FreeRTOS_Demo/Full_Demo/Standard_Demo_Tasks/recmutex.o
 .bss.xBlockingIsSuspended
                0x00000688        0x4 ./src/FreeRTOS_Demo/Full_Demo/Standard_Demo_Tasks/recmutex.o
 .bss.xControllingIsSuspended
                0x0000068c        0x4 ./src/FreeRTOS_Demo/Full_Demo/Standard_Demo_Tasks/recmutex.o
 .bss.xErrorOccurred
                0x00000690        0x4 ./src/FreeRTOS_Demo/Full_Demo/Standard_Demo_Tasks/recmutex.o
 .bss.xMutex    0x00000694        0x4 ./src/FreeRTOS_Demo/Full_Demo/Standard_Demo_Tasks/recmutex.o
 .bss.sLastCheckVariables.2683
                0x00000698        0x8 ./src/FreeRTOS_Demo/Full_Demo/Standard_Demo_Tasks/semtest.o
 .bss.sNextCheckVariable
                0x000006a0        0x2 ./src/FreeRTOS_Demo/Full_Demo/Standard_Demo_Tasks/semtest.o
 .bss.sCheckVariables
                0x000006a2        0x8 ./src/FreeRTOS_Demo/Full_Demo/Standard_Demo_Tasks/semtest.o
 *fill*         0x000006aa        0x2 
 .bss.pxCommand.2375
                0x000006ac        0x4 ./src/FreeRTOS_Demo/Full_Demo/FreeRTOS-Plus-CLI/FreeRTOS_CLI.o
 .bss.pxCommand.2409
                0x000006b0        0x4 ./src/FreeRTOS_Demo/Full_Demo/FreeRTOS-Plus-CLI/FreeRTOS_CLI.o
 .bss.cOutputBuffer
                0x000006b4      0xdac ./src/FreeRTOS_Demo/Full_Demo/FreeRTOS-Plus-CLI/FreeRTOS_CLI.o
 .bss.uxParameterNumber.3621
                0x00001460        0x4 ./src/FreeRTOS_Demo/Full_Demo/Sample-CLI-commands.o
 .bss.uxParameterNumber.3630
                0x00001464        0x4 ./src/FreeRTOS_Demo/Full_Demo/Sample-CLI-commands.o
 .bss.cLastInputString.3379
                0x00001468       0x32 ./src/FreeRTOS_Demo/Full_Demo/UARTCommandConsole.o
 .bss.cInputString.3378
                0x0000149a       0x32 ./src/FreeRTOS_Demo/Full_Demo/UARTCommandConsole.o
 .bss.xPort     0x000014cc        0x4 ./src/FreeRTOS_Demo/Full_Demo/UARTCommandConsole.o
 .bss.xTxMutex  0x000014d0        0x4 ./src/FreeRTOS_Demo/Full_Demo/UARTCommandConsole.o
 .bss.ulRegTest2LoopCounter
                0x000014d4        0x4 ./src/FreeRTOS_Demo/Full_Demo/main_full.o
                0x000014d4                ulRegTest2LoopCounter
 .bss.ulRegTest1LoopCounter
                0x000014d8        0x4 ./src/FreeRTOS_Demo/Full_Demo/main_full.o
                0x000014d8                ulRegTest1LoopCounter
 .bss.usStringLengthToSend
                0x000014dc        0x2 ./src/FreeRTOS_Demo/Full_Demo/serial.o
 *fill*         0x000014de        0x2 
 .bss.pcStringToSend
                0x000014e0        0x4 ./src/FreeRTOS_Demo/Full_Demo/serial.o
 .bss.xSendingTask
                0x000014e4        0x4 ./src/FreeRTOS_Demo/Full_Demo/serial.o
 .bss.xRxQueue  0x000014e8        0x4 ./src/FreeRTOS_Demo/Full_Demo/serial.o
 .bss.xBlockAllocatedBit
                0x000014ec        0x4 ./src/FreeRTOS/Source/portable/MemMang/heap_4.o
 .bss.xNumberOfSuccessfulFrees
                0x000014f0        0x4 ./src/FreeRTOS/Source/portable/MemMang/heap_4.o
 .bss.xNumberOfSuccessfulAllocations
                0x000014f4        0x4 ./src/FreeRTOS/Source/portable/MemMang/heap_4.o
 .bss.xMinimumEverFreeBytesRemaining
                0x000014f8        0x4 ./src/FreeRTOS/Source/portable/MemMang/heap_4.o
 .bss.xFreeBytesRemaining
                0x000014fc        0x4 ./src/FreeRTOS/Source/portable/MemMang/heap_4.o
 .bss.pxEnd     0x00001500        0x4 ./src/FreeRTOS/Source/portable/MemMang/heap_4.o
 .bss.xStart    0x00001504        0x8 ./src/FreeRTOS/Source/portable/MemMang/heap_4.o
 .bss.ucHeap    0x0000150c     0xb800 ./src/FreeRTOS/Source/portable/MemMang/heap_4.o
 .bss.ulPortTaskHasDPFPUContext
                0x0000cd0c        0x4 ./src/FreeRTOS/Source/portable/GCC/RX_RenesasSim/port.o
                0x0000cd0c                ulPortTaskHasDPFPUContext
 .bss.uxSchedulerSuspended
                0x0000cd10        0x4 ./src/FreeRTOS/Source/tasks.o
 .bss.xIdleTaskHandle
                0x0000cd14        0x4 ./src/FreeRTOS/Source/tasks.o
 .bss.xNextTaskUnblockTime
                0x0000cd18        0x4 ./src/FreeRTOS/Source/tasks.o
 .bss.uxTaskNumber
                0x0000cd1c        0x4 ./src/FreeRTOS/Source/tasks.o
 .bss.xNumOfOverflows
                0x0000cd20        0x4 ./src/FreeRTOS/Source/tasks.o
 .bss.xYieldPending
                0x0000cd24        0x4 ./src/FreeRTOS/Source/tasks.o
 .bss.xPendedTicks
                0x0000cd28        0x4 ./src/FreeRTOS/Source/tasks.o
 .bss.xSchedulerRunning
                0x0000cd2c        0x4 ./src/FreeRTOS/Source/tasks.o
 .bss.uxTopReadyPriority
                0x0000cd30        0x4 ./src/FreeRTOS/Source/tasks.o
 .bss.xTickCount
                0x0000cd34        0x4 ./src/FreeRTOS/Source/tasks.o
 .bss.uxCurrentNumberOfTasks
                0x0000cd38        0x4 ./src/FreeRTOS/Source/tasks.o
 .bss.xSuspendedTaskList
                0x0000cd3c       0x14 ./src/FreeRTOS/Source/tasks.o
 .bss.uxDeletedTasksWaitingCleanUp
                0x0000cd50        0x4 ./src/FreeRTOS/Source/tasks.o
 .bss.xTasksWaitingTermination
                0x0000cd54       0x14 ./src/FreeRTOS/Source/tasks.o
 .bss.xPendingReadyList
                0x0000cd68       0x14 ./src/FreeRTOS/Source/tasks.o
 .bss.pxOverflowDelayedTaskList
                0x0000cd7c        0x4 ./src/FreeRTOS/Source/tasks.o
 .bss.pxDelayedTaskList
                0x0000cd80        0x4 ./src/FreeRTOS/Source/tasks.o
 .bss.xDelayedTaskList2
                0x0000cd84       0x14 ./src/FreeRTOS/Source/tasks.o
 .bss.xDelayedTaskList1
                0x0000cd98       0x14 ./src/FreeRTOS/Source/tasks.o
 .bss.pxReadyTasksLists
                0x0000cdac       0x8c ./src/FreeRTOS/Source/tasks.o
 .bss.pxCurrentTCB
                0x0000ce38        0x4 ./src/FreeRTOS/Source/tasks.o
                0x0000ce38                pxCurrentTCB
 .bss.xLastTime.2845
                0x0000ce3c        0x4 ./src/FreeRTOS/Source/timers.o
 .bss.xTimerTaskHandle
                0x0000ce40        0x4 ./src/FreeRTOS/Source/timers.o
 .bss.xTimerQueue
                0x0000ce44        0x4 ./src/FreeRTOS/Source/timers.o
 .bss.pxOverflowTimerList
                0x0000ce48        0x4 ./src/FreeRTOS/Source/timers.o
 .bss.pxCurrentTimerList
                0x0000ce4c        0x4 ./src/FreeRTOS/Source/timers.o
 .bss.xActiveTimerList2
                0x0000ce50       0x14 ./src/FreeRTOS/Source/timers.o
 .bss.xActiveTimerList1
                0x0000ce64       0x14 ./src/FreeRTOS/Source/timers.o
 .bss.__malloc_free_list
                0x0000ce78        0x4 c:/renesas/gcc/redhat/gnurx-elf/8.3.0.202004/rx-elf/rx-elf/bin/../lib/gcc/rx-elf/8.3.0.202004-GNURX/../../../../rx-elf/lib/64-bit-double\libc_nano.a(lib_a-nano-mallocr.o)
                0x0000ce78                __malloc_free_list
 .bss.__malloc_sbrk_start
                0x0000ce7c        0x4 c:/renesas/gcc/redhat/gnurx-elf/8.3.0.202004/rx-elf/rx-elf/bin/../lib/gcc/rx-elf/8.3.0.202004-GNURX/../../../../rx-elf/lib/64-bit-double\libc_nano.a(lib_a-nano-mallocr.o)
                0x0000ce7c                __malloc_sbrk_start
 .bss.errno     0x0000ce80        0x4 c:/renesas/gcc/redhat/gnurx-elf/8.3.0.202004/rx-elf/rx-elf/bin/../lib/gcc/rx-elf/8.3.0.202004-GNURX/../../../../rx-elf/lib/64-bit-double\libc_nano.a(lib_a-reent.o)
                0x0000ce80                errno
 *(COMMON)
 COMMON         0x0000ce84      0x210 ./src/smc_gen/r_bsp/mcu/all/mcu_locks.o
                0x0000ce84                g_bsp_Locks
 COMMON         0x0000d094        0x4 ./src/FreeRTOS_Demo/Full_Demo/Standard_Demo_Tasks/death.o
                0x0000d094                xCreatedTask
 COMMON         0x0000d098        0x4 ./src/FreeRTOS_Demo/Full_Demo/Standard_Demo_Tasks/dynamic.o
                0x0000d098                xSuspendedTestQueue
 *(B)
 *(B_1)
 *(B_2)
                0x0000d09c                _ebss = .
                0x0000d09c                _end = .

.ofs1           0xfe7f5d00        0xc
 *(.ofs1)
 .ofs1          0xfe7f5d00        0xc ./src/smc_gen/r_bsp/mcu/rx72n/vecttbl.o
                0xfe7f5d00                __ofsm_sec_ofs1

.ofs2           0xfe7f5d10        0x4
 *(.ofs2)
 .ofs2          0xfe7f5d10        0x4 ./src/smc_gen/r_bsp/mcu/rx72n/vecttbl.o
                0xfe7f5d10                __TMINFreg

.ofs3           0xfe7f5d20        0x4
 *(.ofs3)
 .ofs3          0xfe7f5d20        0x4 ./src/smc_gen/r_bsp/mcu/rx72n/vecttbl.o
                0xfe7f5d20                __BANKSELreg

.ofs4           0xfe7f5d40        0x4
 *(.ofs4)
 .ofs4          0xfe7f5d40        0x4 ./src/smc_gen/r_bsp/mcu/rx72n/vecttbl.o
                0xfe7f5d40                __SPCCreg

.ofs5           0xfe7f5d48        0x4
 *(.ofs5)
 .ofs5          0xfe7f5d48        0x4 ./src/smc_gen/r_bsp/mcu/rx72n/vecttbl.o
                0xfe7f5d48                __TMEFreg

.ofs6           0xfe7f5d50       0x10
 *(.ofs6)
 .ofs6          0xfe7f5d50       0x10 ./src/smc_gen/r_bsp/mcu/rx72n/vecttbl.o
                0xfe7f5d50                __ofsm_sec_ofs6

.ofs7           0xfe7f5d64        0x4
 *(.ofs7)
 .ofs7          0xfe7f5d64        0x4 ./src/smc_gen/r_bsp/mcu/rx72n/vecttbl.o
                0xfe7f5d64                __FAWreg

.ofs8           0xfe7f5d70        0x4
 *(.ofs8)
 .ofs8          0xfe7f5d70        0x4 ./src/smc_gen/r_bsp/mcu/rx72n/vecttbl.o
                0xfe7f5d70                __ROMCODEreg

.r_bsp_NULL     0x0000d09c      0x100 load address 0xffc1bd48
                0x0000d19c                . = (. + 0x100)
 *fill*         0x0000d09c      0x100 
                0x0000d19c                _r_bsp_NULL_end = .

.r_bsp_istack   0x0000d19c      0x400 load address 0xffc1be48
 *(.r_bsp_istack)
 .r_bsp_istack  0x0000d19c      0x400 ./src/smc_gen/r_bsp/mcu/all/resetprg.o

.istack         0x0000d59c        0x0
                0x0000d59c                _istack = .

.r_bsp_ustack
 *(.r_bsp_ustack)

.ustack         0x0000d59c        0x0
                0x0000d59c                _ustack = .
OUTPUT(RTOSDemo.elf elf32-rx-le)

.debug_info     0x00000000    0x95f24
 .debug_info    0x00000000       0x93 ./src/smc_integration/RenesasSimDebug/sim_debug_mode_hook.o
 .debug_info    0x00000093      0xa99 ./src/smc_integration/FIT_patch.o
 .debug_info    0x00000b2c     0x7b56 ./src/smc_integration/IDE_helper.o
 .debug_info    0x00008682      0xa57 ./src/smc_integration/u_bsp_lowlvl_ext.o
 .debug_info    0x000090d9     0x1cae ./src/smc_gen/r_gpio_rx/src/r_gpio_rx.o
 .debug_info    0x0000ad87     0x486f ./src/smc_gen/r_bsp/mcu/rx72n/mcu_clocks.o
 .debug_info    0x0000f5f6     0x9ebb ./src/smc_gen/r_bsp/mcu/rx72n/mcu_init.o
 .debug_info    0x000194b1     0xabc4 ./src/smc_gen/r_bsp/mcu/rx72n/mcu_interrupts.o
 .debug_info    0x00024075     0x7147 ./src/smc_gen/r_bsp/mcu/rx72n/mcu_mapped_interrupts.o
 .debug_info    0x0002b1bc      0xb21 ./src/smc_gen/r_bsp/mcu/rx72n/vecttbl.o
 .debug_info    0x0002bcdd      0xa5b ./src/smc_gen/r_bsp/mcu/all/lowlvl.o
 .debug_info    0x0002c738      0xce0 ./src/smc_gen/r_bsp/mcu/all/mcu_locks.o
 .debug_info    0x0002d418      0xb2e ./src/smc_gen/r_bsp/mcu/all/r_bsp_common.o
 .debug_info    0x0002df46     0x763e ./src/smc_gen/r_bsp/mcu/all/r_bsp_cpu.o
 .debug_info    0x00035584     0xb843 ./src/smc_gen/r_bsp/mcu/all/r_bsp_interrupts.o
 .debug_info    0x00040dc7      0xe35 ./src/smc_gen/r_bsp/mcu/all/r_bsp_locking.o
 .debug_info    0x00041bfc     0x137d ./src/smc_gen/r_bsp/mcu/all/r_rx_intrinsic_functions.o
 .debug_info    0x00042f79       0xba ./src/smc_gen/r_bsp/mcu/all/reset_program.o
 .debug_info    0x00043033     0x1121 ./src/smc_gen/r_bsp/mcu/all/resetprg.o
 .debug_info    0x00044154     0x71c2 ./src/smc_gen/r_bsp/board/generic_rx72n/hwsetup.o
 .debug_info    0x0004b316     0x7e8f ./src/smc_gen/general/r_cg_hardware_setup.o
 .debug_info    0x000531a5      0x9d9 ./src/smc_gen/general/r_smc_cgc.o
 .debug_info    0x00053b7e      0x9bf ./src/smc_gen/general/r_smc_cgc_user.o
 .debug_info    0x0005453d     0xae10 ./src/frtos_startup/freertos_start.o
 .debug_info    0x0005f34d      0xe8f ./src/FreeRTOS_Demo/Full_Demo/Standard_Demo_Tasks/BlockQ.o
 .debug_info    0x000601dc      0xf1e ./src/FreeRTOS_Demo/Full_Demo/Standard_Demo_Tasks/EventGroupsDemo.o
 .debug_info    0x000610fa     0x1403 ./src/FreeRTOS_Demo/Full_Demo/Standard_Demo_Tasks/GenQTest.o
 .debug_info    0x000624fd     0x1d18 ./src/FreeRTOS_Demo/Full_Demo/Standard_Demo_Tasks/IntQueue.o
 .debug_info    0x00064215     0x11d2 ./src/FreeRTOS_Demo/Full_Demo/Standard_Demo_Tasks/IntSemTest.o
 .debug_info    0x000653e7      0x494 ./src/FreeRTOS_Demo/Full_Demo/Standard_Demo_Tasks/QueueOverwrite.o
 .debug_info    0x0006587b     0x1173 ./src/FreeRTOS_Demo/Full_Demo/Standard_Demo_Tasks/TaskNotify.o
 .debug_info    0x000669ee     0x1a04 ./src/FreeRTOS_Demo/Full_Demo/Standard_Demo_Tasks/TaskNotifyArray.o
 .debug_info    0x000683f2     0x17cc ./src/FreeRTOS_Demo/Full_Demo/Standard_Demo_Tasks/TimerDemo.o
 .debug_info    0x00069bbe      0x808 ./src/FreeRTOS_Demo/Full_Demo/Standard_Demo_Tasks/blocktim.o
 .debug_info    0x0006a3c6      0x51b ./src/FreeRTOS_Demo/Full_Demo/Standard_Demo_Tasks/countsem.o
 .debug_info    0x0006a8e1      0xc6b ./src/FreeRTOS_Demo/Full_Demo/Standard_Demo_Tasks/death.o
 .debug_info    0x0006b54c     0x105a ./src/FreeRTOS_Demo/Full_Demo/Standard_Demo_Tasks/dynamic.o
 .debug_info    0x0006c5a6      0xdef ./src/FreeRTOS_Demo/Full_Demo/Standard_Demo_Tasks/flop.o
 .debug_info    0x0006d395      0x574 ./src/FreeRTOS_Demo/Full_Demo/Standard_Demo_Tasks/recmutex.o
 .debug_info    0x0006d909      0xdc7 ./src/FreeRTOS_Demo/Full_Demo/Standard_Demo_Tasks/semtest.o
 .debug_info    0x0006e6d0      0xddf ./src/FreeRTOS_Demo/Full_Demo/FreeRTOS-Plus-CLI/FreeRTOS_CLI.o
 .debug_info    0x0006f4af     0xa77d ./src/FreeRTOS_Demo/Full_Demo/IntQueueTimer.o
 .debug_info    0x00079c2c      0xe0c ./src/FreeRTOS_Demo/Full_Demo/Sample-CLI-commands.o
 .debug_info    0x0007aa38      0xd72 ./src/FreeRTOS_Demo/Full_Demo/UARTCommandConsole.o
 .debug_info    0x0007b7aa     0x1170 ./src/FreeRTOS_Demo/Full_Demo/main_full.o
 .debug_info    0x0007c91a      0xeb0 ./src/FreeRTOS_Demo/Full_Demo/serial.o
 .debug_info    0x0007d7ca      0xe33 ./src/FreeRTOS/Source/portable/MemMang/heap_4.o
 .debug_info    0x0007e5fd     0xa544 ./src/FreeRTOS/Source/portable/GCC/RX_RenesasSim/port.o
 .debug_info    0x00088b41     0x158e ./src/FreeRTOS/Source/event_groups.o
 .debug_info    0x0008a0cf      0xb59 ./src/FreeRTOS/Source/list.o
 .debug_info    0x0008ac28     0x2fd5 ./src/FreeRTOS/Source/queue.o
 .debug_info    0x0008dbfd     0x20d9 ./src/FreeRTOS/Source/stream_buffer.o
 .debug_info    0x0008fcd6     0x43b3 ./src/FreeRTOS/Source/tasks.o
 .debug_info    0x00094089     0x1e9b ./src/FreeRTOS/Source/timers.o

.debug_abbrev   0x00000000     0x985a
 .debug_abbrev  0x00000000       0x4f ./src/smc_integration/RenesasSimDebug/sim_debug_mode_hook.o
 .debug_abbrev  0x0000004f      0x243 ./src/smc_integration/FIT_patch.o
 .debug_abbrev  0x00000292      0x236 ./src/smc_integration/IDE_helper.o
 .debug_abbrev  0x000004c8      0x1d6 ./src/smc_integration/u_bsp_lowlvl_ext.o
 .debug_abbrev  0x0000069e      0x44c ./src/smc_gen/r_gpio_rx/src/r_gpio_rx.o
 .debug_abbrev  0x00000aea      0x350 ./src/smc_gen/r_bsp/mcu/rx72n/mcu_clocks.o
 .debug_abbrev  0x00000e3a      0x20b ./src/smc_gen/r_bsp/mcu/rx72n/mcu_init.o
 .debug_abbrev  0x00001045      0x33a ./src/smc_gen/r_bsp/mcu/rx72n/mcu_interrupts.o
 .debug_abbrev  0x0000137f      0x233 ./src/smc_gen/r_bsp/mcu/rx72n/mcu_mapped_interrupts.o
 .debug_abbrev  0x000015b2      0x1c9 ./src/smc_gen/r_bsp/mcu/rx72n/vecttbl.o
 .debug_abbrev  0x0000177b      0x201 ./src/smc_gen/r_bsp/mcu/all/lowlvl.o
 .debug_abbrev  0x0000197c      0x1e1 ./src/smc_gen/r_bsp/mcu/all/mcu_locks.o
 .debug_abbrev  0x00001b5d      0x2dc ./src/smc_gen/r_bsp/mcu/all/r_bsp_common.o
 .debug_abbrev  0x00001e39      0x358 ./src/smc_gen/r_bsp/mcu/all/r_bsp_cpu.o
 .debug_abbrev  0x00002191      0x50a ./src/smc_gen/r_bsp/mcu/all/r_bsp_interrupts.o
 .debug_abbrev  0x0000269b      0x2b6 ./src/smc_gen/r_bsp/mcu/all/r_bsp_locking.o
 .debug_abbrev  0x00002951      0x330 ./src/smc_gen/r_bsp/mcu/all/r_rx_intrinsic_functions.o
 .debug_abbrev  0x00002c81       0x14 ./src/smc_gen/r_bsp/mcu/all/reset_program.o
 .debug_abbrev  0x00002c95      0x256 ./src/smc_gen/r_bsp/mcu/all/resetprg.o
 .debug_abbrev  0x00002eeb      0x350 ./src/smc_gen/r_bsp/board/generic_rx72n/hwsetup.o
 .debug_abbrev  0x0000323b      0x318 ./src/smc_gen/general/r_cg_hardware_setup.o
 .debug_abbrev  0x00003553      0x1f7 ./src/smc_gen/general/r_smc_cgc.o
 .debug_abbrev  0x0000374a      0x1d4 ./src/smc_gen/general/r_smc_cgc_user.o
 .debug_abbrev  0x0000391e      0x42c ./src/frtos_startup/freertos_start.o
 .debug_abbrev  0x00003d4a      0x2d1 ./src/FreeRTOS_Demo/Full_Demo/Standard_Demo_Tasks/BlockQ.o
 .debug_abbrev  0x0000401b      0x268 ./src/FreeRTOS_Demo/Full_Demo/Standard_Demo_Tasks/EventGroupsDemo.o
 .debug_abbrev  0x00004283      0x33f ./src/FreeRTOS_Demo/Full_Demo/Standard_Demo_Tasks/GenQTest.o
 .debug_abbrev  0x000045c2      0x391 ./src/FreeRTOS_Demo/Full_Demo/Standard_Demo_Tasks/IntQueue.o
 .debug_abbrev  0x00004953      0x378 ./src/FreeRTOS_Demo/Full_Demo/Standard_Demo_Tasks/IntSemTest.o
 .debug_abbrev  0x00004ccb      0x157 ./src/FreeRTOS_Demo/Full_Demo/Standard_Demo_Tasks/QueueOverwrite.o
 .debug_abbrev  0x00004e22      0x243 ./src/FreeRTOS_Demo/Full_Demo/Standard_Demo_Tasks/TaskNotify.o
 .debug_abbrev  0x00005065      0x291 ./src/FreeRTOS_Demo/Full_Demo/Standard_Demo_Tasks/TaskNotifyArray.o
 .debug_abbrev  0x000052f6      0x3ee ./src/FreeRTOS_Demo/Full_Demo/Standard_Demo_Tasks/TimerDemo.o
 .debug_abbrev  0x000056e4      0x1e3 ./src/FreeRTOS_Demo/Full_Demo/Standard_Demo_Tasks/blocktim.o
 .debug_abbrev  0x000058c7      0x1f9 ./src/FreeRTOS_Demo/Full_Demo/Standard_Demo_Tasks/countsem.o
 .debug_abbrev  0x00005ac0      0x2da ./src/FreeRTOS_Demo/Full_Demo/Standard_Demo_Tasks/death.o
 .debug_abbrev  0x00005d9a      0x323 ./src/FreeRTOS_Demo/Full_Demo/Standard_Demo_Tasks/dynamic.o
 .debug_abbrev  0x000060bd      0x33f ./src/FreeRTOS_Demo/Full_Demo/Standard_Demo_Tasks/flop.o
 .debug_abbrev  0x000063fc      0x19c ./src/FreeRTOS_Demo/Full_Demo/Standard_Demo_Tasks/recmutex.o
 .debug_abbrev  0x00006598      0x2a9 ./src/FreeRTOS_Demo/Full_Demo/Standard_Demo_Tasks/semtest.o
 .debug_abbrev  0x00006841      0x338 ./src/FreeRTOS_Demo/Full_Demo/FreeRTOS-Plus-CLI/FreeRTOS_CLI.o
 .debug_abbrev  0x00006b79      0x2a2 ./src/FreeRTOS_Demo/Full_Demo/IntQueueTimer.o
 .debug_abbrev  0x00006e1b      0x2d8 ./src/FreeRTOS_Demo/Full_Demo/Sample-CLI-commands.o
 .debug_abbrev  0x000070f3      0x27d ./src/FreeRTOS_Demo/Full_Demo/UARTCommandConsole.o
 .debug_abbrev  0x00007370      0x314 ./src/FreeRTOS_Demo/Full_Demo/main_full.o
 .debug_abbrev  0x00007684      0x336 ./src/FreeRTOS_Demo/Full_Demo/serial.o
 .debug_abbrev  0x000079ba      0x3b5 ./src/FreeRTOS/Source/portable/MemMang/heap_4.o
 .debug_abbrev  0x00007d6f      0x36d ./src/FreeRTOS/Source/portable/GCC/RX_RenesasSim/port.o
 .debug_abbrev  0x000080dc      0x3af ./src/FreeRTOS/Source/event_groups.o
 .debug_abbrev  0x0000848b      0x254 ./src/FreeRTOS/Source/list.o
 .debug_abbrev  0x000086df      0x40a ./src/FreeRTOS/Source/queue.o
 .debug_abbrev  0x00008ae9      0x406 ./src/FreeRTOS/Source/stream_buffer.o
 .debug_abbrev  0x00008eef      0x53a ./src/FreeRTOS/Source/tasks.o
 .debug_abbrev  0x00009429      0x431 ./src/FreeRTOS/Source/timers.o

.debug_aranges  0x00000000     0x11a0
 .debug_aranges
                0x00000000       0x18 ./src/smc_integration/RenesasSimDebug/sim_debug_mode_hook.o
 .debug_aranges
                0x00000018       0x30 ./src/smc_integration/FIT_patch.o
 .debug_aranges
                0x00000048       0x20 ./src/smc_integration/IDE_helper.o
 .debug_aranges
                0x00000068       0x28 ./src/smc_integration/u_bsp_lowlvl_ext.o
 .debug_aranges
                0x00000090       0x70 ./src/smc_gen/r_gpio_rx/src/r_gpio_rx.o
 .debug_aranges
                0x00000100       0x28 ./src/smc_gen/r_bsp/mcu/rx72n/mcu_clocks.o
 .debug_aranges
                0x00000128       0x20 ./src/smc_gen/r_bsp/mcu/rx72n/mcu_init.o
 .debug_aranges
                0x00000148       0x58 ./src/smc_gen/r_bsp/mcu/rx72n/mcu_interrupts.o
 .debug_aranges
                0x000001a0       0x20 ./src/smc_gen/r_bsp/mcu/rx72n/mcu_mapped_interrupts.o
 .debug_aranges
                0x000001c0       0x18 ./src/smc_gen/r_bsp/mcu/rx72n/vecttbl.o
 .debug_aranges
                0x000001d8       0x28 ./src/smc_gen/r_bsp/mcu/all/lowlvl.o
 .debug_aranges
                0x00000200       0x18 ./src/smc_gen/r_bsp/mcu/all/mcu_locks.o
 .debug_aranges
                0x00000218       0x38 ./src/smc_gen/r_bsp/mcu/all/r_bsp_common.o
 .debug_aranges
                0x00000250       0x60 ./src/smc_gen/r_bsp/mcu/all/r_bsp_cpu.o
 .debug_aranges
                0x000002b0       0x88 ./src/smc_gen/r_bsp/mcu/all/r_bsp_interrupts.o
 .debug_aranges
                0x00000338       0x38 ./src/smc_gen/r_bsp/mcu/all/r_bsp_locking.o
 .debug_aranges
                0x00000370      0x170 ./src/smc_gen/r_bsp/mcu/all/r_rx_intrinsic_functions.o
 .debug_aranges
                0x000004e0       0x20 ./src/smc_gen/r_bsp/mcu/all/reset_program.o
 .debug_aranges
                0x00000500       0x20 ./src/smc_gen/r_bsp/mcu/all/resetprg.o
 .debug_aranges
                0x00000520       0x20 ./src/smc_gen/r_bsp/board/generic_rx72n/hwsetup.o
 .debug_aranges
                0x00000540       0x38 ./src/smc_gen/general/r_cg_hardware_setup.o
 .debug_aranges
                0x00000578       0x20 ./src/smc_gen/general/r_smc_cgc.o
 .debug_aranges
                0x00000598       0x20 ./src/smc_gen/general/r_smc_cgc_user.o
 .debug_aranges
                0x000005b8       0x70 ./src/frtos_startup/freertos_start.o
 .debug_aranges
                0x00000628       0x38 ./src/FreeRTOS_Demo/Full_Demo/Standard_Demo_Tasks/BlockQ.o
 .debug_aranges
                0x00000660       0x48 ./src/FreeRTOS_Demo/Full_Demo/Standard_Demo_Tasks/EventGroupsDemo.o
 .debug_aranges
                0x000006a8       0x48 ./src/FreeRTOS_Demo/Full_Demo/Standard_Demo_Tasks/GenQTest.o
 .debug_aranges
                0x000006f0       0x60 ./src/FreeRTOS_Demo/Full_Demo/Standard_Demo_Tasks/IntQueue.o
 .debug_aranges
                0x00000750       0x48 ./src/FreeRTOS_Demo/Full_Demo/Standard_Demo_Tasks/IntSemTest.o
 .debug_aranges
                0x00000798       0x38 ./src/FreeRTOS_Demo/Full_Demo/Standard_Demo_Tasks/QueueOverwrite.o
 .debug_aranges
                0x000007d0       0x50 ./src/FreeRTOS_Demo/Full_Demo/Standard_Demo_Tasks/TaskNotify.o
 .debug_aranges
                0x00000820       0x50 ./src/FreeRTOS_Demo/Full_Demo/Standard_Demo_Tasks/TaskNotifyArray.o
 .debug_aranges
                0x00000870       0x60 ./src/FreeRTOS_Demo/Full_Demo/Standard_Demo_Tasks/TimerDemo.o
 .debug_aranges
                0x000008d0       0x38 ./src/FreeRTOS_Demo/Full_Demo/Standard_Demo_Tasks/blocktim.o
 .debug_aranges
                0x00000908       0x38 ./src/FreeRTOS_Demo/Full_Demo/Standard_Demo_Tasks/countsem.o
 .debug_aranges
                0x00000940       0x38 ./src/FreeRTOS_Demo/Full_Demo/Standard_Demo_Tasks/death.o
 .debug_aranges
                0x00000978       0x50 ./src/FreeRTOS_Demo/Full_Demo/Standard_Demo_Tasks/dynamic.o
 .debug_aranges
                0x000009c8       0x48 ./src/FreeRTOS_Demo/Full_Demo/Standard_Demo_Tasks/flop.o
 .debug_aranges
                0x00000a10       0x40 ./src/FreeRTOS_Demo/Full_Demo/Standard_Demo_Tasks/recmutex.o
 .debug_aranges
                0x00000a50       0x30 ./src/FreeRTOS_Demo/Full_Demo/Standard_Demo_Tasks/semtest.o
 .debug_aranges
                0x00000a80       0x40 ./src/FreeRTOS_Demo/Full_Demo/FreeRTOS-Plus-CLI/FreeRTOS_CLI.o
 .debug_aranges
                0x00000ac0       0x30 ./src/FreeRTOS_Demo/Full_Demo/IntQueueTimer.o
 .debug_aranges
                0x00000af0       0x40 ./src/FreeRTOS_Demo/Full_Demo/Sample-CLI-commands.o
 .debug_aranges
                0x00000b30       0x30 ./src/FreeRTOS_Demo/Full_Demo/UARTCommandConsole.o
 .debug_aranges
                0x00000b60       0x58 ./src/FreeRTOS_Demo/Full_Demo/main_full.o
 .debug_aranges
                0x00000bb8       0x40 ./src/FreeRTOS_Demo/Full_Demo/serial.o
 .debug_aranges
                0x00000bf8       0x48 ./src/FreeRTOS/Source/portable/MemMang/heap_4.o
 .debug_aranges
                0x00000c40       0x60 ./src/FreeRTOS/Source/portable/GCC/RX_RenesasSim/port.o
 .debug_aranges
                0x00000ca0       0x80 ./src/FreeRTOS/Source/event_groups.o
 .debug_aranges
                0x00000d20       0x40 ./src/FreeRTOS/Source/list.o
 .debug_aranges
                0x00000d60      0x118 ./src/FreeRTOS/Source/queue.o
 .debug_aranges
                0x00000e78       0xa8 ./src/FreeRTOS/Source/stream_buffer.o
 .debug_aranges
                0x00000f20      0x1d8 ./src/FreeRTOS/Source/tasks.o
 .debug_aranges
                0x000010f8       0xa8 ./src/FreeRTOS/Source/timers.o

.debug_line     0x00000000    0x1cc7b
 .debug_line    0x00000000      0x11e ./src/smc_integration/RenesasSimDebug/sim_debug_mode_hook.o
 .debug_line    0x0000011e      0x41c ./src/smc_integration/FIT_patch.o
 .debug_line    0x0000053a      0x508 ./src/smc_integration/IDE_helper.o
 .debug_line    0x00000a42      0x379 ./src/smc_integration/u_bsp_lowlvl_ext.o
 .debug_line    0x00000dbb      0xb7e ./src/smc_gen/r_gpio_rx/src/r_gpio_rx.o
 .debug_line    0x00001939      0x76c ./src/smc_gen/r_bsp/mcu/rx72n/mcu_clocks.o
 .debug_line    0x000020a5      0x4e8 ./src/smc_gen/r_bsp/mcu/rx72n/mcu_init.o
 .debug_line    0x0000258d      0xd5a ./src/smc_gen/r_bsp/mcu/rx72n/mcu_interrupts.o
 .debug_line    0x000032e7      0x7d2 ./src/smc_gen/r_bsp/mcu/rx72n/mcu_mapped_interrupts.o
 .debug_line    0x00003ab9      0x349 ./src/smc_gen/r_bsp/mcu/rx72n/vecttbl.o
 .debug_line    0x00003e02      0x3a0 ./src/smc_gen/r_bsp/mcu/all/lowlvl.o
 .debug_line    0x000041a2      0x33c ./src/smc_gen/r_bsp/mcu/all/mcu_locks.o
 .debug_line    0x000044de      0x4cf ./src/smc_gen/r_bsp/mcu/all/r_bsp_common.o
 .debug_line    0x000049ad      0x7c1 ./src/smc_gen/r_bsp/mcu/all/r_bsp_cpu.o
 .debug_line    0x0000516e      0xe9c ./src/smc_gen/r_bsp/mcu/all/r_bsp_interrupts.o
 .debug_line    0x0000600a      0x421 ./src/smc_gen/r_bsp/mcu/all/r_bsp_locking.o
 .debug_line    0x0000642b      0x89e ./src/smc_gen/r_bsp/mcu/all/r_rx_intrinsic_functions.o
 .debug_line    0x00006cc9       0x70 ./src/smc_gen/r_bsp/mcu/all/reset_program.o
 .debug_line    0x00006d39      0x4ec ./src/smc_gen/r_bsp/mcu/all/resetprg.o
 .debug_line    0x00007225      0x548 ./src/smc_gen/r_bsp/board/generic_rx72n/hwsetup.o
 .debug_line    0x0000776d      0x68d ./src/smc_gen/general/r_cg_hardware_setup.o
 .debug_line    0x00007dfa      0x359 ./src/smc_gen/general/r_smc_cgc.o
 .debug_line    0x00008153      0x34d ./src/smc_gen/general/r_smc_cgc_user.o
 .debug_line    0x000084a0      0x80f ./src/frtos_startup/freertos_start.o
 .debug_line    0x00008caf      0x560 ./src/FreeRTOS_Demo/Full_Demo/Standard_Demo_Tasks/BlockQ.o
 .debug_line    0x0000920f      0x9a7 ./src/FreeRTOS_Demo/Full_Demo/Standard_Demo_Tasks/EventGroupsDemo.o
 .debug_line    0x00009bb6      0xa3e ./src/FreeRTOS_Demo/Full_Demo/Standard_Demo_Tasks/GenQTest.o
 .debug_line    0x0000a5f4      0xe40 ./src/FreeRTOS_Demo/Full_Demo/Standard_Demo_Tasks/IntQueue.o
 .debug_line    0x0000b434      0x83f ./src/FreeRTOS_Demo/Full_Demo/Standard_Demo_Tasks/IntSemTest.o
 .debug_line    0x0000bc73      0x42c ./src/FreeRTOS_Demo/Full_Demo/Standard_Demo_Tasks/QueueOverwrite.o
 .debug_line    0x0000c09f      0x831 ./src/FreeRTOS_Demo/Full_Demo/Standard_Demo_Tasks/TaskNotify.o
 .debug_line    0x0000c8d0      0xd68 ./src/FreeRTOS_Demo/Full_Demo/Standard_Demo_Tasks/TaskNotifyArray.o
 .debug_line    0x0000d638      0xe80 ./src/FreeRTOS_Demo/Full_Demo/Standard_Demo_Tasks/TimerDemo.o
 .debug_line    0x0000e4b8      0x771 ./src/FreeRTOS_Demo/Full_Demo/Standard_Demo_Tasks/blocktim.o
 .debug_line    0x0000ec29      0x529 ./src/FreeRTOS_Demo/Full_Demo/Standard_Demo_Tasks/countsem.o
 .debug_line    0x0000f152      0x423 ./src/FreeRTOS_Demo/Full_Demo/Standard_Demo_Tasks/death.o
 .debug_line    0x0000f575      0x660 ./src/FreeRTOS_Demo/Full_Demo/Standard_Demo_Tasks/dynamic.o
 .debug_line    0x0000fbd5      0x85d ./src/FreeRTOS_Demo/Full_Demo/Standard_Demo_Tasks/flop.o
 .debug_line    0x00010432      0x567 ./src/FreeRTOS_Demo/Full_Demo/Standard_Demo_Tasks/recmutex.o
 .debug_line    0x00010999      0x524 ./src/FreeRTOS_Demo/Full_Demo/Standard_Demo_Tasks/semtest.o
 .debug_line    0x00010ebd      0x628 ./src/FreeRTOS_Demo/Full_Demo/FreeRTOS-Plus-CLI/FreeRTOS_CLI.o
 .debug_line    0x000114e5      0x5d4 ./src/FreeRTOS_Demo/Full_Demo/IntQueueTimer.o
 .debug_line    0x00011ab9      0x5bc ./src/FreeRTOS_Demo/Full_Demo/Sample-CLI-commands.o
 .debug_line    0x00012075      0x5d5 ./src/FreeRTOS_Demo/Full_Demo/UARTCommandConsole.o
 .debug_line    0x0001264a      0x830 ./src/FreeRTOS_Demo/Full_Demo/main_full.o
 .debug_line    0x00012e7a      0x740 ./src/FreeRTOS_Demo/Full_Demo/serial.o
 .debug_line    0x000135ba      0x807 ./src/FreeRTOS/Source/portable/MemMang/heap_4.o
 .debug_line    0x00013dc1      0x741 ./src/FreeRTOS/Source/portable/GCC/RX_RenesasSim/port.o
 .debug_line    0x00014502      0xa57 ./src/FreeRTOS/Source/event_groups.o
 .debug_line    0x00014f59      0x496 ./src/FreeRTOS/Source/list.o
 .debug_line    0x000153ef     0x1eb6 ./src/FreeRTOS/Source/queue.o
 .debug_line    0x000172a5     0x1441 ./src/FreeRTOS/Source/stream_buffer.o
 .debug_line    0x000186e6     0x37eb ./src/FreeRTOS/Source/tasks.o
 .debug_line    0x0001bed1      0xdaa ./src/FreeRTOS/Source/timers.o

.debug_str      0x00000000     0xe7ed
 .debug_str     0x00000000      0x1c9 ./src/smc_integration/RenesasSimDebug/sim_debug_mode_hook.o
                                0x206 (size before relaxing)
 .debug_str     0x000001c9      0x462 ./src/smc_integration/FIT_patch.o
                                0x677 (size before relaxing)
 .debug_str     0x0000062b      0x244 ./src/smc_integration/IDE_helper.o
                                0x83e (size before relaxing)
 .debug_str     0x0000086f       0x72 ./src/smc_integration/u_bsp_lowlvl_ext.o
                                0x66c (size before relaxing)
 .debug_str     0x000008e1      0xcce ./src/smc_gen/r_gpio_rx/src/r_gpio_rx.o
                               0x1322 (size before relaxing)
 .debug_str     0x000015af      0xce8 ./src/smc_gen/r_bsp/mcu/rx72n/mcu_clocks.o
                               0x1365 (size before relaxing)
 .debug_str     0x00002297       0x7b ./src/smc_gen/r_bsp/mcu/rx72n/mcu_init.o
                                0x73b (size before relaxing)
 .debug_str     0x00002312     0x3846 ./src/smc_gen/r_bsp/mcu/rx72n/mcu_interrupts.o
                               0x3f45 (size before relaxing)
 .debug_str     0x00005b58       0x51 ./src/smc_gen/r_bsp/mcu/rx72n/mcu_mapped_interrupts.o
                               0x10fd (size before relaxing)
 .debug_str     0x00005ba9      0x138 ./src/smc_gen/r_bsp/mcu/rx72n/vecttbl.o
                                0x732 (size before relaxing)
 .debug_str     0x00005ce1       0x42 ./src/smc_gen/r_bsp/mcu/all/lowlvl.o
                                0x65d (size before relaxing)
 .debug_str     0x00005d23      0x7b3 ./src/smc_gen/r_bsp/mcu/all/mcu_locks.o
                                0xdad (size before relaxing)
 .debug_str     0x000064d6       0xc1 ./src/smc_gen/r_bsp/mcu/all/r_bsp_common.o
                                0x726 (size before relaxing)
 .debug_str     0x00006597      0x83e ./src/smc_gen/r_bsp/mcu/all/r_bsp_cpu.o
                               0x2b1a (size before relaxing)
 .debug_str     0x00006dd5      0x2bd ./src/smc_gen/r_bsp/mcu/all/r_bsp_interrupts.o
                               0x41e3 (size before relaxing)
 .debug_str     0x00007092       0xa1 ./src/smc_gen/r_bsp/mcu/all/r_bsp_locking.o
                                0xe2b (size before relaxing)
 .debug_str     0x00007133      0x36a ./src/smc_gen/r_bsp/mcu/all/r_rx_intrinsic_functions.o
                                0x9bb (size before relaxing)
 .debug_str     0x0000749d       0x94 ./src/smc_gen/r_bsp/mcu/all/resetprg.o
                               0x1ae9 (size before relaxing)
 .debug_str     0x00007531      0xbe3 ./src/smc_gen/r_bsp/board/generic_rx72n/hwsetup.o
                               0x1e90 (size before relaxing)
 .debug_str     0x00008114      0x337 ./src/smc_gen/general/r_cg_hardware_setup.o
                               0x2c6b (size before relaxing)
 .debug_str     0x0000844b       0x39 ./src/smc_gen/general/r_smc_cgc.o
                                0x640 (size before relaxing)
 .debug_str     0x00008484       0x28 ./src/smc_gen/general/r_smc_cgc_user.o
                                0x638 (size before relaxing)
 .debug_str     0x000084ac     0x10a5 ./src/frtos_startup/freertos_start.o
                               0x4774 (size before relaxing)
 .debug_str     0x00009551      0x2af ./src/FreeRTOS_Demo/Full_Demo/Standard_Demo_Tasks/BlockQ.o
                                0x8b8 (size before relaxing)
 .debug_str     0x00009800      0x41c ./src/FreeRTOS_Demo/Full_Demo/Standard_Demo_Tasks/EventGroupsDemo.o
                                0x64a (size before relaxing)
 .debug_str     0x00009c1c      0x279 ./src/FreeRTOS_Demo/Full_Demo/Standard_Demo_Tasks/GenQTest.o
                                0x965 (size before relaxing)
 .debug_str     0x00009e95      0x4bd ./src/FreeRTOS_Demo/Full_Demo/Standard_Demo_Tasks/IntQueue.o
                                0xbc3 (size before relaxing)
 .debug_str     0x0000a352      0x2b3 ./src/FreeRTOS_Demo/Full_Demo/Standard_Demo_Tasks/IntSemTest.o
                                0x9ff (size before relaxing)
 .debug_str     0x0000a605      0x14d ./src/FreeRTOS_Demo/Full_Demo/Standard_Demo_Tasks/QueueOverwrite.o
                                0x42f (size before relaxing)
 .debug_str     0x0000a752      0x414 ./src/FreeRTOS_Demo/Full_Demo/Standard_Demo_Tasks/TaskNotify.o
                                0x737 (size before relaxing)
 .debug_str     0x0000ab66      0x2ba ./src/FreeRTOS_Demo/Full_Demo/Standard_Demo_Tasks/TaskNotifyArray.o
                                0x875 (size before relaxing)
 .debug_str     0x0000ae20      0x52c ./src/FreeRTOS_Demo/Full_Demo/Standard_Demo_Tasks/TimerDemo.o
                                0xc15 (size before relaxing)
 .debug_str     0x0000b34c      0x1f8 ./src/FreeRTOS_Demo/Full_Demo/Standard_Demo_Tasks/blocktim.o
                                0x4c9 (size before relaxing)
 .debug_str     0x0000b544      0x158 ./src/FreeRTOS_Demo/Full_Demo/Standard_Demo_Tasks/countsem.o
                                0x40b (size before relaxing)
 .debug_str     0x0000b69c      0x130 ./src/FreeRTOS_Demo/Full_Demo/Standard_Demo_Tasks/death.o
                                0x77b (size before relaxing)
 .debug_str     0x0000b7cc      0x228 ./src/FreeRTOS_Demo/Full_Demo/Standard_Demo_Tasks/dynamic.o
                                0x983 (size before relaxing)
 .debug_str     0x0000b9f4      0x197 ./src/FreeRTOS_Demo/Full_Demo/Standard_Demo_Tasks/flop.o
                                0x79d (size before relaxing)
 .debug_str     0x0000bb8b      0x1e9 ./src/FreeRTOS_Demo/Full_Demo/Standard_Demo_Tasks/recmutex.o
                                0x4ed (size before relaxing)
 .debug_str     0x0000bd74      0x15e ./src/FreeRTOS_Demo/Full_Demo/Standard_Demo_Tasks/semtest.o
                                0x85a (size before relaxing)
 .debug_str     0x0000bed2      0x317 ./src/FreeRTOS_Demo/Full_Demo/FreeRTOS-Plus-CLI/FreeRTOS_CLI.o
                                0x90d (size before relaxing)
 .debug_str     0x0000c1e9       0xb4 ./src/FreeRTOS_Demo/Full_Demo/IntQueueTimer.o
                               0x4613 (size before relaxing)
 .debug_str     0x0000c29d      0x1a0 ./src/FreeRTOS_Demo/Full_Demo/Sample-CLI-commands.o
                                0x88a (size before relaxing)
 .debug_str     0x0000c43d      0x183 ./src/FreeRTOS_Demo/Full_Demo/UARTCommandConsole.o
                                0x854 (size before relaxing)
 .debug_str     0x0000c5c0      0x16b ./src/FreeRTOS_Demo/Full_Demo/main_full.o
                                0xc73 (size before relaxing)
 .debug_str     0x0000c72b       0xcd ./src/FreeRTOS_Demo/Full_Demo/serial.o
                                0x8cd (size before relaxing)
 .debug_str     0x0000c7f8      0x2a1 ./src/FreeRTOS/Source/portable/MemMang/heap_4.o
                                0x92e (size before relaxing)
 .debug_str     0x0000ca99      0x138 ./src/FreeRTOS/Source/portable/GCC/RX_RenesasSim/port.o
                               0x46d9 (size before relaxing)
 .debug_str     0x0000cbd1      0x349 ./src/FreeRTOS/Source/event_groups.o
                                0xae7 (size before relaxing)
 .debug_str     0x0000cf1a       0xa2 ./src/FreeRTOS/Source/list.o
                                0x714 (size before relaxing)
 .debug_str     0x0000cfbc      0x5e6 ./src/FreeRTOS/Source/queue.o
                                0xf89 (size before relaxing)
 .debug_str     0x0000d5a2      0x4e2 ./src/FreeRTOS/Source/stream_buffer.o
                                0xccb (size before relaxing)
 .debug_str     0x0000da84      0x905 ./src/FreeRTOS/Source/tasks.o
                               0x1674 (size before relaxing)
 .debug_str     0x0000e389      0x464 ./src/FreeRTOS/Source/timers.o
                                0xdb7 (size before relaxing)

.comment        0x00000000       0x36
 .comment       0x00000000       0x36 ./src/smc_integration/RenesasSimDebug/sim_debug_mode_hook.o
                                 0x37 (size before relaxing)
 .comment       0x00000000       0x37 ./src/smc_integration/FIT_patch.o
 .comment       0x00000000       0x37 ./src/smc_integration/IDE_helper.o
 .comment       0x00000000       0x37 ./src/smc_integration/u_bsp_lowlvl_ext.o
 .comment       0x00000000       0x37 ./src/smc_gen/r_gpio_rx/src/r_gpio_rx.o
 .comment       0x00000000       0x37 ./src/smc_gen/r_bsp/mcu/rx72n/mcu_clocks.o
 .comment       0x00000000       0x37 ./src/smc_gen/r_bsp/mcu/rx72n/mcu_init.o
 .comment       0x00000000       0x37 ./src/smc_gen/r_bsp/mcu/rx72n/mcu_interrupts.o
 .comment       0x00000000       0x37 ./src/smc_gen/r_bsp/mcu/rx72n/mcu_mapped_interrupts.o
 .comment       0x00000000       0x37 ./src/smc_gen/r_bsp/mcu/rx72n/vecttbl.o
 .comment       0x00000000       0x37 ./src/smc_gen/r_bsp/mcu/all/lowlvl.o
 .comment       0x00000000       0x37 ./src/smc_gen/r_bsp/mcu/all/mcu_locks.o
 .comment       0x00000000       0x37 ./src/smc_gen/r_bsp/mcu/all/r_bsp_common.o
 .comment       0x00000000       0x37 ./src/smc_gen/r_bsp/mcu/all/r_bsp_cpu.o
 .comment       0x00000000       0x37 ./src/smc_gen/r_bsp/mcu/all/r_bsp_interrupts.o
 .comment       0x00000000       0x37 ./src/smc_gen/r_bsp/mcu/all/r_bsp_locking.o
 .comment       0x00000000       0x37 ./src/smc_gen/r_bsp/mcu/all/r_rx_intrinsic_functions.o
 .comment       0x00000000       0x37 ./src/smc_gen/r_bsp/mcu/all/resetprg.o
 .comment       0x00000000       0x37 ./src/smc_gen/r_bsp/board/generic_rx72n/hwsetup.o
 .comment       0x00000000       0x37 ./src/smc_gen/general/r_cg_hardware_setup.o
 .comment       0x00000000       0x37 ./src/smc_gen/general/r_smc_cgc.o
 .comment       0x00000000       0x37 ./src/smc_gen/general/r_smc_cgc_user.o
 .comment       0x00000000       0x37 ./src/frtos_startup/freertos_start.o
 .comment       0x00000000       0x37 ./src/FreeRTOS_Demo/Full_Demo/Standard_Demo_Tasks/BlockQ.o
 .comment       0x00000000       0x37 ./src/FreeRTOS_Demo/Full_Demo/Standard_Demo_Tasks/EventGroupsDemo.o
 .comment       0x00000000       0x37 ./src/FreeRTOS_Demo/Full_Demo/Standard_Demo_Tasks/GenQTest.o
 .comment       0x00000000       0x37 ./src/FreeRTOS_Demo/Full_Demo/Standard_Demo_Tasks/IntQueue.o
 .comment       0x00000000       0x37 ./src/FreeRTOS_Demo/Full_Demo/Standard_Demo_Tasks/IntSemTest.o
 .comment       0x00000000       0x37 ./src/FreeRTOS_Demo/Full_Demo/Standard_Demo_Tasks/QueueOverwrite.o
 .comment       0x00000000       0x37 ./src/FreeRTOS_Demo/Full_Demo/Standard_Demo_Tasks/TaskNotify.o
 .comment       0x00000000       0x37 ./src/FreeRTOS_Demo/Full_Demo/Standard_Demo_Tasks/TaskNotifyArray.o
 .comment       0x00000000       0x37 ./src/FreeRTOS_Demo/Full_Demo/Standard_Demo_Tasks/TimerDemo.o
 .comment       0x00000000       0x37 ./src/FreeRTOS_Demo/Full_Demo/Standard_Demo_Tasks/blocktim.o
 .comment       0x00000000       0x37 ./src/FreeRTOS_Demo/Full_Demo/Standard_Demo_Tasks/countsem.o
 .comment       0x00000000       0x37 ./src/FreeRTOS_Demo/Full_Demo/Standard_Demo_Tasks/death.o
 .comment       0x00000000       0x37 ./src/FreeRTOS_Demo/Full_Demo/Standard_Demo_Tasks/dynamic.o
 .comment       0x00000000       0x37 ./src/FreeRTOS_Demo/Full_Demo/Standard_Demo_Tasks/flop.o
 .comment       0x00000000       0x37 ./src/FreeRTOS_Demo/Full_Demo/Standard_Demo_Tasks/recmutex.o
 .comment       0x00000000       0x37 ./src/FreeRTOS_Demo/Full_Demo/Standard_Demo_Tasks/semtest.o
 .comment       0x00000000       0x37 ./src/FreeRTOS_Demo/Full_Demo/FreeRTOS-Plus-CLI/FreeRTOS_CLI.o
 .comment       0x00000000       0x37 ./src/FreeRTOS_Demo/Full_Demo/IntQueueTimer.o
 .comment       0x00000000       0x37 ./src/FreeRTOS_Demo/Full_Demo/Sample-CLI-commands.o
 .comment       0x00000000       0x37 ./src/FreeRTOS_Demo/Full_Demo/UARTCommandConsole.o
 .comment       0x00000000       0x37 ./src/FreeRTOS_Demo/Full_Demo/main_full.o
 .comment       0x00000000       0x37 ./src/FreeRTOS_Demo/Full_Demo/serial.o
 .comment       0x00000000       0x37 ./src/FreeRTOS/Source/portable/MemMang/heap_4.o
 .comment       0x00000000       0x37 ./src/FreeRTOS/Source/portable/GCC/RX_RenesasSim/port.o
 .comment       0x00000000       0x37 ./src/FreeRTOS/Source/event_groups.o
 .comment       0x00000000       0x37 ./src/FreeRTOS/Source/list.o
 .comment       0x00000000       0x37 ./src/FreeRTOS/Source/queue.o
 .comment       0x00000000       0x37 ./src/FreeRTOS/Source/stream_buffer.o
 .comment       0x00000000       0x37 ./src/FreeRTOS/Source/tasks.o
 .comment       0x00000000       0x37 ./src/FreeRTOS/Source/timers.o
 .comment       0x00000000       0x37 c:/renesas/gcc/redhat/gnurx-elf/8.3.0.202004/rx-elf/rx-elf/bin/../lib/gcc/rx-elf/8.3.0.202004-GNURX/../../../../rx-elf/lib/64-bit-double\libc_nano.a(lib_a-sprintf.o)
 .comment       0x00000000       0x37 c:/renesas/gcc/redhat/gnurx-elf/8.3.0.202004/rx-elf/rx-elf/bin/../lib/gcc/rx-elf/8.3.0.202004-GNURX/../../../../rx-elf/lib/64-bit-double\libc_nano.a(lib_a-impure.o)
 .comment       0x00000000       0x37 c:/renesas/gcc/redhat/gnurx-elf/8.3.0.202004/rx-elf/rx-elf/bin/../lib/gcc/rx-elf/8.3.0.202004-GNURX/../../../../rx-elf/lib/64-bit-double\libc_nano.a(lib_a-nano-svfprintf.o)
 .comment       0x00000000       0x37 c:/renesas/gcc/redhat/gnurx-elf/8.3.0.202004/rx-elf/rx-elf/bin/../lib/gcc/rx-elf/8.3.0.202004-GNURX/../../../../rx-elf/lib/64-bit-double\libc_nano.a(lib_a-nano-vfprintf_i.o)
 .comment       0x00000000       0x37 c:/renesas/gcc/redhat/gnurx-elf/8.3.0.202004/rx-elf/rx-elf/bin/../lib/gcc/rx-elf/8.3.0.202004-GNURX/../../../../rx-elf/lib/64-bit-double\libc_nano.a(lib_a-nano-freer.o)
 .comment       0x00000000       0x37 c:/renesas/gcc/redhat/gnurx-elf/8.3.0.202004/rx-elf/rx-elf/bin/../lib/gcc/rx-elf/8.3.0.202004-GNURX/../../../../rx-elf/lib/64-bit-double\libc_nano.a(lib_a-nano-mallocr.o)
 .comment       0x00000000       0x37 c:/renesas/gcc/redhat/gnurx-elf/8.3.0.202004/rx-elf/rx-elf/bin/../lib/gcc/rx-elf/8.3.0.202004-GNURX/../../../../rx-elf/lib/64-bit-double\libc_nano.a(lib_a-nano-reallocr.o)
 .comment       0x00000000       0x37 c:/renesas/gcc/redhat/gnurx-elf/8.3.0.202004/rx-elf/rx-elf/bin/../lib/gcc/rx-elf/8.3.0.202004-GNURX/../../../../rx-elf/lib/64-bit-double\libc_nano.a(lib_a-sbrkr.o)
 .comment       0x00000000       0x37 c:/renesas/gcc/redhat/gnurx-elf/8.3.0.202004/rx-elf/rx-elf/bin/../lib/gcc/rx-elf/8.3.0.202004-GNURX/../../../../rx-elf/lib/64-bit-double\libc_nano.a(lib_a-mlock.o)
 .comment       0x00000000       0x37 c:/renesas/gcc/redhat/gnurx-elf/8.3.0.202004/rx-elf/rx-elf/bin/../lib/gcc/rx-elf/8.3.0.202004-GNURX/../../../../rx-elf/lib/64-bit-double\libc_nano.a(lib_a-nano-msizer.o)
 .comment       0x00000000       0x37 c:/renesas/gcc/redhat/gnurx-elf/8.3.0.202004/rx-elf/rx-elf/bin/../lib/gcc/rx-elf/8.3.0.202004-GNURX/../../../../rx-elf/lib/64-bit-double\libc_nano.a(lib_a-reent.o)
 .comment       0x00000000       0x37 c:/renesas/gcc/redhat/gnurx-elf/8.3.0.202004/rx-elf/rx-elf/bin/../lib/gcc/rx-elf/8.3.0.202004-GNURX/64-bit-double\libgcc.a(_udivdi3.o)
 .comment       0x00000000       0x37 c:/renesas/gcc/redhat/gnurx-elf/8.3.0.202004/rx-elf/rx-elf/bin/../lib/gcc/rx-elf/8.3.0.202004-GNURX/64-bit-double\libgcc.a(_clz.o)

.debug_frame    0x00000000     0x3208
 .debug_frame   0x00000000       0x44 ./src/smc_integration/FIT_patch.o
 .debug_frame   0x00000044       0x2c ./src/smc_integration/IDE_helper.o
 .debug_frame   0x00000070       0x34 ./src/smc_integration/u_bsp_lowlvl_ext.o
 .debug_frame   0x000000a4       0xc4 ./src/smc_gen/r_gpio_rx/src/r_gpio_rx.o
 .debug_frame   0x00000168       0x4c ./src/smc_gen/r_bsp/mcu/rx72n/mcu_clocks.o
 .debug_frame   0x000001b4       0x44 ./src/smc_gen/r_bsp/mcu/rx72n/mcu_init.o
 .debug_frame   0x000001f8      0x158 ./src/smc_gen/r_bsp/mcu/rx72n/mcu_interrupts.o
 .debug_frame   0x00000350       0x24 ./src/smc_gen/r_bsp/mcu/rx72n/mcu_mapped_interrupts.o
 .debug_frame   0x00000374       0x34 ./src/smc_gen/r_bsp/mcu/all/lowlvl.o
 .debug_frame   0x000003a8       0x6c ./src/smc_gen/r_bsp/mcu/all/r_bsp_common.o
 .debug_frame   0x00000414       0xc4 ./src/smc_gen/r_bsp/mcu/all/r_bsp_cpu.o
 .debug_frame   0x000004d8      0x228 ./src/smc_gen/r_bsp/mcu/all/r_bsp_interrupts.o
 .debug_frame   0x00000700       0x70 ./src/smc_gen/r_bsp/mcu/all/r_bsp_locking.o
 .debug_frame   0x00000770      0x370 ./src/smc_gen/r_bsp/mcu/all/r_rx_intrinsic_functions.o
 .debug_frame   0x00000ae0       0x24 ./src/smc_gen/r_bsp/mcu/all/resetprg.o
 .debug_frame   0x00000b04       0x24 ./src/smc_gen/r_bsp/board/generic_rx72n/hwsetup.o
 .debug_frame   0x00000b28       0x74 ./src/smc_gen/general/r_cg_hardware_setup.o
 .debug_frame   0x00000b9c       0x24 ./src/smc_gen/general/r_smc_cgc.o
 .debug_frame   0x00000bc0       0x24 ./src/smc_gen/general/r_smc_cgc_user.o
 .debug_frame   0x00000be4      0x10c ./src/frtos_startup/freertos_start.o
 .debug_frame   0x00000cf0       0xb8 ./src/FreeRTOS_Demo/Full_Demo/Standard_Demo_Tasks/BlockQ.o
 .debug_frame   0x00000da8       0xec ./src/FreeRTOS_Demo/Full_Demo/Standard_Demo_Tasks/EventGroupsDemo.o
 .debug_frame   0x00000e94       0xdc ./src/FreeRTOS_Demo/Full_Demo/Standard_Demo_Tasks/GenQTest.o
 .debug_frame   0x00000f70      0x178 ./src/FreeRTOS_Demo/Full_Demo/Standard_Demo_Tasks/IntQueue.o
 .debug_frame   0x000010e8       0xd8 ./src/FreeRTOS_Demo/Full_Demo/Standard_Demo_Tasks/IntSemTest.o
 .debug_frame   0x000011c0       0x98 ./src/FreeRTOS_Demo/Full_Demo/Standard_Demo_Tasks/QueueOverwrite.o
 .debug_frame   0x00001258       0xe4 ./src/FreeRTOS_Demo/Full_Demo/Standard_Demo_Tasks/TaskNotify.o
 .debug_frame   0x0000133c       0xfc ./src/FreeRTOS_Demo/Full_Demo/Standard_Demo_Tasks/TaskNotifyArray.o
 .debug_frame   0x00001438      0x12c ./src/FreeRTOS_Demo/Full_Demo/Standard_Demo_Tasks/TimerDemo.o
 .debug_frame   0x00001564       0x98 ./src/FreeRTOS_Demo/Full_Demo/Standard_Demo_Tasks/blocktim.o
 .debug_frame   0x000015fc       0x90 ./src/FreeRTOS_Demo/Full_Demo/Standard_Demo_Tasks/countsem.o
 .debug_frame   0x0000168c       0xa0 ./src/FreeRTOS_Demo/Full_Demo/Standard_Demo_Tasks/death.o
 .debug_frame   0x0000172c       0xf8 ./src/FreeRTOS_Demo/Full_Demo/Standard_Demo_Tasks/dynamic.o
 .debug_frame   0x00001824      0x184 ./src/FreeRTOS_Demo/Full_Demo/Standard_Demo_Tasks/flop.o
 .debug_frame   0x000019a8       0xb4 ./src/FreeRTOS_Demo/Full_Demo/Standard_Demo_Tasks/recmutex.o
 .debug_frame   0x00001a5c       0x8c ./src/FreeRTOS_Demo/Full_Demo/Standard_Demo_Tasks/semtest.o
 .debug_frame   0x00001ae8       0x9c ./src/FreeRTOS_Demo/Full_Demo/FreeRTOS-Plus-CLI/FreeRTOS_CLI.o
 .debug_frame   0x00001b84       0x7c ./src/FreeRTOS_Demo/Full_Demo/IntQueueTimer.o
 .debug_frame   0x00001c00       0xc0 ./src/FreeRTOS_Demo/Full_Demo/Sample-CLI-commands.o
 .debug_frame   0x00001cc0       0x8c ./src/FreeRTOS_Demo/Full_Demo/UARTCommandConsole.o
 .debug_frame   0x00001d4c       0xcc ./src/FreeRTOS_Demo/Full_Demo/main_full.o
 .debug_frame   0x00001e18       0xa4 ./src/FreeRTOS_Demo/Full_Demo/serial.o
 .debug_frame   0x00001ebc       0xd0 ./src/FreeRTOS/Source/portable/MemMang/heap_4.o
 .debug_frame   0x00001f8c       0xc0 ./src/FreeRTOS/Source/portable/GCC/RX_RenesasSim/port.o
 .debug_frame   0x0000204c      0x188 ./src/FreeRTOS/Source/event_groups.o
 .debug_frame   0x000021d4       0x64 ./src/FreeRTOS/Source/list.o
 .debug_frame   0x00002238      0x430 ./src/FreeRTOS/Source/queue.o
 .debug_frame   0x00002668      0x24c ./src/FreeRTOS/Source/stream_buffer.o
 .debug_frame   0x000028b4      0x714 ./src/FreeRTOS/Source/tasks.o
 .debug_frame   0x00002fc8      0x240 ./src/FreeRTOS/Source/timers.o

.debug_loc      0x00000000    0x11d6a
 .debug_loc     0x00000000       0x63 ./src/smc_integration/FIT_patch.o
 .debug_loc     0x00000063      0xed4 ./src/smc_gen/r_gpio_rx/src/r_gpio_rx.o
 .debug_loc     0x00000f37      0x17e ./src/smc_gen/r_bsp/mcu/rx72n/mcu_clocks.o
 .debug_loc     0x000010b5      0x13b ./src/smc_gen/r_bsp/mcu/rx72n/mcu_interrupts.o
 .debug_loc     0x000011f0       0xa0 ./src/smc_gen/r_bsp/mcu/all/r_bsp_common.o
 .debug_loc     0x00001290      0x2d8 ./src/smc_gen/r_bsp/mcu/all/r_bsp_cpu.o
 .debug_loc     0x00001568     0x19ce ./src/smc_gen/r_bsp/mcu/all/r_bsp_interrupts.o
 .debug_loc     0x00002f36      0x11d ./src/smc_gen/r_bsp/mcu/all/r_bsp_locking.o
 .debug_loc     0x00003053      0x5c8 ./src/smc_gen/r_bsp/mcu/all/r_rx_intrinsic_functions.o
 .debug_loc     0x0000361b       0x18 ./src/smc_gen/r_bsp/board/generic_rx72n/hwsetup.o
 .debug_loc     0x00003633      0x1c9 ./src/frtos_startup/freertos_start.o
 .debug_loc     0x000037fc      0x263 ./src/FreeRTOS_Demo/Full_Demo/Standard_Demo_Tasks/BlockQ.o
 .debug_loc     0x00003a5f      0x3af ./src/FreeRTOS_Demo/Full_Demo/Standard_Demo_Tasks/EventGroupsDemo.o
 .debug_loc     0x00003e0e      0x1a2 ./src/FreeRTOS_Demo/Full_Demo/Standard_Demo_Tasks/GenQTest.o
 .debug_loc     0x00003fb0      0x7dd ./src/FreeRTOS_Demo/Full_Demo/Standard_Demo_Tasks/IntQueue.o
 .debug_loc     0x0000478d       0xc1 ./src/FreeRTOS_Demo/Full_Demo/Standard_Demo_Tasks/IntSemTest.o
 .debug_loc     0x0000484e       0x88 ./src/FreeRTOS_Demo/Full_Demo/Standard_Demo_Tasks/QueueOverwrite.o
 .debug_loc     0x000048d6      0x382 ./src/FreeRTOS_Demo/Full_Demo/Standard_Demo_Tasks/TaskNotify.o
 .debug_loc     0x00004c58      0xca3 ./src/FreeRTOS_Demo/Full_Demo/Standard_Demo_Tasks/TaskNotifyArray.o
 .debug_loc     0x000058fb      0x704 ./src/FreeRTOS_Demo/Full_Demo/Standard_Demo_Tasks/TimerDemo.o
 .debug_loc     0x00005fff      0x27b ./src/FreeRTOS_Demo/Full_Demo/Standard_Demo_Tasks/blocktim.o
 .debug_loc     0x0000627a      0x190 ./src/FreeRTOS_Demo/Full_Demo/Standard_Demo_Tasks/countsem.o
 .debug_loc     0x0000640a       0xd1 ./src/FreeRTOS_Demo/Full_Demo/Standard_Demo_Tasks/death.o
 .debug_loc     0x000064db      0x1ae ./src/FreeRTOS_Demo/Full_Demo/Standard_Demo_Tasks/dynamic.o
 .debug_loc     0x00006689      0x42a ./src/FreeRTOS_Demo/Full_Demo/Standard_Demo_Tasks/flop.o
 .debug_loc     0x00006ab3       0x8f ./src/FreeRTOS_Demo/Full_Demo/Standard_Demo_Tasks/recmutex.o
 .debug_loc     0x00006b42      0x16d ./src/FreeRTOS_Demo/Full_Demo/Standard_Demo_Tasks/semtest.o
 .debug_loc     0x00006caf      0x426 ./src/FreeRTOS_Demo/Full_Demo/FreeRTOS-Plus-CLI/FreeRTOS_CLI.o
 .debug_loc     0x000070d5      0x313 ./src/FreeRTOS_Demo/Full_Demo/Sample-CLI-commands.o
 .debug_loc     0x000073e8      0x11c ./src/FreeRTOS_Demo/Full_Demo/UARTCommandConsole.o
 .debug_loc     0x00007504      0x135 ./src/FreeRTOS_Demo/Full_Demo/main_full.o
 .debug_loc     0x00007639      0x251 ./src/FreeRTOS_Demo/Full_Demo/serial.o
 .debug_loc     0x0000788a      0x57f ./src/FreeRTOS/Source/portable/MemMang/heap_4.o
 .debug_loc     0x00007e09       0xed ./src/FreeRTOS/Source/portable/GCC/RX_RenesasSim/port.o
 .debug_loc     0x00007ef6      0xff6 ./src/FreeRTOS/Source/event_groups.o
 .debug_loc     0x00008eec       0x58 ./src/FreeRTOS/Source/list.o
 .debug_loc     0x00008f44     0x2530 ./src/FreeRTOS/Source/queue.o
 .debug_loc     0x0000b474     0x236a ./src/FreeRTOS/Source/stream_buffer.o
 .debug_loc     0x0000d7de     0x3688 ./src/FreeRTOS/Source/tasks.o
 .debug_loc     0x00010e66      0xf04 ./src/FreeRTOS/Source/timers.o

.debug_ranges   0x00000000     0x28b0
 .debug_ranges  0x00000000       0x20 ./src/smc_integration/FIT_patch.o
 .debug_ranges  0x00000020       0x10 ./src/smc_integration/IDE_helper.o
 .debug_ranges  0x00000030       0x18 ./src/smc_integration/u_bsp_lowlvl_ext.o
 .debug_ranges  0x00000048      0x1f0 ./src/smc_gen/r_gpio_rx/src/r_gpio_rx.o
 .debug_ranges  0x00000238       0x48 ./src/smc_gen/r_bsp/mcu/rx72n/mcu_clocks.o
 .debug_ranges  0x00000280       0x10 ./src/smc_gen/r_bsp/mcu/rx72n/mcu_init.o
 .debug_ranges  0x00000290       0x48 ./src/smc_gen/r_bsp/mcu/rx72n/mcu_interrupts.o
 .debug_ranges  0x000002d8       0x10 ./src/smc_gen/r_bsp/mcu/rx72n/mcu_mapped_interrupts.o
 .debug_ranges  0x000002e8       0x18 ./src/smc_gen/r_bsp/mcu/all/lowlvl.o
 .debug_ranges  0x00000300       0x40 ./src/smc_gen/r_bsp/mcu/all/r_bsp_common.o
 .debug_ranges  0x00000340       0x50 ./src/smc_gen/r_bsp/mcu/all/r_bsp_cpu.o
 .debug_ranges  0x00000390      0x2b8 ./src/smc_gen/r_bsp/mcu/all/r_bsp_interrupts.o
 .debug_ranges  0x00000648       0x40 ./src/smc_gen/r_bsp/mcu/all/r_bsp_locking.o
 .debug_ranges  0x00000688      0x160 ./src/smc_gen/r_bsp/mcu/all/r_rx_intrinsic_functions.o
 .debug_ranges  0x000007e8       0x10 ./src/smc_gen/r_bsp/mcu/all/resetprg.o
 .debug_ranges  0x000007f8       0x40 ./src/smc_gen/r_bsp/board/generic_rx72n/hwsetup.o
 .debug_ranges  0x00000838       0x40 ./src/smc_gen/general/r_cg_hardware_setup.o
 .debug_ranges  0x00000878       0x10 ./src/smc_gen/general/r_smc_cgc.o
 .debug_ranges  0x00000888       0x10 ./src/smc_gen/general/r_smc_cgc_user.o
 .debug_ranges  0x00000898       0xe8 ./src/frtos_startup/freertos_start.o
 .debug_ranges  0x00000980       0x28 ./src/FreeRTOS_Demo/Full_Demo/Standard_Demo_Tasks/BlockQ.o
 .debug_ranges  0x000009a8       0xa8 ./src/FreeRTOS_Demo/Full_Demo/Standard_Demo_Tasks/EventGroupsDemo.o
 .debug_ranges  0x00000a50       0x70 ./src/FreeRTOS_Demo/Full_Demo/Standard_Demo_Tasks/GenQTest.o
 .debug_ranges  0x00000ac0       0xc0 ./src/FreeRTOS_Demo/Full_Demo/Standard_Demo_Tasks/IntQueue.o
 .debug_ranges  0x00000b80       0x50 ./src/FreeRTOS_Demo/Full_Demo/Standard_Demo_Tasks/IntSemTest.o
 .debug_ranges  0x00000bd0       0x28 ./src/FreeRTOS_Demo/Full_Demo/Standard_Demo_Tasks/QueueOverwrite.o
 .debug_ranges  0x00000bf8       0xb0 ./src/FreeRTOS_Demo/Full_Demo/Standard_Demo_Tasks/TaskNotify.o
 .debug_ranges  0x00000ca8      0x100 ./src/FreeRTOS_Demo/Full_Demo/Standard_Demo_Tasks/TaskNotifyArray.o
 .debug_ranges  0x00000da8      0x150 ./src/FreeRTOS_Demo/Full_Demo/Standard_Demo_Tasks/TimerDemo.o
 .debug_ranges  0x00000ef8       0x40 ./src/FreeRTOS_Demo/Full_Demo/Standard_Demo_Tasks/blocktim.o
 .debug_ranges  0x00000f38       0x48 ./src/FreeRTOS_Demo/Full_Demo/Standard_Demo_Tasks/countsem.o
 .debug_ranges  0x00000f80       0x28 ./src/FreeRTOS_Demo/Full_Demo/Standard_Demo_Tasks/death.o
 .debug_ranges  0x00000fa8       0x40 ./src/FreeRTOS_Demo/Full_Demo/Standard_Demo_Tasks/dynamic.o
 .debug_ranges  0x00000fe8       0x38 ./src/FreeRTOS_Demo/Full_Demo/Standard_Demo_Tasks/flop.o
 .debug_ranges  0x00001020       0x30 ./src/FreeRTOS_Demo/Full_Demo/Standard_Demo_Tasks/recmutex.o
 .debug_ranges  0x00001050       0x20 ./src/FreeRTOS_Demo/Full_Demo/Standard_Demo_Tasks/semtest.o
 .debug_ranges  0x00001070       0x48 ./src/FreeRTOS_Demo/Full_Demo/FreeRTOS-Plus-CLI/FreeRTOS_CLI.o
 .debug_ranges  0x000010b8       0x20 ./src/FreeRTOS_Demo/Full_Demo/IntQueueTimer.o
 .debug_ranges  0x000010d8       0x30 ./src/FreeRTOS_Demo/Full_Demo/Sample-CLI-commands.o
 .debug_ranges  0x00001108       0x20 ./src/FreeRTOS_Demo/Full_Demo/UARTCommandConsole.o
 .debug_ranges  0x00001128       0x48 ./src/FreeRTOS_Demo/Full_Demo/main_full.o
 .debug_ranges  0x00001170       0x68 ./src/FreeRTOS_Demo/Full_Demo/serial.o
 .debug_ranges  0x000011d8       0x80 ./src/FreeRTOS/Source/portable/MemMang/heap_4.o
 .debug_ranges  0x00001258       0x50 ./src/FreeRTOS/Source/portable/GCC/RX_RenesasSim/port.o
 .debug_ranges  0x000012a8       0xf0 ./src/FreeRTOS/Source/event_groups.o
 .debug_ranges  0x00001398       0x30 ./src/FreeRTOS/Source/list.o
 .debug_ranges  0x000013c8      0x5a0 ./src/FreeRTOS/Source/queue.o
 .debug_ranges  0x00001968      0x2d0 ./src/FreeRTOS/Source/stream_buffer.o
 .debug_ranges  0x00001c38      0xa38 ./src/FreeRTOS/Source/tasks.o
 .debug_ranges  0x00002670      0x240 ./src/FreeRTOS/Source/timers.o
